

Microchip MPLAB XC8 Assembler V2.05 build -831301201 
                                                                                               Sat Mar 28 00:37:48 2020

Microchip MPLAB XC8 C Compiler v2.05 (Free license) build 20181220022703 Og1 
     1                           	processor	16F18446
     2                           	opt	pw 120
     3                           	opt	flic
     4                           	psect	idataCOMMON,global,class=CODE,delta=2
     5                           	psect	cinit,global,class=CODE,merge=1,delta=2
     6                           	psect	dataCOMMON,global,class=COMMON,space=1,delta=1
     7                           	psect	bssBANK0,global,class=BANK0,space=1,delta=1
     8                           	psect	clrtext,global,class=CODE,delta=2
     9                           	psect	cstackCOMMON,global,class=COMMON,space=1,delta=1
    10                           	psect	maintext,global,class=CODE,merge=1,split=1,delta=2
    11                           	psect	text1,local,class=CODE,merge=1,delta=2
    12                           	psect	text2,local,class=CODE,merge=1,delta=2
    13                           	psect	text3,local,class=CODE,merge=1,delta=2
    14                           	psect	intentry,global,class=CODE,delta=2
    15                           	dabs	1,0x7E,2
    16  0000                     
    17                           ; Version 2.05
    18                           ; Generated 20/12/2018 GMT
    19                           ; 
    20                           ; Copyright © 2018, Microchip Technology Inc. and its subsidiaries ("Microchip")
    21                           ; All rights reserved.
    22                           ; 
    23                           ; This software is developed by Microchip Technology Inc. and its subsidiaries ("Microch
      +                          ip").
    24                           ; 
    25                           ; Redistribution and use in source and binary forms, with or without modification, are
    26                           ; permitted provided that the following conditions are met:
    27                           ; 
    28                           ;     1. Redistributions of source code must retain the above copyright notice, this lis
      +                          t of
    29                           ;        conditions and the following disclaimer.
    30                           ; 
    31                           ;     2. Redistributions in binary form must reproduce the above copyright notice, this 
      +                          list
    32                           ;        of conditions and the following disclaimer in the documentation and/or other
    33                           ;        materials provided with the distribution.
    34                           ; 
    35                           ;     3. Microchip's name may not be used to endorse or promote products derived from th
      +                          is
    36                           ;        software without specific prior written permission.
    37                           ; 
    38                           ; THIS SOFTWARE IS PROVIDED BY MICROCHIP "AS IS" AND ANY EXPRESS OR IMPLIED WARRANTIES,
    39                           ; INCLUDING, BUT NOT LIMITED TO, THE IMPLIED WARRANTIES OF MERCHANTABILITY AND FITNESS F
      +                          OR
    40                           ; PURPOSE ARE DISCLAIMED.  IN NO EVENT SHALL MICROCHIP BE LIABLE FOR ANY DIRECT, INDIREC
      +                          T,
    41                           ; INCIDENTAL, SPECIAL, EXEMPLARY, OR CONSEQUENTIAL DAMAGES (INCLUDING BUT NOT LIMITED TO
    42                           ; PROCUREMENT OF SUBSTITUTE GOODS OR SERVICES; LOSS OF USE, DATA OR PROFITS; OR BUSINESS
    43                           ; INTERRUPTION) HOWSOEVER CAUSED AND ON ANY THEORY OF LIABILITY, WHETHER IN CONTRACT, ST
      +                          RICT
    44                           ; LIABILITY, OR TORT (INCLUDING NEGLIGENCE OR OTHERWISE) ARISING IN ANY WAY OUT OF THE U
      +                          SE OF
    45                           ; THIS SOFTWARE, EVEN IF ADVISED OF THE POSSIBILITY OF SUCH DAMAGE.
    46                           ; 
    47                           ; 
    48                           ; Code-generator required, PIC16F18446 Definitions
    49                           ; 
    50                           ; SFR Addresses
    51  0000                     	;# 
    52  0001                     	;# 
    53  0002                     	;# 
    54  0003                     	;# 
    55  0004                     	;# 
    56  0005                     	;# 
    57  0006                     	;# 
    58  0007                     	;# 
    59  0008                     	;# 
    60  0009                     	;# 
    61  000A                     	;# 
    62  000B                     	;# 
    63  000C                     	;# 
    64  000D                     	;# 
    65  000E                     	;# 
    66  0012                     	;# 
    67  0013                     	;# 
    68  0014                     	;# 
    69  0018                     	;# 
    70  0019                     	;# 
    71  001A                     	;# 
    72  008C                     	;# 
    73  008C                     	;# 
    74  008D                     	;# 
    75  008E                     	;# 
    76  008E                     	;# 
    77  008F                     	;# 
    78  0090                     	;# 
    79  0090                     	;# 
    80  0091                     	;# 
    81  0092                     	;# 
    82  0092                     	;# 
    83  0093                     	;# 
    84  0094                     	;# 
    85  0094                     	;# 
    86  0095                     	;# 
    87  0096                     	;# 
    88  0096                     	;# 
    89  0097                     	;# 
    90  0098                     	;# 
    91  0099                     	;# 
    92  009A                     	;# 
    93  009B                     	;# 
    94  009B                     	;# 
    95  009C                     	;# 
    96  009D                     	;# 
    97  009D                     	;# 
    98  009E                     	;# 
    99  009F                     	;# 
   100  010C                     	;# 
   101  010C                     	;# 
   102  010D                     	;# 
   103  010E                     	;# 
   104  010F                     	;# 
   105  010F                     	;# 
   106  0110                     	;# 
   107  0111                     	;# 
   108  0112                     	;# 
   109  0113                     	;# 
   110  0114                     	;# 
   111  0115                     	;# 
   112  0116                     	;# 
   113  0117                     	;# 
   114  0118                     	;# 
   115  0119                     	;# 
   116  0119                     	;# 
   117  0119                     	;# 
   118  011A                     	;# 
   119  011A                     	;# 
   120  011A                     	;# 
   121  011B                     	;# 
   122  011B                     	;# 
   123  011B                     	;# 
   124  011B                     	;# 
   125  011B                     	;# 
   126  011C                     	;# 
   127  011C                     	;# 
   128  011C                     	;# 
   129  011D                     	;# 
   130  011D                     	;# 
   131  011D                     	;# 
   132  011E                     	;# 
   133  011E                     	;# 
   134  011E                     	;# 
   135  011F                     	;# 
   136  011F                     	;# 
   137  011F                     	;# 
   138  011F                     	;# 
   139  011F                     	;# 
   140  018C                     	;# 
   141  018D                     	;# 
   142  018E                     	;# 
   143  018F                     	;# 
   144  0190                     	;# 
   145  0191                     	;# 
   146  0192                     	;# 
   147  0196                     	;# 
   148  0197                     	;# 
   149  0198                     	;# 
   150  0199                     	;# 
   151  019A                     	;# 
   152  019B                     	;# 
   153  019C                     	;# 
   154  020C                     	;# 
   155  020D                     	;# 
   156  020E                     	;# 
   157  020E                     	;# 
   158  020F                     	;# 
   159  020F                     	;# 
   160  0210                     	;# 
   161  0210                     	;# 
   162  0211                     	;# 
   163  0211                     	;# 
   164  0212                     	;# 
   165  0213                     	;# 
   166  0214                     	;# 
   167  0214                     	;# 
   168  0215                     	;# 
   169  0215                     	;# 
   170  0216                     	;# 
   171  0216                     	;# 
   172  0217                     	;# 
   173  0217                     	;# 
   174  0218                     	;# 
   175  0219                     	;# 
   176  021A                     	;# 
   177  021A                     	;# 
   178  021B                     	;# 
   179  021B                     	;# 
   180  021C                     	;# 
   181  021C                     	;# 
   182  021D                     	;# 
   183  021D                     	;# 
   184  021E                     	;# 
   185  021F                     	;# 
   186  028C                     	;# 
   187  028C                     	;# 
   188  028D                     	;# 
   189  028D                     	;# 
   190  028E                     	;# 
   191  028F                     	;# 
   192  0290                     	;# 
   193  0291                     	;# 
   194  0292                     	;# 
   195  0292                     	;# 
   196  0293                     	;# 
   197  0293                     	;# 
   198  0294                     	;# 
   199  0295                     	;# 
   200  0296                     	;# 
   201  0297                     	;# 
   202  0298                     	;# 
   203  0298                     	;# 
   204  0299                     	;# 
   205  0299                     	;# 
   206  029A                     	;# 
   207  029B                     	;# 
   208  029C                     	;# 
   209  029D                     	;# 
   210  029F                     	;# 
   211  030C                     	;# 
   212  030C                     	;# 
   213  030D                     	;# 
   214  030E                     	;# 
   215  030F                     	;# 
   216  0310                     	;# 
   217  0310                     	;# 
   218  0311                     	;# 
   219  0312                     	;# 
   220  0313                     	;# 
   221  0314                     	;# 
   222  0314                     	;# 
   223  0315                     	;# 
   224  0316                     	;# 
   225  0317                     	;# 
   226  0318                     	;# 
   227  0318                     	;# 
   228  0319                     	;# 
   229  031A                     	;# 
   230  031B                     	;# 
   231  038C                     	;# 
   232  038C                     	;# 
   233  038D                     	;# 
   234  038E                     	;# 
   235  0390                     	;# 
   236  0390                     	;# 
   237  0391                     	;# 
   238  0392                     	;# 
   239  048C                     	;# 
   240  048C                     	;# 
   241  048D                     	;# 
   242  048E                     	;# 
   243  048F                     	;# 
   244  048F                     	;# 
   245  0490                     	;# 
   246  0491                     	;# 
   247  0492                     	;# 
   248  0492                     	;# 
   249  0493                     	;# 
   250  0494                     	;# 
   251  0495                     	;# 
   252  0495                     	;# 
   253  0496                     	;# 
   254  0497                     	;# 
   255  0498                     	;# 
   256  0499                     	;# 
   257  049A                     	;# 
   258  049B                     	;# 
   259  049C                     	;# 
   260  049D                     	;# 
   261  058C                     	;# 
   262  058C                     	;# 
   263  058D                     	;# 
   264  058E                     	;# 
   265  058F                     	;# 
   266  058F                     	;# 
   267  0590                     	;# 
   268  0591                     	;# 
   269  0592                     	;# 
   270  0593                     	;# 
   271  059C                     	;# 
   272  059C                     	;# 
   273  059D                     	;# 
   274  059D                     	;# 
   275  059E                     	;# 
   276  059F                     	;# 
   277  060C                     	;# 
   278  060C                     	;# 
   279  060D                     	;# 
   280  060D                     	;# 
   281  060E                     	;# 
   282  060F                     	;# 
   283  0610                     	;# 
   284  0611                     	;# 
   285  0612                     	;# 
   286  0613                     	;# 
   287  0614                     	;# 
   288  0616                     	;# 
   289  0616                     	;# 
   290  0617                     	;# 
   291  0617                     	;# 
   292  0618                     	;# 
   293  0619                     	;# 
   294  061A                     	;# 
   295  061B                     	;# 
   296  061C                     	;# 
   297  061D                     	;# 
   298  061E                     	;# 
   299  070C                     	;# 
   300  070D                     	;# 
   301  070E                     	;# 
   302  070F                     	;# 
   303  0710                     	;# 
   304  0711                     	;# 
   305  0712                     	;# 
   306  0713                     	;# 
   307  0714                     	;# 
   308  0716                     	;# 
   309  0717                     	;# 
   310  0718                     	;# 
   311  0719                     	;# 
   312  071A                     	;# 
   313  071B                     	;# 
   314  071C                     	;# 
   315  071D                     	;# 
   316  071E                     	;# 
   317  0796                     	;# 
   318  0797                     	;# 
   319  0798                     	;# 
   320  0799                     	;# 
   321  079A                     	;# 
   322  079B                     	;# 
   323  079C                     	;# 
   324  079D                     	;# 
   325  080C                     	;# 
   326  080D                     	;# 
   327  080E                     	;# 
   328  080F                     	;# 
   329  0810                     	;# 
   330  0811                     	;# 
   331  0812                     	;# 
   332  0813                     	;# 
   333  0814                     	;# 
   334  081A                     	;# 
   335  081A                     	;# 
   336  081B                     	;# 
   337  081C                     	;# 
   338  081C                     	;# 
   339  081D                     	;# 
   340  081E                     	;# 
   341  081F                     	;# 
   342  088C                     	;# 
   343  088D                     	;# 
   344  088E                     	;# 
   345  088F                     	;# 
   346  0890                     	;# 
   347  0891                     	;# 
   348  0892                     	;# 
   349  0893                     	;# 
   350  0895                     	;# 
   351  0896                     	;# 
   352  0897                     	;# 
   353  0898                     	;# 
   354  0899                     	;# 
   355  089A                     	;# 
   356  089B                     	;# 
   357  090C                     	;# 
   358  090E                     	;# 
   359  090F                     	;# 
   360  091F                     	;# 
   361  098F                     	;# 
   362  098F                     	;# 
   363  0990                     	;# 
   364  0991                     	;# 
   365  0992                     	;# 
   366  0993                     	;# 
   367  0994                     	;# 
   368  0995                     	;# 
   369  0996                     	;# 
   370  0997                     	;# 
   371  1E0F                     	;# 
   372  1E10                     	;# 
   373  1E11                     	;# 
   374  1E12                     	;# 
   375  1E13                     	;# 
   376  1E14                     	;# 
   377  1E15                     	;# 
   378  1E16                     	;# 
   379  1E17                     	;# 
   380  1E18                     	;# 
   381  1E19                     	;# 
   382  1E1A                     	;# 
   383  1E1B                     	;# 
   384  1E1C                     	;# 
   385  1E1D                     	;# 
   386  1E1E                     	;# 
   387  1E1F                     	;# 
   388  1E20                     	;# 
   389  1E21                     	;# 
   390  1E22                     	;# 
   391  1E23                     	;# 
   392  1E24                     	;# 
   393  1E25                     	;# 
   394  1E26                     	;# 
   395  1E27                     	;# 
   396  1E28                     	;# 
   397  1E29                     	;# 
   398  1E2A                     	;# 
   399  1E2B                     	;# 
   400  1E2C                     	;# 
   401  1E2D                     	;# 
   402  1E2E                     	;# 
   403  1E2F                     	;# 
   404  1E30                     	;# 
   405  1E31                     	;# 
   406  1E32                     	;# 
   407  1E33                     	;# 
   408  1E34                     	;# 
   409  1E35                     	;# 
   410  1E36                     	;# 
   411  1E37                     	;# 
   412  1E8F                     	;# 
   413  1E90                     	;# 
   414  1E91                     	;# 
   415  1E92                     	;# 
   416  1E93                     	;# 
   417  1E94                     	;# 
   418  1E95                     	;# 
   419  1E96                     	;# 
   420  1E97                     	;# 
   421  1E9C                     	;# 
   422  1E9D                     	;# 
   423  1E9E                     	;# 
   424  1EA1                     	;# 
   425  1EA2                     	;# 
   426  1EA3                     	;# 
   427  1EA4                     	;# 
   428  1EA9                     	;# 
   429  1EAA                     	;# 
   430  1EB1                     	;# 
   431  1EB2                     	;# 
   432  1EB8                     	;# 
   433  1EB9                     	;# 
   434  1EBA                     	;# 
   435  1EBB                     	;# 
   436  1EBC                     	;# 
   437  1EBD                     	;# 
   438  1EBE                     	;# 
   439  1EC3                     	;# 
   440  1EC5                     	;# 
   441  1EC6                     	;# 
   442  1EC7                     	;# 
   443  1EC8                     	;# 
   444  1EC9                     	;# 
   445  1ECA                     	;# 
   446  1ECB                     	;# 
   447  1ECB                     	;# 
   448  1ECB                     	;# 
   449  1ECC                     	;# 
   450  1ECC                     	;# 
   451  1ECC                     	;# 
   452  1F10                     	;# 
   453  1F11                     	;# 
   454  1F12                     	;# 
   455  1F14                     	;# 
   456  1F15                     	;# 
   457  1F1C                     	;# 
   458  1F1D                     	;# 
   459  1F1E                     	;# 
   460  1F1F                     	;# 
   461  1F20                     	;# 
   462  1F21                     	;# 
   463  1F22                     	;# 
   464  1F23                     	;# 
   465  1F24                     	;# 
   466  1F25                     	;# 
   467  1F26                     	;# 
   468  1F27                     	;# 
   469  1F38                     	;# 
   470  1F39                     	;# 
   471  1F3A                     	;# 
   472  1F3B                     	;# 
   473  1F3C                     	;# 
   474  1F3D                     	;# 
   475  1F3E                     	;# 
   476  1F3F                     	;# 
   477  1F43                     	;# 
   478  1F44                     	;# 
   479  1F45                     	;# 
   480  1F46                     	;# 
   481  1F47                     	;# 
   482  1F48                     	;# 
   483  1F49                     	;# 
   484  1F4A                     	;# 
   485  1F4E                     	;# 
   486  1F4F                     	;# 
   487  1F50                     	;# 
   488  1F51                     	;# 
   489  1F52                     	;# 
   490  1F53                     	;# 
   491  1F54                     	;# 
   492  1F55                     	;# 
   493  1FE4                     	;# 
   494  1FE5                     	;# 
   495  1FE6                     	;# 
   496  1FE7                     	;# 
   497  1FE8                     	;# 
   498  1FE8                     	;# 
   499  1FE9                     	;# 
   500  1FEA                     	;# 
   501  1FEB                     	;# 
   502  1FED                     	;# 
   503  1FEE                     	;# 
   504  1FEF                     	;# 
   505  0000                     	;# 
   506  0001                     	;# 
   507  0002                     	;# 
   508  0003                     	;# 
   509  0004                     	;# 
   510  0005                     	;# 
   511  0006                     	;# 
   512  0007                     	;# 
   513  0008                     	;# 
   514  0009                     	;# 
   515  000A                     	;# 
   516  000B                     	;# 
   517  000C                     	;# 
   518  000D                     	;# 
   519  000E                     	;# 
   520  0012                     	;# 
   521  0013                     	;# 
   522  0014                     	;# 
   523  0018                     	;# 
   524  0019                     	;# 
   525  001A                     	;# 
   526  008C                     	;# 
   527  008C                     	;# 
   528  008D                     	;# 
   529  008E                     	;# 
   530  008E                     	;# 
   531  008F                     	;# 
   532  0090                     	;# 
   533  0090                     	;# 
   534  0091                     	;# 
   535  0092                     	;# 
   536  0092                     	;# 
   537  0093                     	;# 
   538  0094                     	;# 
   539  0094                     	;# 
   540  0095                     	;# 
   541  0096                     	;# 
   542  0096                     	;# 
   543  0097                     	;# 
   544  0098                     	;# 
   545  0099                     	;# 
   546  009A                     	;# 
   547  009B                     	;# 
   548  009B                     	;# 
   549  009C                     	;# 
   550  009D                     	;# 
   551  009D                     	;# 
   552  009E                     	;# 
   553  009F                     	;# 
   554  010C                     	;# 
   555  010C                     	;# 
   556  010D                     	;# 
   557  010E                     	;# 
   558  010F                     	;# 
   559  010F                     	;# 
   560  0110                     	;# 
   561  0111                     	;# 
   562  0112                     	;# 
   563  0113                     	;# 
   564  0114                     	;# 
   565  0115                     	;# 
   566  0116                     	;# 
   567  0117                     	;# 
   568  0118                     	;# 
   569  0119                     	;# 
   570  0119                     	;# 
   571  0119                     	;# 
   572  011A                     	;# 
   573  011A                     	;# 
   574  011A                     	;# 
   575  011B                     	;# 
   576  011B                     	;# 
   577  011B                     	;# 
   578  011B                     	;# 
   579  011B                     	;# 
   580  011C                     	;# 
   581  011C                     	;# 
   582  011C                     	;# 
   583  011D                     	;# 
   584  011D                     	;# 
   585  011D                     	;# 
   586  011E                     	;# 
   587  011E                     	;# 
   588  011E                     	;# 
   589  011F                     	;# 
   590  011F                     	;# 
   591  011F                     	;# 
   592  011F                     	;# 
   593  011F                     	;# 
   594  018C                     	;# 
   595  018D                     	;# 
   596  018E                     	;# 
   597  018F                     	;# 
   598  0190                     	;# 
   599  0191                     	;# 
   600  0192                     	;# 
   601  0196                     	;# 
   602  0197                     	;# 
   603  0198                     	;# 
   604  0199                     	;# 
   605  019A                     	;# 
   606  019B                     	;# 
   607  019C                     	;# 
   608  020C                     	;# 
   609  020D                     	;# 
   610  020E                     	;# 
   611  020E                     	;# 
   612  020F                     	;# 
   613  020F                     	;# 
   614  0210                     	;# 
   615  0210                     	;# 
   616  0211                     	;# 
   617  0211                     	;# 
   618  0212                     	;# 
   619  0213                     	;# 
   620  0214                     	;# 
   621  0214                     	;# 
   622  0215                     	;# 
   623  0215                     	;# 
   624  0216                     	;# 
   625  0216                     	;# 
   626  0217                     	;# 
   627  0217                     	;# 
   628  0218                     	;# 
   629  0219                     	;# 
   630  021A                     	;# 
   631  021A                     	;# 
   632  021B                     	;# 
   633  021B                     	;# 
   634  021C                     	;# 
   635  021C                     	;# 
   636  021D                     	;# 
   637  021D                     	;# 
   638  021E                     	;# 
   639  021F                     	;# 
   640  028C                     	;# 
   641  028C                     	;# 
   642  028D                     	;# 
   643  028D                     	;# 
   644  028E                     	;# 
   645  028F                     	;# 
   646  0290                     	;# 
   647  0291                     	;# 
   648  0292                     	;# 
   649  0292                     	;# 
   650  0293                     	;# 
   651  0293                     	;# 
   652  0294                     	;# 
   653  0295                     	;# 
   654  0296                     	;# 
   655  0297                     	;# 
   656  0298                     	;# 
   657  0298                     	;# 
   658  0299                     	;# 
   659  0299                     	;# 
   660  029A                     	;# 
   661  029B                     	;# 
   662  029C                     	;# 
   663  029D                     	;# 
   664  029F                     	;# 
   665  030C                     	;# 
   666  030C                     	;# 
   667  030D                     	;# 
   668  030E                     	;# 
   669  030F                     	;# 
   670  0310                     	;# 
   671  0310                     	;# 
   672  0311                     	;# 
   673  0312                     	;# 
   674  0313                     	;# 
   675  0314                     	;# 
   676  0314                     	;# 
   677  0315                     	;# 
   678  0316                     	;# 
   679  0317                     	;# 
   680  0318                     	;# 
   681  0318                     	;# 
   682  0319                     	;# 
   683  031A                     	;# 
   684  031B                     	;# 
   685  038C                     	;# 
   686  038C                     	;# 
   687  038D                     	;# 
   688  038E                     	;# 
   689  0390                     	;# 
   690  0390                     	;# 
   691  0391                     	;# 
   692  0392                     	;# 
   693  048C                     	;# 
   694  048C                     	;# 
   695  048D                     	;# 
   696  048E                     	;# 
   697  048F                     	;# 
   698  048F                     	;# 
   699  0490                     	;# 
   700  0491                     	;# 
   701  0492                     	;# 
   702  0492                     	;# 
   703  0493                     	;# 
   704  0494                     	;# 
   705  0495                     	;# 
   706  0495                     	;# 
   707  0496                     	;# 
   708  0497                     	;# 
   709  0498                     	;# 
   710  0499                     	;# 
   711  049A                     	;# 
   712  049B                     	;# 
   713  049C                     	;# 
   714  049D                     	;# 
   715  058C                     	;# 
   716  058C                     	;# 
   717  058D                     	;# 
   718  058E                     	;# 
   719  058F                     	;# 
   720  058F                     	;# 
   721  0590                     	;# 
   722  0591                     	;# 
   723  0592                     	;# 
   724  0593                     	;# 
   725  059C                     	;# 
   726  059C                     	;# 
   727  059D                     	;# 
   728  059D                     	;# 
   729  059E                     	;# 
   730  059F                     	;# 
   731  060C                     	;# 
   732  060C                     	;# 
   733  060D                     	;# 
   734  060D                     	;# 
   735  060E                     	;# 
   736  060F                     	;# 
   737  0610                     	;# 
   738  0611                     	;# 
   739  0612                     	;# 
   740  0613                     	;# 
   741  0614                     	;# 
   742  0616                     	;# 
   743  0616                     	;# 
   744  0617                     	;# 
   745  0617                     	;# 
   746  0618                     	;# 
   747  0619                     	;# 
   748  061A                     	;# 
   749  061B                     	;# 
   750  061C                     	;# 
   751  061D                     	;# 
   752  061E                     	;# 
   753  070C                     	;# 
   754  070D                     	;# 
   755  070E                     	;# 
   756  070F                     	;# 
   757  0710                     	;# 
   758  0711                     	;# 
   759  0712                     	;# 
   760  0713                     	;# 
   761  0714                     	;# 
   762  0716                     	;# 
   763  0717                     	;# 
   764  0718                     	;# 
   765  0719                     	;# 
   766  071A                     	;# 
   767  071B                     	;# 
   768  071C                     	;# 
   769  071D                     	;# 
   770  071E                     	;# 
   771  0796                     	;# 
   772  0797                     	;# 
   773  0798                     	;# 
   774  0799                     	;# 
   775  079A                     	;# 
   776  079B                     	;# 
   777  079C                     	;# 
   778  079D                     	;# 
   779  080C                     	;# 
   780  080D                     	;# 
   781  080E                     	;# 
   782  080F                     	;# 
   783  0810                     	;# 
   784  0811                     	;# 
   785  0812                     	;# 
   786  0813                     	;# 
   787  0814                     	;# 
   788  081A                     	;# 
   789  081A                     	;# 
   790  081B                     	;# 
   791  081C                     	;# 
   792  081C                     	;# 
   793  081D                     	;# 
   794  081E                     	;# 
   795  081F                     	;# 
   796  088C                     	;# 
   797  088D                     	;# 
   798  088E                     	;# 
   799  088F                     	;# 
   800  0890                     	;# 
   801  0891                     	;# 
   802  0892                     	;# 
   803  0893                     	;# 
   804  0895                     	;# 
   805  0896                     	;# 
   806  0897                     	;# 
   807  0898                     	;# 
   808  0899                     	;# 
   809  089A                     	;# 
   810  089B                     	;# 
   811  090C                     	;# 
   812  090E                     	;# 
   813  090F                     	;# 
   814  091F                     	;# 
   815  098F                     	;# 
   816  098F                     	;# 
   817  0990                     	;# 
   818  0991                     	;# 
   819  0992                     	;# 
   820  0993                     	;# 
   821  0994                     	;# 
   822  0995                     	;# 
   823  0996                     	;# 
   824  0997                     	;# 
   825  1E0F                     	;# 
   826  1E10                     	;# 
   827  1E11                     	;# 
   828  1E12                     	;# 
   829  1E13                     	;# 
   830  1E14                     	;# 
   831  1E15                     	;# 
   832  1E16                     	;# 
   833  1E17                     	;# 
   834  1E18                     	;# 
   835  1E19                     	;# 
   836  1E1A                     	;# 
   837  1E1B                     	;# 
   838  1E1C                     	;# 
   839  1E1D                     	;# 
   840  1E1E                     	;# 
   841  1E1F                     	;# 
   842  1E20                     	;# 
   843  1E21                     	;# 
   844  1E22                     	;# 
   845  1E23                     	;# 
   846  1E24                     	;# 
   847  1E25                     	;# 
   848  1E26                     	;# 
   849  1E27                     	;# 
   850  1E28                     	;# 
   851  1E29                     	;# 
   852  1E2A                     	;# 
   853  1E2B                     	;# 
   854  1E2C                     	;# 
   855  1E2D                     	;# 
   856  1E2E                     	;# 
   857  1E2F                     	;# 
   858  1E30                     	;# 
   859  1E31                     	;# 
   860  1E32                     	;# 
   861  1E33                     	;# 
   862  1E34                     	;# 
   863  1E35                     	;# 
   864  1E36                     	;# 
   865  1E37                     	;# 
   866  1E8F                     	;# 
   867  1E90                     	;# 
   868  1E91                     	;# 
   869  1E92                     	;# 
   870  1E93                     	;# 
   871  1E94                     	;# 
   872  1E95                     	;# 
   873  1E96                     	;# 
   874  1E97                     	;# 
   875  1E9C                     	;# 
   876  1E9D                     	;# 
   877  1E9E                     	;# 
   878  1EA1                     	;# 
   879  1EA2                     	;# 
   880  1EA3                     	;# 
   881  1EA4                     	;# 
   882  1EA9                     	;# 
   883  1EAA                     	;# 
   884  1EB1                     	;# 
   885  1EB2                     	;# 
   886  1EB8                     	;# 
   887  1EB9                     	;# 
   888  1EBA                     	;# 
   889  1EBB                     	;# 
   890  1EBC                     	;# 
   891  1EBD                     	;# 
   892  1EBE                     	;# 
   893  1EC3                     	;# 
   894  1EC5                     	;# 
   895  1EC6                     	;# 
   896  1EC7                     	;# 
   897  1EC8                     	;# 
   898  1EC9                     	;# 
   899  1ECA                     	;# 
   900  1ECB                     	;# 
   901  1ECB                     	;# 
   902  1ECB                     	;# 
   903  1ECC                     	;# 
   904  1ECC                     	;# 
   905  1ECC                     	;# 
   906  1F10                     	;# 
   907  1F11                     	;# 
   908  1F12                     	;# 
   909  1F14                     	;# 
   910  1F15                     	;# 
   911  1F1C                     	;# 
   912  1F1D                     	;# 
   913  1F1E                     	;# 
   914  1F1F                     	;# 
   915  1F20                     	;# 
   916  1F21                     	;# 
   917  1F22                     	;# 
   918  1F23                     	;# 
   919  1F24                     	;# 
   920  1F25                     	;# 
   921  1F26                     	;# 
   922  1F27                     	;# 
   923  1F38                     	;# 
   924  1F39                     	;# 
   925  1F3A                     	;# 
   926  1F3B                     	;# 
   927  1F3C                     	;# 
   928  1F3D                     	;# 
   929  1F3E                     	;# 
   930  1F3F                     	;# 
   931  1F43                     	;# 
   932  1F44                     	;# 
   933  1F45                     	;# 
   934  1F46                     	;# 
   935  1F47                     	;# 
   936  1F48                     	;# 
   937  1F49                     	;# 
   938  1F4A                     	;# 
   939  1F4E                     	;# 
   940  1F4F                     	;# 
   941  1F50                     	;# 
   942  1F51                     	;# 
   943  1F52                     	;# 
   944  1F53                     	;# 
   945  1F54                     	;# 
   946  1F55                     	;# 
   947  1FE4                     	;# 
   948  1FE5                     	;# 
   949  1FE6                     	;# 
   950  1FE7                     	;# 
   951  1FE8                     	;# 
   952  1FE8                     	;# 
   953  1FE9                     	;# 
   954  1FEA                     	;# 
   955  1FEB                     	;# 
   956  1FED                     	;# 
   957  1FEE                     	;# 
   958  1FEF                     	;# 
   959  0000                     	;# 
   960  0001                     	;# 
   961  0002                     	;# 
   962  0003                     	;# 
   963  0004                     	;# 
   964  0005                     	;# 
   965  0006                     	;# 
   966  0007                     	;# 
   967  0008                     	;# 
   968  0009                     	;# 
   969  000A                     	;# 
   970  000B                     	;# 
   971  000C                     	;# 
   972  000D                     	;# 
   973  000E                     	;# 
   974  0012                     	;# 
   975  0013                     	;# 
   976  0014                     	;# 
   977  0018                     	;# 
   978  0019                     	;# 
   979  001A                     	;# 
   980  008C                     	;# 
   981  008C                     	;# 
   982  008D                     	;# 
   983  008E                     	;# 
   984  008E                     	;# 
   985  008F                     	;# 
   986  0090                     	;# 
   987  0090                     	;# 
   988  0091                     	;# 
   989  0092                     	;# 
   990  0092                     	;# 
   991  0093                     	;# 
   992  0094                     	;# 
   993  0094                     	;# 
   994  0095                     	;# 
   995  0096                     	;# 
   996  0096                     	;# 
   997  0097                     	;# 
   998  0098                     	;# 
   999  0099                     	;# 
  1000  009A                     	;# 
  1001  009B                     	;# 
  1002  009B                     	;# 
  1003  009C                     	;# 
  1004  009D                     	;# 
  1005  009D                     	;# 
  1006  009E                     	;# 
  1007  009F                     	;# 
  1008  010C                     	;# 
  1009  010C                     	;# 
  1010  010D                     	;# 
  1011  010E                     	;# 
  1012  010F                     	;# 
  1013  010F                     	;# 
  1014  0110                     	;# 
  1015  0111                     	;# 
  1016  0112                     	;# 
  1017  0113                     	;# 
  1018  0114                     	;# 
  1019  0115                     	;# 
  1020  0116                     	;# 
  1021  0117                     	;# 
  1022  0118                     	;# 
  1023  0119                     	;# 
  1024  0119                     	;# 
  1025  0119                     	;# 
  1026  011A                     	;# 
  1027  011A                     	;# 
  1028  011A                     	;# 
  1029  011B                     	;# 
  1030  011B                     	;# 
  1031  011B                     	;# 
  1032  011B                     	;# 
  1033  011B                     	;# 
  1034  011C                     	;# 
  1035  011C                     	;# 
  1036  011C                     	;# 
  1037  011D                     	;# 
  1038  011D                     	;# 
  1039  011D                     	;# 
  1040  011E                     	;# 
  1041  011E                     	;# 
  1042  011E                     	;# 
  1043  011F                     	;# 
  1044  011F                     	;# 
  1045  011F                     	;# 
  1046  011F                     	;# 
  1047  011F                     	;# 
  1048  018C                     	;# 
  1049  018D                     	;# 
  1050  018E                     	;# 
  1051  018F                     	;# 
  1052  0190                     	;# 
  1053  0191                     	;# 
  1054  0192                     	;# 
  1055  0196                     	;# 
  1056  0197                     	;# 
  1057  0198                     	;# 
  1058  0199                     	;# 
  1059  019A                     	;# 
  1060  019B                     	;# 
  1061  019C                     	;# 
  1062  020C                     	;# 
  1063  020D                     	;# 
  1064  020E                     	;# 
  1065  020E                     	;# 
  1066  020F                     	;# 
  1067  020F                     	;# 
  1068  0210                     	;# 
  1069  0210                     	;# 
  1070  0211                     	;# 
  1071  0211                     	;# 
  1072  0212                     	;# 
  1073  0213                     	;# 
  1074  0214                     	;# 
  1075  0214                     	;# 
  1076  0215                     	;# 
  1077  0215                     	;# 
  1078  0216                     	;# 
  1079  0216                     	;# 
  1080  0217                     	;# 
  1081  0217                     	;# 
  1082  0218                     	;# 
  1083  0219                     	;# 
  1084  021A                     	;# 
  1085  021A                     	;# 
  1086  021B                     	;# 
  1087  021B                     	;# 
  1088  021C                     	;# 
  1089  021C                     	;# 
  1090  021D                     	;# 
  1091  021D                     	;# 
  1092  021E                     	;# 
  1093  021F                     	;# 
  1094  028C                     	;# 
  1095  028C                     	;# 
  1096  028D                     	;# 
  1097  028D                     	;# 
  1098  028E                     	;# 
  1099  028F                     	;# 
  1100  0290                     	;# 
  1101  0291                     	;# 
  1102  0292                     	;# 
  1103  0292                     	;# 
  1104  0293                     	;# 
  1105  0293                     	;# 
  1106  0294                     	;# 
  1107  0295                     	;# 
  1108  0296                     	;# 
  1109  0297                     	;# 
  1110  0298                     	;# 
  1111  0298                     	;# 
  1112  0299                     	;# 
  1113  0299                     	;# 
  1114  029A                     	;# 
  1115  029B                     	;# 
  1116  029C                     	;# 
  1117  029D                     	;# 
  1118  029F                     	;# 
  1119  030C                     	;# 
  1120  030C                     	;# 
  1121  030D                     	;# 
  1122  030E                     	;# 
  1123  030F                     	;# 
  1124  0310                     	;# 
  1125  0310                     	;# 
  1126  0311                     	;# 
  1127  0312                     	;# 
  1128  0313                     	;# 
  1129  0314                     	;# 
  1130  0314                     	;# 
  1131  0315                     	;# 
  1132  0316                     	;# 
  1133  0317                     	;# 
  1134  0318                     	;# 
  1135  0318                     	;# 
  1136  0319                     	;# 
  1137  031A                     	;# 
  1138  031B                     	;# 
  1139  038C                     	;# 
  1140  038C                     	;# 
  1141  038D                     	;# 
  1142  038E                     	;# 
  1143  0390                     	;# 
  1144  0390                     	;# 
  1145  0391                     	;# 
  1146  0392                     	;# 
  1147  048C                     	;# 
  1148  048C                     	;# 
  1149  048D                     	;# 
  1150  048E                     	;# 
  1151  048F                     	;# 
  1152  048F                     	;# 
  1153  0490                     	;# 
  1154  0491                     	;# 
  1155  0492                     	;# 
  1156  0492                     	;# 
  1157  0493                     	;# 
  1158  0494                     	;# 
  1159  0495                     	;# 
  1160  0495                     	;# 
  1161  0496                     	;# 
  1162  0497                     	;# 
  1163  0498                     	;# 
  1164  0499                     	;# 
  1165  049A                     	;# 
  1166  049B                     	;# 
  1167  049C                     	;# 
  1168  049D                     	;# 
  1169  058C                     	;# 
  1170  058C                     	;# 
  1171  058D                     	;# 
  1172  058E                     	;# 
  1173  058F                     	;# 
  1174  058F                     	;# 
  1175  0590                     	;# 
  1176  0591                     	;# 
  1177  0592                     	;# 
  1178  0593                     	;# 
  1179  059C                     	;# 
  1180  059C                     	;# 
  1181  059D                     	;# 
  1182  059D                     	;# 
  1183  059E                     	;# 
  1184  059F                     	;# 
  1185  060C                     	;# 
  1186  060C                     	;# 
  1187  060D                     	;# 
  1188  060D                     	;# 
  1189  060E                     	;# 
  1190  060F                     	;# 
  1191  0610                     	;# 
  1192  0611                     	;# 
  1193  0612                     	;# 
  1194  0613                     	;# 
  1195  0614                     	;# 
  1196  0616                     	;# 
  1197  0616                     	;# 
  1198  0617                     	;# 
  1199  0617                     	;# 
  1200  0618                     	;# 
  1201  0619                     	;# 
  1202  061A                     	;# 
  1203  061B                     	;# 
  1204  061C                     	;# 
  1205  061D                     	;# 
  1206  061E                     	;# 
  1207  070C                     	;# 
  1208  070D                     	;# 
  1209  070E                     	;# 
  1210  070F                     	;# 
  1211  0710                     	;# 
  1212  0711                     	;# 
  1213  0712                     	;# 
  1214  0713                     	;# 
  1215  0714                     	;# 
  1216  0716                     	;# 
  1217  0717                     	;# 
  1218  0718                     	;# 
  1219  0719                     	;# 
  1220  071A                     	;# 
  1221  071B                     	;# 
  1222  071C                     	;# 
  1223  071D                     	;# 
  1224  071E                     	;# 
  1225  0796                     	;# 
  1226  0797                     	;# 
  1227  0798                     	;# 
  1228  0799                     	;# 
  1229  079A                     	;# 
  1230  079B                     	;# 
  1231  079C                     	;# 
  1232  079D                     	;# 
  1233  080C                     	;# 
  1234  080D                     	;# 
  1235  080E                     	;# 
  1236  080F                     	;# 
  1237  0810                     	;# 
  1238  0811                     	;# 
  1239  0812                     	;# 
  1240  0813                     	;# 
  1241  0814                     	;# 
  1242  081A                     	;# 
  1243  081A                     	;# 
  1244  081B                     	;# 
  1245  081C                     	;# 
  1246  081C                     	;# 
  1247  081D                     	;# 
  1248  081E                     	;# 
  1249  081F                     	;# 
  1250  088C                     	;# 
  1251  088D                     	;# 
  1252  088E                     	;# 
  1253  088F                     	;# 
  1254  0890                     	;# 
  1255  0891                     	;# 
  1256  0892                     	;# 
  1257  0893                     	;# 
  1258  0895                     	;# 
  1259  0896                     	;# 
  1260  0897                     	;# 
  1261  0898                     	;# 
  1262  0899                     	;# 
  1263  089A                     	;# 
  1264  089B                     	;# 
  1265  090C                     	;# 
  1266  090E                     	;# 
  1267  090F                     	;# 
  1268  091F                     	;# 
  1269  098F                     	;# 
  1270  098F                     	;# 
  1271  0990                     	;# 
  1272  0991                     	;# 
  1273  0992                     	;# 
  1274  0993                     	;# 
  1275  0994                     	;# 
  1276  0995                     	;# 
  1277  0996                     	;# 
  1278  0997                     	;# 
  1279  1E0F                     	;# 
  1280  1E10                     	;# 
  1281  1E11                     	;# 
  1282  1E12                     	;# 
  1283  1E13                     	;# 
  1284  1E14                     	;# 
  1285  1E15                     	;# 
  1286  1E16                     	;# 
  1287  1E17                     	;# 
  1288  1E18                     	;# 
  1289  1E19                     	;# 
  1290  1E1A                     	;# 
  1291  1E1B                     	;# 
  1292  1E1C                     	;# 
  1293  1E1D                     	;# 
  1294  1E1E                     	;# 
  1295  1E1F                     	;# 
  1296  1E20                     	;# 
  1297  1E21                     	;# 
  1298  1E22                     	;# 
  1299  1E23                     	;# 
  1300  1E24                     	;# 
  1301  1E25                     	;# 
  1302  1E26                     	;# 
  1303  1E27                     	;# 
  1304  1E28                     	;# 
  1305  1E29                     	;# 
  1306  1E2A                     	;# 
  1307  1E2B                     	;# 
  1308  1E2C                     	;# 
  1309  1E2D                     	;# 
  1310  1E2E                     	;# 
  1311  1E2F                     	;# 
  1312  1E30                     	;# 
  1313  1E31                     	;# 
  1314  1E32                     	;# 
  1315  1E33                     	;# 
  1316  1E34                     	;# 
  1317  1E35                     	;# 
  1318  1E36                     	;# 
  1319  1E37                     	;# 
  1320  1E8F                     	;# 
  1321  1E90                     	;# 
  1322  1E91                     	;# 
  1323  1E92                     	;# 
  1324  1E93                     	;# 
  1325  1E94                     	;# 
  1326  1E95                     	;# 
  1327  1E96                     	;# 
  1328  1E97                     	;# 
  1329  1E9C                     	;# 
  1330  1E9D                     	;# 
  1331  1E9E                     	;# 
  1332  1EA1                     	;# 
  1333  1EA2                     	;# 
  1334  1EA3                     	;# 
  1335  1EA4                     	;# 
  1336  1EA9                     	;# 
  1337  1EAA                     	;# 
  1338  1EB1                     	;# 
  1339  1EB2                     	;# 
  1340  1EB8                     	;# 
  1341  1EB9                     	;# 
  1342  1EBA                     	;# 
  1343  1EBB                     	;# 
  1344  1EBC                     	;# 
  1345  1EBD                     	;# 
  1346  1EBE                     	;# 
  1347  1EC3                     	;# 
  1348  1EC5                     	;# 
  1349  1EC6                     	;# 
  1350  1EC7                     	;# 
  1351  1EC8                     	;# 
  1352  1EC9                     	;# 
  1353  1ECA                     	;# 
  1354  1ECB                     	;# 
  1355  1ECB                     	;# 
  1356  1ECB                     	;# 
  1357  1ECC                     	;# 
  1358  1ECC                     	;# 
  1359  1ECC                     	;# 
  1360  1F10                     	;# 
  1361  1F11                     	;# 
  1362  1F12                     	;# 
  1363  1F14                     	;# 
  1364  1F15                     	;# 
  1365  1F1C                     	;# 
  1366  1F1D                     	;# 
  1367  1F1E                     	;# 
  1368  1F1F                     	;# 
  1369  1F20                     	;# 
  1370  1F21                     	;# 
  1371  1F22                     	;# 
  1372  1F23                     	;# 
  1373  1F24                     	;# 
  1374  1F25                     	;# 
  1375  1F26                     	;# 
  1376  1F27                     	;# 
  1377  1F38                     	;# 
  1378  1F39                     	;# 
  1379  1F3A                     	;# 
  1380  1F3B                     	;# 
  1381  1F3C                     	;# 
  1382  1F3D                     	;# 
  1383  1F3E                     	;# 
  1384  1F3F                     	;# 
  1385  1F43                     	;# 
  1386  1F44                     	;# 
  1387  1F45                     	;# 
  1388  1F46                     	;# 
  1389  1F47                     	;# 
  1390  1F48                     	;# 
  1391  1F49                     	;# 
  1392  1F4A                     	;# 
  1393  1F4E                     	;# 
  1394  1F4F                     	;# 
  1395  1F50                     	;# 
  1396  1F51                     	;# 
  1397  1F52                     	;# 
  1398  1F53                     	;# 
  1399  1F54                     	;# 
  1400  1F55                     	;# 
  1401  1FE4                     	;# 
  1402  1FE5                     	;# 
  1403  1FE6                     	;# 
  1404  1FE7                     	;# 
  1405  1FE8                     	;# 
  1406  1FE8                     	;# 
  1407  1FE9                     	;# 
  1408  1FEA                     	;# 
  1409  1FEB                     	;# 
  1410  1FED                     	;# 
  1411  1FEE                     	;# 
  1412  1FEF                     	;# 
  1413  0000                     	;# 
  1414  0001                     	;# 
  1415  0002                     	;# 
  1416  0003                     	;# 
  1417  0004                     	;# 
  1418  0005                     	;# 
  1419  0006                     	;# 
  1420  0007                     	;# 
  1421  0008                     	;# 
  1422  0009                     	;# 
  1423  000A                     	;# 
  1424  000B                     	;# 
  1425  000C                     	;# 
  1426  000D                     	;# 
  1427  000E                     	;# 
  1428  0012                     	;# 
  1429  0013                     	;# 
  1430  0014                     	;# 
  1431  0018                     	;# 
  1432  0019                     	;# 
  1433  001A                     	;# 
  1434  008C                     	;# 
  1435  008C                     	;# 
  1436  008D                     	;# 
  1437  008E                     	;# 
  1438  008E                     	;# 
  1439  008F                     	;# 
  1440  0090                     	;# 
  1441  0090                     	;# 
  1442  0091                     	;# 
  1443  0092                     	;# 
  1444  0092                     	;# 
  1445  0093                     	;# 
  1446  0094                     	;# 
  1447  0094                     	;# 
  1448  0095                     	;# 
  1449  0096                     	;# 
  1450  0096                     	;# 
  1451  0097                     	;# 
  1452  0098                     	;# 
  1453  0099                     	;# 
  1454  009A                     	;# 
  1455  009B                     	;# 
  1456  009B                     	;# 
  1457  009C                     	;# 
  1458  009D                     	;# 
  1459  009D                     	;# 
  1460  009E                     	;# 
  1461  009F                     	;# 
  1462  010C                     	;# 
  1463  010C                     	;# 
  1464  010D                     	;# 
  1465  010E                     	;# 
  1466  010F                     	;# 
  1467  010F                     	;# 
  1468  0110                     	;# 
  1469  0111                     	;# 
  1470  0112                     	;# 
  1471  0113                     	;# 
  1472  0114                     	;# 
  1473  0115                     	;# 
  1474  0116                     	;# 
  1475  0117                     	;# 
  1476  0118                     	;# 
  1477  0119                     	;# 
  1478  0119                     	;# 
  1479  0119                     	;# 
  1480  011A                     	;# 
  1481  011A                     	;# 
  1482  011A                     	;# 
  1483  011B                     	;# 
  1484  011B                     	;# 
  1485  011B                     	;# 
  1486  011B                     	;# 
  1487  011B                     	;# 
  1488  011C                     	;# 
  1489  011C                     	;# 
  1490  011C                     	;# 
  1491  011D                     	;# 
  1492  011D                     	;# 
  1493  011D                     	;# 
  1494  011E                     	;# 
  1495  011E                     	;# 
  1496  011E                     	;# 
  1497  011F                     	;# 
  1498  011F                     	;# 
  1499  011F                     	;# 
  1500  011F                     	;# 
  1501  011F                     	;# 
  1502  018C                     	;# 
  1503  018D                     	;# 
  1504  018E                     	;# 
  1505  018F                     	;# 
  1506  0190                     	;# 
  1507  0191                     	;# 
  1508  0192                     	;# 
  1509  0196                     	;# 
  1510  0197                     	;# 
  1511  0198                     	;# 
  1512  0199                     	;# 
  1513  019A                     	;# 
  1514  019B                     	;# 
  1515  019C                     	;# 
  1516  020C                     	;# 
  1517  020D                     	;# 
  1518  020E                     	;# 
  1519  020E                     	;# 
  1520  020F                     	;# 
  1521  020F                     	;# 
  1522  0210                     	;# 
  1523  0210                     	;# 
  1524  0211                     	;# 
  1525  0211                     	;# 
  1526  0212                     	;# 
  1527  0213                     	;# 
  1528  0214                     	;# 
  1529  0214                     	;# 
  1530  0215                     	;# 
  1531  0215                     	;# 
  1532  0216                     	;# 
  1533  0216                     	;# 
  1534  0217                     	;# 
  1535  0217                     	;# 
  1536  0218                     	;# 
  1537  0219                     	;# 
  1538  021A                     	;# 
  1539  021A                     	;# 
  1540  021B                     	;# 
  1541  021B                     	;# 
  1542  021C                     	;# 
  1543  021C                     	;# 
  1544  021D                     	;# 
  1545  021D                     	;# 
  1546  021E                     	;# 
  1547  021F                     	;# 
  1548  028C                     	;# 
  1549  028C                     	;# 
  1550  028D                     	;# 
  1551  028D                     	;# 
  1552  028E                     	;# 
  1553  028F                     	;# 
  1554  0290                     	;# 
  1555  0291                     	;# 
  1556  0292                     	;# 
  1557  0292                     	;# 
  1558  0293                     	;# 
  1559  0293                     	;# 
  1560  0294                     	;# 
  1561  0295                     	;# 
  1562  0296                     	;# 
  1563  0297                     	;# 
  1564  0298                     	;# 
  1565  0298                     	;# 
  1566  0299                     	;# 
  1567  0299                     	;# 
  1568  029A                     	;# 
  1569  029B                     	;# 
  1570  029C                     	;# 
  1571  029D                     	;# 
  1572  029F                     	;# 
  1573  030C                     	;# 
  1574  030C                     	;# 
  1575  030D                     	;# 
  1576  030E                     	;# 
  1577  030F                     	;# 
  1578  0310                     	;# 
  1579  0310                     	;# 
  1580  0311                     	;# 
  1581  0312                     	;# 
  1582  0313                     	;# 
  1583  0314                     	;# 
  1584  0314                     	;# 
  1585  0315                     	;# 
  1586  0316                     	;# 
  1587  0317                     	;# 
  1588  0318                     	;# 
  1589  0318                     	;# 
  1590  0319                     	;# 
  1591  031A                     	;# 
  1592  031B                     	;# 
  1593  038C                     	;# 
  1594  038C                     	;# 
  1595  038D                     	;# 
  1596  038E                     	;# 
  1597  0390                     	;# 
  1598  0390                     	;# 
  1599  0391                     	;# 
  1600  0392                     	;# 
  1601  048C                     	;# 
  1602  048C                     	;# 
  1603  048D                     	;# 
  1604  048E                     	;# 
  1605  048F                     	;# 
  1606  048F                     	;# 
  1607  0490                     	;# 
  1608  0491                     	;# 
  1609  0492                     	;# 
  1610  0492                     	;# 
  1611  0493                     	;# 
  1612  0494                     	;# 
  1613  0495                     	;# 
  1614  0495                     	;# 
  1615  0496                     	;# 
  1616  0497                     	;# 
  1617  0498                     	;# 
  1618  0499                     	;# 
  1619  049A                     	;# 
  1620  049B                     	;# 
  1621  049C                     	;# 
  1622  049D                     	;# 
  1623  058C                     	;# 
  1624  058C                     	;# 
  1625  058D                     	;# 
  1626  058E                     	;# 
  1627  058F                     	;# 
  1628  058F                     	;# 
  1629  0590                     	;# 
  1630  0591                     	;# 
  1631  0592                     	;# 
  1632  0593                     	;# 
  1633  059C                     	;# 
  1634  059C                     	;# 
  1635  059D                     	;# 
  1636  059D                     	;# 
  1637  059E                     	;# 
  1638  059F                     	;# 
  1639  060C                     	;# 
  1640  060C                     	;# 
  1641  060D                     	;# 
  1642  060D                     	;# 
  1643  060E                     	;# 
  1644  060F                     	;# 
  1645  0610                     	;# 
  1646  0611                     	;# 
  1647  0612                     	;# 
  1648  0613                     	;# 
  1649  0614                     	;# 
  1650  0616                     	;# 
  1651  0616                     	;# 
  1652  0617                     	;# 
  1653  0617                     	;# 
  1654  0618                     	;# 
  1655  0619                     	;# 
  1656  061A                     	;# 
  1657  061B                     	;# 
  1658  061C                     	;# 
  1659  061D                     	;# 
  1660  061E                     	;# 
  1661  070C                     	;# 
  1662  070D                     	;# 
  1663  070E                     	;# 
  1664  070F                     	;# 
  1665  0710                     	;# 
  1666  0711                     	;# 
  1667  0712                     	;# 
  1668  0713                     	;# 
  1669  0714                     	;# 
  1670  0716                     	;# 
  1671  0717                     	;# 
  1672  0718                     	;# 
  1673  0719                     	;# 
  1674  071A                     	;# 
  1675  071B                     	;# 
  1676  071C                     	;# 
  1677  071D                     	;# 
  1678  071E                     	;# 
  1679  0796                     	;# 
  1680  0797                     	;# 
  1681  0798                     	;# 
  1682  0799                     	;# 
  1683  079A                     	;# 
  1684  079B                     	;# 
  1685  079C                     	;# 
  1686  079D                     	;# 
  1687  080C                     	;# 
  1688  080D                     	;# 
  1689  080E                     	;# 
  1690  080F                     	;# 
  1691  0810                     	;# 
  1692  0811                     	;# 
  1693  0812                     	;# 
  1694  0813                     	;# 
  1695  0814                     	;# 
  1696  081A                     	;# 
  1697  081A                     	;# 
  1698  081B                     	;# 
  1699  081C                     	;# 
  1700  081C                     	;# 
  1701  081D                     	;# 
  1702  081E                     	;# 
  1703  081F                     	;# 
  1704  088C                     	;# 
  1705  088D                     	;# 
  1706  088E                     	;# 
  1707  088F                     	;# 
  1708  0890                     	;# 
  1709  0891                     	;# 
  1710  0892                     	;# 
  1711  0893                     	;# 
  1712  0895                     	;# 
  1713  0896                     	;# 
  1714  0897                     	;# 
  1715  0898                     	;# 
  1716  0899                     	;# 
  1717  089A                     	;# 
  1718  089B                     	;# 
  1719  090C                     	;# 
  1720  090E                     	;# 
  1721  090F                     	;# 
  1722  091F                     	;# 
  1723  098F                     	;# 
  1724  098F                     	;# 
  1725  0990                     	;# 
  1726  0991                     	;# 
  1727  0992                     	;# 
  1728  0993                     	;# 
  1729  0994                     	;# 
  1730  0995                     	;# 
  1731  0996                     	;# 
  1732  0997                     	;# 
  1733  1E0F                     	;# 
  1734  1E10                     	;# 
  1735  1E11                     	;# 
  1736  1E12                     	;# 
  1737  1E13                     	;# 
  1738  1E14                     	;# 
  1739  1E15                     	;# 
  1740  1E16                     	;# 
  1741  1E17                     	;# 
  1742  1E18                     	;# 
  1743  1E19                     	;# 
  1744  1E1A                     	;# 
  1745  1E1B                     	;# 
  1746  1E1C                     	;# 
  1747  1E1D                     	;# 
  1748  1E1E                     	;# 
  1749  1E1F                     	;# 
  1750  1E20                     	;# 
  1751  1E21                     	;# 
  1752  1E22                     	;# 
  1753  1E23                     	;# 
  1754  1E24                     	;# 
  1755  1E25                     	;# 
  1756  1E26                     	;# 
  1757  1E27                     	;# 
  1758  1E28                     	;# 
  1759  1E29                     	;# 
  1760  1E2A                     	;# 
  1761  1E2B                     	;# 
  1762  1E2C                     	;# 
  1763  1E2D                     	;# 
  1764  1E2E                     	;# 
  1765  1E2F                     	;# 
  1766  1E30                     	;# 
  1767  1E31                     	;# 
  1768  1E32                     	;# 
  1769  1E33                     	;# 
  1770  1E34                     	;# 
  1771  1E35                     	;# 
  1772  1E36                     	;# 
  1773  1E37                     	;# 
  1774  1E8F                     	;# 
  1775  1E90                     	;# 
  1776  1E91                     	;# 
  1777  1E92                     	;# 
  1778  1E93                     	;# 
  1779  1E94                     	;# 
  1780  1E95                     	;# 
  1781  1E96                     	;# 
  1782  1E97                     	;# 
  1783  1E9C                     	;# 
  1784  1E9D                     	;# 
  1785  1E9E                     	;# 
  1786  1EA1                     	;# 
  1787  1EA2                     	;# 
  1788  1EA3                     	;# 
  1789  1EA4                     	;# 
  1790  1EA9                     	;# 
  1791  1EAA                     	;# 
  1792  1EB1                     	;# 
  1793  1EB2                     	;# 
  1794  1EB8                     	;# 
  1795  1EB9                     	;# 
  1796  1EBA                     	;# 
  1797  1EBB                     	;# 
  1798  1EBC                     	;# 
  1799  1EBD                     	;# 
  1800  1EBE                     	;# 
  1801  1EC3                     	;# 
  1802  1EC5                     	;# 
  1803  1EC6                     	;# 
  1804  1EC7                     	;# 
  1805  1EC8                     	;# 
  1806  1EC9                     	;# 
  1807  1ECA                     	;# 
  1808  1ECB                     	;# 
  1809  1ECB                     	;# 
  1810  1ECB                     	;# 
  1811  1ECC                     	;# 
  1812  1ECC                     	;# 
  1813  1ECC                     	;# 
  1814  1F10                     	;# 
  1815  1F11                     	;# 
  1816  1F12                     	;# 
  1817  1F14                     	;# 
  1818  1F15                     	;# 
  1819  1F1C                     	;# 
  1820  1F1D                     	;# 
  1821  1F1E                     	;# 
  1822  1F1F                     	;# 
  1823  1F20                     	;# 
  1824  1F21                     	;# 
  1825  1F22                     	;# 
  1826  1F23                     	;# 
  1827  1F24                     	;# 
  1828  1F25                     	;# 
  1829  1F26                     	;# 
  1830  1F27                     	;# 
  1831  1F38                     	;# 
  1832  1F39                     	;# 
  1833  1F3A                     	;# 
  1834  1F3B                     	;# 
  1835  1F3C                     	;# 
  1836  1F3D                     	;# 
  1837  1F3E                     	;# 
  1838  1F3F                     	;# 
  1839  1F43                     	;# 
  1840  1F44                     	;# 
  1841  1F45                     	;# 
  1842  1F46                     	;# 
  1843  1F47                     	;# 
  1844  1F48                     	;# 
  1845  1F49                     	;# 
  1846  1F4A                     	;# 
  1847  1F4E                     	;# 
  1848  1F4F                     	;# 
  1849  1F50                     	;# 
  1850  1F51                     	;# 
  1851  1F52                     	;# 
  1852  1F53                     	;# 
  1853  1F54                     	;# 
  1854  1F55                     	;# 
  1855  1FE4                     	;# 
  1856  1FE5                     	;# 
  1857  1FE6                     	;# 
  1858  1FE7                     	;# 
  1859  1FE8                     	;# 
  1860  1FE8                     	;# 
  1861  1FE9                     	;# 
  1862  1FEA                     	;# 
  1863  1FEB                     	;# 
  1864  1FED                     	;# 
  1865  1FEE                     	;# 
  1866  1FEF                     	;# 
  1867                           
  1868                           	psect	idataCOMMON
  1869  0311                     __pidataCOMMON:	
  1870                           
  1871                           ;initializer for main@F11220
  1872  0311  3410               	retlw	16
  1873                           
  1874                           ;initializer for main@F11218
  1875  0312  3408               	retlw	8
  1876  000B                     _INTCONbits	set	11
  1877  001A                     _LATCbits	set	26
  1878  0019                     _LATBbits	set	25
  1879  0018                     _LATAbits	set	24
  1880  000E                     _PORTCbits	set	14
  1881  000D                     _PORTBbits	set	13
  1882  000C                     _PORTAbits	set	12
  1883  0014                     _TRISCbits	set	20
  1884  0013                     _TRISBbits	set	19
  1885  0012                     _TRISAbits	set	18
  1886  059D                     _TMR0H	set	1437
  1887  059F                     _T0CON1bits	set	1439
  1888  059E                     _T0CON0bits	set	1438
  1889  0716                     _PIE0bits	set	1814
  1890  1F4F                     _WPUCbits	set	8015
  1891  1F4E                     _ANSELCbits	set	8014
  1892  1F44                     _WPUBbits	set	8004
  1893  1F43                     _ANSELBbits	set	8003
  1894  1F39                     _WPUAbits	set	7993
  1895  1F38                     _ANSELAbits	set	7992
  1896                           
  1897                           ; #config settings
  1898  0000                     
  1899                           	psect	cinit
  1900  0013                     start_initialization:	
  1901  0013                     __initialization:	
  1902                           
  1903                           ; Initialize objects allocated to COMMON
  1904  0013  3183  2311  3180   	fcall	__pidataCOMMON	;fetch initializer
  1905  0016  00FB               	movwf	__pdataCOMMON& (0+127)
  1906  0017  3183  2312  3180   	fcall	__pidataCOMMON+1	;fetch initializer
  1907  001A  00FC               	movwf	(__pdataCOMMON+1)& (0+127)
  1908                           
  1909                           ; Clear objects allocated to BANK0
  1910  001B  3020               	movlw	low __pbssBANK0
  1911  001C  0084               	movwf	4
  1912  001D  3000               	movlw	high __pbssBANK0
  1913  001E  0085               	movwf	5
  1914  001F  3019               	movlw	25
  1915  0020  3183  230B         	fcall	clear_ram0
  1916  0022                     end_of_initialization:	
  1917                           ;End of C runtime variable initialization code
  1918                           
  1919  0022                     __end_of__initialization:	
  1920  0022  107E               	bcf	int$flags,0	;clear compiler interrupt flag (level 1)
  1921  0023  0140               	movlb	0
  1922  0024  3182  2AE7         	ljmp	_main	;jump to C main() function
  1923                           
  1924                           	psect	dataCOMMON
  1925  007B                     __pdataCOMMON:	
  1926  007B                     main@F11220:	
  1927  007B                     	ds	1
  1928  007C                     main@F11218:	
  1929  007C                     	ds	1
  1930                           
  1931                           	psect	bssBANK0
  1932  0020                     __pbssBANK0:	
  1933  0020                     _pinStates:	
  1934  0020                     	ds	17
  1935  0031                     _timeTurnedOn:	
  1936  0031                     	ds	4
  1937  0035                     _count:	
  1938  0035                     	ds	4
  1939                           
  1940                           	psect	clrtext
  1941  030B                     clear_ram0:	
  1942                           ;	Called with FSR0 containing the base address, and
  1943                           ;	WREG with the size to clear
  1944                           
  1945  030B  0064               	clrwdt	;clear the watchdog before getting into this loop
  1946  030C                     clrloop0:	
  1947  030C  0180               	clrf	0	;clear RAM location pointed to by FSR
  1948  030D  3101               	addfsr 0,1
  1949  030E  0B89               	decfsz	9,f	;Have we reached the end of clearing yet?
  1950  030F  2B0C               	goto	clrloop0	;have we reached the end yet?
  1951  0310  3400               	retlw	0	;all done for this memory range, return
  1952                           
  1953                           	psect	cstackCOMMON
  1954  0070                     __pcstackCOMMON:	
  1955  0070                     ?_defineGPIODirection:	
  1956  0070                     ?_readPin:	
  1957                           ; 1 bytes @ 0x0
  1958                           
  1959  0070                     ??_readPin:	
  1960                           ; 1 bytes @ 0x0
  1961                           
  1962  0070                     ?_writePin:	
  1963                           ; 1 bytes @ 0x0
  1964                           
  1965  0070                     ?_main:	
  1966                           ; 1 bytes @ 0x0
  1967                           
  1968  0070                     ?_timer0ISR:	
  1969                           ; 1 bytes @ 0x0
  1970                           
  1971  0070                     ??_timer0ISR:	
  1972                           ; 1 bytes @ 0x0
  1973                           
  1974  0070                     defineGPIODirection@output:	
  1975                           ; 1 bytes @ 0x0
  1976                           
  1977  0070                     writePin@value:	
  1978                           ; 1 bytes @ 0x0
  1979                           
  1980                           
  1981                           ; 1 bytes @ 0x0
  1982  0070                     	ds	1
  1983  0071                     ??_writePin:	
  1984  0071                     defineGPIODirection@inputLength:	
  1985                           ; 1 bytes @ 0x1
  1986                           
  1987                           
  1988                           ; 1 bytes @ 0x1
  1989  0071                     	ds	1
  1990  0072                     defineGPIODirection@outputLength:	
  1991  0072                     readPin@read:	
  1992                           ; 1 bytes @ 0x2
  1993                           
  1994                           
  1995                           ; 1 bytes @ 0x2
  1996  0072                     	ds	1
  1997  0073                     ??_defineGPIODirection:	
  1998  0073                     writePin@write:	
  1999                           ; 1 bytes @ 0x3
  2000                           
  2001                           
  2002                           ; 1 bytes @ 0x3
  2003  0073                     	ds	3
  2004  0076                     defineGPIODirection@input:	
  2005                           
  2006                           ; 1 bytes @ 0x6
  2007  0076                     	ds	1
  2008  0077                     defineGPIODirection@i:	
  2009                           
  2010                           ; 1 bytes @ 0x7
  2011  0077                     	ds	1
  2012  0078                     ??_main:	
  2013                           
  2014                           ; 1 bytes @ 0x8
  2015  0078                     	ds	1
  2016  0079                     main@input:	
  2017                           
  2018                           ; 1 bytes @ 0x9
  2019  0079                     	ds	1
  2020  007A                     main@output:	
  2021                           
  2022                           ; 1 bytes @ 0xA
  2023  007A                     	ds	1
  2024                           
  2025                           	psect	maintext
  2026  02E7                     __pmaintext:	
  2027 ;;
  2028 ;;Main: autosize = 0, tempsize = 1, incstack = 0, save=0
  2029 ;;
  2030 ;; *************** function _main *****************
  2031 ;; Defined at:
  2032 ;;		line 22 in file "main.c"
  2033 ;; Parameters:    Size  Location     Type
  2034 ;;		None
  2035 ;; Auto vars:     Size  Location     Type
  2036 ;;  output          1   10[COMMON] enum E11183[1]
  2037 ;;  input           1    9[COMMON] enum E11183[1]
  2038 ;; Return value:  Size  Location     Type
  2039 ;;                  1    wreg      void 
  2040 ;; Registers used:
  2041 ;;		wreg, fsr0l, fsr0h, fsr1l, fsr1h, status,2, status,0, pclath, cstack
  2042 ;; Tracked objects:
  2043 ;;		On entry : B3F/0
  2044 ;;		On exit  : 0/0
  2045 ;;		Unchanged: 0/0
  2046 ;; Data sizes:     COMMON   BANK0   BANK1   BANK2   BANK3   BANK4   BANK5   BANK6   BANK7   BANK8   BANK9  BANK10  BANK1
      +1  BANK12  BANK13  BANK14  BANK15  BANK16  BANK17  BANK18  BANK19  BANK20  BANK21  BANK22  BANK23  BANK24  BANK25
  2047 ;;      Params:         0       0       0       0       0       0       0       0       0       0       0       0       
      +0       0       0       0       0       0       0       0       0       0       0       0       0       0       0
  2048 ;;      Locals:         2       0       0       0       0       0       0       0       0       0       0       0       
      +0       0       0       0       0       0       0       0       0       0       0       0       0       0       0
  2049 ;;      Temps:          1       0       0       0       0       0       0       0       0       0       0       0       
      +0       0       0       0       0       0       0       0       0       0       0       0       0       0       0
  2050 ;;      Totals:         3       0       0       0       0       0       0       0       0       0       0       0       
      +0       0       0       0       0       0       0       0       0       0       0       0       0       0       0
  2051 ;;Total ram usage:        3 bytes
  2052 ;; Hardware stack levels required when called:    2
  2053 ;; This function calls:
  2054 ;;		_defineGPIODirection
  2055 ;;		_readPin
  2056 ;;		_writePin
  2057 ;; This function is called by:
  2058 ;;		Startup code after reset
  2059 ;; This function uses a non-reentrant model
  2060 ;;
  2061                           
  2062                           
  2063                           ;psect for function _main
  2064  02E7                     _main:	
  2065                           
  2066                           ;incstack = 0
  2067                           ; Regs used in _main: [wreg-fsr1h+status,2+status,0+pclath+cstack]
  2068  02E7  087C               	movf	main@F11218,w
  2069  02E8  00F8               	movwf	??_main
  2070  02E9  0878               	movf	??_main,w
  2071  02EA  00F9               	movwf	main@input
  2072  02EB  087B               	movf	main@F11220,w
  2073  02EC  00F8               	movwf	??_main
  2074  02ED  0878               	movf	??_main,w
  2075  02EE  00FA               	movwf	main@output
  2076  02EF  307A               	movlw	(low (main@output| 0))& (0+255)
  2077  02F0  00F8               	movwf	??_main
  2078  02F1  0878               	movf	??_main,w
  2079  02F2  00F0               	movwf	defineGPIODirection@output
  2080  02F3  01F1               	clrf	defineGPIODirection@inputLength
  2081  02F4  0AF1               	incf	defineGPIODirection@inputLength,f
  2082  02F5  01F2               	clrf	defineGPIODirection@outputLength
  2083  02F6  0AF2               	incf	defineGPIODirection@outputLength,f
  2084  02F7  3079               	movlw	(low (main@input| 0))& (0+255)
  2085  02F8  3180  2026  3182   	fcall	_defineGPIODirection
  2086  02FB  2B02               	goto	l1184
  2087  02FC                     l1186:	
  2088  02FC  01F0               	clrf	writePin@value
  2089  02FD  0AF0               	incf	writePin@value,f
  2090  02FE                     L1:	
  2091  02FE  3010               	movlw	16
  2092  02FF  3181  215A  3182   	fcall	_writePin
  2093  0302                     l1184:	
  2094  0302  3008               	movlw	8
  2095  0303  3182  2255  3182   	fcall	_readPin
  2096  0306  3A00               	xorlw	0
  2097  0307  1903               	btfsc	3,2
  2098  0308  2AFC               	goto	l1186
  2099  0309  01F0               	clrf	writePin@value
  2100  030A  2AFE               	goto	L1
  2101  030B                     __end_of_main:	
  2102                           
  2103                           	psect	text1
  2104  015A                     __ptext1:	
  2105 ;; *************** function _writePin *****************
  2106 ;; Defined at:
  2107 ;;		line 206 in file "pins.c"
  2108 ;; Parameters:    Size  Location     Type
  2109 ;;  write           1    wreg     enum E11183
  2110 ;;  value           1    0[COMMON] unsigned char 
  2111 ;; Auto vars:     Size  Location     Type
  2112 ;;  write           1    3[COMMON] enum E11183
  2113 ;; Return value:  Size  Location     Type
  2114 ;;                  1    wreg      void 
  2115 ;; Registers used:
  2116 ;;		wreg, fsr0l, fsr0h, status,2, status,0
  2117 ;; Tracked objects:
  2118 ;;		On entry : 0/0
  2119 ;;		On exit  : 0/0
  2120 ;;		Unchanged: 0/0
  2121 ;; Data sizes:     COMMON   BANK0   BANK1   BANK2   BANK3   BANK4   BANK5   BANK6   BANK7   BANK8   BANK9  BANK10  BANK1
      +1  BANK12  BANK13  BANK14  BANK15  BANK16  BANK17  BANK18  BANK19  BANK20  BANK21  BANK22  BANK23  BANK24  BANK25
  2122 ;;      Params:         1       0       0       0       0       0       0       0       0       0       0       0       
      +0       0       0       0       0       0       0       0       0       0       0       0       0       0       0
  2123 ;;      Locals:         1       0       0       0       0       0       0       0       0       0       0       0       
      +0       0       0       0       0       0       0       0       0       0       0       0       0       0       0
  2124 ;;      Temps:          2       0       0       0       0       0       0       0       0       0       0       0       
      +0       0       0       0       0       0       0       0       0       0       0       0       0       0       0
  2125 ;;      Totals:         4       0       0       0       0       0       0       0       0       0       0       0       
      +0       0       0       0       0       0       0       0       0       0       0       0       0       0       0
  2126 ;;Total ram usage:        4 bytes
  2127 ;; Hardware stack levels used:    1
  2128 ;; Hardware stack levels required when called:    1
  2129 ;; This function calls:
  2130 ;;		Nothing
  2131 ;; This function is called by:
  2132 ;;		_main
  2133 ;; This function uses a non-reentrant model
  2134 ;;
  2135                           
  2136                           
  2137                           ;psect for function _writePin
  2138  015A                     _writePin:	
  2139                           
  2140                           ;incstack = 0
  2141                           ; Regs used in _writePin: [wreg-fsr0h+status,2+status,0]
  2142                           ;writePin@write stored from wreg
  2143  015A  00F3               	movwf	writePin@write
  2144                           
  2145                           ;pins.c: 207:     switch(write) {
  2146  015B  2A17               	goto	l1174
  2147  015C                     l1104:	
  2148                           
  2149                           ;pins.c: 209:             LATAbits.LATA0 = value;
  2150  015C  0C70               	rrf	writePin@value,w
  2151  015D  0140               	movlb	0	; select bank0
  2152  015E  1C03               	skipc
  2153  015F  1018               	bcf	24,0	;volatile
  2154  0160  1803               	skipnc
  2155  0161  1418               	bsf	24,0	;volatile
  2156                           
  2157                           ;pins.c: 210:             pinStates[PINA0] = value;
  2158  0162  0870               	movf	writePin@value,w
  2159  0163  00F1               	movwf	??_writePin
  2160  0164  0871               	movf	??_writePin,w
  2161  0165  00A0               	movwf	_pinStates
  2162                           
  2163                           ;pins.c: 211:             break;
  2164  0166  0008               	return
  2165  0167                     l1108:	
  2166                           
  2167                           ;pins.c: 213:             LATAbits.LATA1 = value;
  2168  0167  0C70               	rrf	writePin@value,w
  2169  0168  0140               	movlb	0	; select bank0
  2170  0169  1C03               	skipc
  2171  016A  1098               	bcf	24,1	;volatile
  2172  016B  1803               	skipnc
  2173  016C  1498               	bsf	24,1	;volatile
  2174                           
  2175                           ;pins.c: 214:             pinStates[PINA1] = value;
  2176  016D  0870               	movf	writePin@value,w
  2177  016E  00F1               	movwf	??_writePin
  2178  016F  0871               	movf	??_writePin,w
  2179  0170  00A1               	movwf	_pinStates+1
  2180                           
  2181                           ;pins.c: 215:             break;
  2182  0171  0008               	return
  2183  0172                     l1112:	
  2184                           
  2185                           ;pins.c: 217:             LATAbits.LATA2 = value;
  2186  0172  0C70               	rrf	writePin@value,w
  2187  0173  0140               	movlb	0	; select bank0
  2188  0174  1C03               	skipc
  2189  0175  1118               	bcf	24,2	;volatile
  2190  0176  1803               	skipnc
  2191  0177  1518               	bsf	24,2	;volatile
  2192                           
  2193                           ;pins.c: 218:             pinStates[PINA2] = value;
  2194  0178  0870               	movf	writePin@value,w
  2195  0179  00F1               	movwf	??_writePin
  2196  017A  0871               	movf	??_writePin,w
  2197  017B  00A2               	movwf	_pinStates+2
  2198                           
  2199                           ;pins.c: 219:             break;
  2200  017C  0008               	return
  2201  017D                     l1116:	
  2202                           
  2203                           ;pins.c: 221:             LATAbits.LATA4 = value;
  2204  017D  0C70               	rrf	writePin@value,w
  2205  017E  0140               	movlb	0	; select bank0
  2206  017F  1C03               	skipc
  2207  0180  1218               	bcf	24,4	;volatile
  2208  0181  1803               	skipnc
  2209  0182  1618               	bsf	24,4	;volatile
  2210                           
  2211                           ;pins.c: 222:             pinStates[PINA4] = value;
  2212  0183  0870               	movf	writePin@value,w
  2213  0184  00F1               	movwf	??_writePin
  2214  0185  0871               	movf	??_writePin,w
  2215  0186  00A3               	movwf	_pinStates+3
  2216                           
  2217                           ;pins.c: 223:             break;
  2218  0187  0008               	return
  2219  0188                     l1120:	
  2220                           
  2221                           ;pins.c: 225:             LATAbits.LATA5 = value;
  2222  0188  0C70               	rrf	writePin@value,w
  2223  0189  0140               	movlb	0	; select bank0
  2224  018A  1C03               	skipc
  2225  018B  1298               	bcf	24,5	;volatile
  2226  018C  1803               	skipnc
  2227  018D  1698               	bsf	24,5	;volatile
  2228                           
  2229                           ;pins.c: 226:             pinStates[PINA5] = value;
  2230  018E  0870               	movf	writePin@value,w
  2231  018F  00F1               	movwf	??_writePin
  2232  0190  0871               	movf	??_writePin,w
  2233  0191  00A4               	movwf	_pinStates+4
  2234                           
  2235                           ;pins.c: 227:             break;
  2236  0192  0008               	return
  2237  0193                     l1124:	
  2238                           
  2239                           ;pins.c: 229:             LATBbits.LATB4 = value;
  2240  0193  0C70               	rrf	writePin@value,w
  2241  0194  0140               	movlb	0	; select bank0
  2242  0195  1C03               	skipc
  2243  0196  1219               	bcf	25,4	;volatile
  2244  0197  1803               	skipnc
  2245  0198  1619               	bsf	25,4	;volatile
  2246                           
  2247                           ;pins.c: 230:             pinStates[PINB4] = value;
  2248  0199  0870               	movf	writePin@value,w
  2249  019A  00F1               	movwf	??_writePin
  2250  019B  0871               	movf	??_writePin,w
  2251  019C  00A5               	movwf	_pinStates+5
  2252                           
  2253                           ;pins.c: 231:             break;
  2254  019D  0008               	return
  2255  019E                     l1128:	
  2256                           
  2257                           ;pins.c: 233:             LATBbits.LATB5 = value;
  2258  019E  0C70               	rrf	writePin@value,w
  2259  019F  0140               	movlb	0	; select bank0
  2260  01A0  1C03               	skipc
  2261  01A1  1299               	bcf	25,5	;volatile
  2262  01A2  1803               	skipnc
  2263  01A3  1699               	bsf	25,5	;volatile
  2264                           
  2265                           ;pins.c: 234:             pinStates[PINB5] = value;
  2266  01A4  0870               	movf	writePin@value,w
  2267  01A5  00F1               	movwf	??_writePin
  2268  01A6  0871               	movf	??_writePin,w
  2269  01A7  00A6               	movwf	_pinStates+6
  2270                           
  2271                           ;pins.c: 235:             break;
  2272  01A8  0008               	return
  2273  01A9                     l1132:	
  2274                           
  2275                           ;pins.c: 237:             LATBbits.LATB6 = value;
  2276  01A9  0C70               	rrf	writePin@value,w
  2277  01AA  0140               	movlb	0	; select bank0
  2278  01AB  1C03               	skipc
  2279  01AC  1319               	bcf	25,6	;volatile
  2280  01AD  1803               	skipnc
  2281  01AE  1719               	bsf	25,6	;volatile
  2282                           
  2283                           ;pins.c: 238:             pinStates[PINB6] = value;
  2284  01AF  0870               	movf	writePin@value,w
  2285  01B0  00F1               	movwf	??_writePin
  2286  01B1  0871               	movf	??_writePin,w
  2287  01B2  00A7               	movwf	_pinStates+7
  2288                           
  2289                           ;pins.c: 239:             break;
  2290  01B3  0008               	return
  2291  01B4                     l1136:	
  2292                           
  2293                           ;pins.c: 241:             LATBbits.LATB7 = value;
  2294  01B4  0C70               	rrf	writePin@value,w
  2295  01B5  0140               	movlb	0	; select bank0
  2296  01B6  1C03               	skipc
  2297  01B7  1399               	bcf	25,7	;volatile
  2298  01B8  1803               	skipnc
  2299  01B9  1799               	bsf	25,7	;volatile
  2300                           
  2301                           ;pins.c: 242:             pinStates[PINB7] = value;
  2302  01BA  0870               	movf	writePin@value,w
  2303  01BB  00F1               	movwf	??_writePin
  2304  01BC  0871               	movf	??_writePin,w
  2305  01BD  00A8               	movwf	_pinStates+8
  2306                           
  2307                           ;pins.c: 243:             break;
  2308  01BE  0008               	return
  2309  01BF                     l1140:	
  2310                           
  2311                           ;pins.c: 245:             LATCbits.LATC0 = value;
  2312  01BF  0C70               	rrf	writePin@value,w
  2313  01C0  0140               	movlb	0	; select bank0
  2314  01C1  1C03               	skipc
  2315  01C2  101A               	bcf	26,0	;volatile
  2316  01C3  1803               	skipnc
  2317  01C4  141A               	bsf	26,0	;volatile
  2318                           
  2319                           ;pins.c: 246:             pinStates[PINC0] = value;
  2320  01C5  0870               	movf	writePin@value,w
  2321  01C6  00F1               	movwf	??_writePin
  2322  01C7  0871               	movf	??_writePin,w
  2323  01C8  00A9               	movwf	_pinStates+9
  2324                           
  2325                           ;pins.c: 247:             break;
  2326  01C9  0008               	return
  2327  01CA                     l1144:	
  2328                           
  2329                           ;pins.c: 249:             LATCbits.LATC1 = value;
  2330  01CA  0C70               	rrf	writePin@value,w
  2331  01CB  0140               	movlb	0	; select bank0
  2332  01CC  1C03               	skipc
  2333  01CD  109A               	bcf	26,1	;volatile
  2334  01CE  1803               	skipnc
  2335  01CF  149A               	bsf	26,1	;volatile
  2336                           
  2337                           ;pins.c: 250:             pinStates[PINC1] = value;
  2338  01D0  0870               	movf	writePin@value,w
  2339  01D1  00F1               	movwf	??_writePin
  2340  01D2  0871               	movf	??_writePin,w
  2341  01D3  00AA               	movwf	_pinStates+10
  2342                           
  2343                           ;pins.c: 251:             break;
  2344  01D4  0008               	return
  2345  01D5                     l1148:	
  2346                           
  2347                           ;pins.c: 253:             LATCbits.LATC2 = value;
  2348  01D5  0C70               	rrf	writePin@value,w
  2349  01D6  0140               	movlb	0	; select bank0
  2350  01D7  1C03               	skipc
  2351  01D8  111A               	bcf	26,2	;volatile
  2352  01D9  1803               	skipnc
  2353  01DA  151A               	bsf	26,2	;volatile
  2354                           
  2355                           ;pins.c: 254:             pinStates[PINC2] = value;
  2356  01DB  0870               	movf	writePin@value,w
  2357  01DC  00F1               	movwf	??_writePin
  2358  01DD  0871               	movf	??_writePin,w
  2359  01DE  00AB               	movwf	_pinStates+11
  2360                           
  2361                           ;pins.c: 255:             break;
  2362  01DF  0008               	return
  2363  01E0                     l1152:	
  2364                           
  2365                           ;pins.c: 257:             LATCbits.LATC3 = value;
  2366  01E0  0C70               	rrf	writePin@value,w
  2367  01E1  0140               	movlb	0	; select bank0
  2368  01E2  1C03               	skipc
  2369  01E3  119A               	bcf	26,3	;volatile
  2370  01E4  1803               	skipnc
  2371  01E5  159A               	bsf	26,3	;volatile
  2372                           
  2373                           ;pins.c: 258:             pinStates[PINC3] = value;
  2374  01E6  0870               	movf	writePin@value,w
  2375  01E7  00F1               	movwf	??_writePin
  2376  01E8  0871               	movf	??_writePin,w
  2377  01E9  00AC               	movwf	_pinStates+12
  2378                           
  2379                           ;pins.c: 259:             break;
  2380  01EA  0008               	return
  2381  01EB                     l1156:	
  2382                           
  2383                           ;pins.c: 261:             LATCbits.LATC4 = value;
  2384  01EB  0C70               	rrf	writePin@value,w
  2385  01EC  0140               	movlb	0	; select bank0
  2386  01ED  1C03               	skipc
  2387  01EE  121A               	bcf	26,4	;volatile
  2388  01EF  1803               	skipnc
  2389  01F0  161A               	bsf	26,4	;volatile
  2390                           
  2391                           ;pins.c: 262:             pinStates[PINC4] = value;
  2392  01F1  0870               	movf	writePin@value,w
  2393  01F2  00F1               	movwf	??_writePin
  2394  01F3  0871               	movf	??_writePin,w
  2395  01F4  00AD               	movwf	_pinStates+13
  2396                           
  2397                           ;pins.c: 263:             break;
  2398  01F5  0008               	return
  2399  01F6                     l1160:	
  2400                           
  2401                           ;pins.c: 265:             LATCbits.LATC5 = value;
  2402  01F6  0C70               	rrf	writePin@value,w
  2403  01F7  0140               	movlb	0	; select bank0
  2404  01F8  1C03               	skipc
  2405  01F9  129A               	bcf	26,5	;volatile
  2406  01FA  1803               	skipnc
  2407  01FB  169A               	bsf	26,5	;volatile
  2408                           
  2409                           ;pins.c: 266:             pinStates[PINC5] = value;
  2410  01FC  0870               	movf	writePin@value,w
  2411  01FD  00F1               	movwf	??_writePin
  2412  01FE  0871               	movf	??_writePin,w
  2413  01FF  00AE               	movwf	_pinStates+14
  2414                           
  2415                           ;pins.c: 267:             break;
  2416  0200  0008               	return
  2417  0201                     l1164:	
  2418                           
  2419                           ;pins.c: 269:             LATCbits.LATC6 = value;
  2420  0201  0C70               	rrf	writePin@value,w
  2421  0202  0140               	movlb	0	; select bank0
  2422  0203  1C03               	skipc
  2423  0204  131A               	bcf	26,6	;volatile
  2424  0205  1803               	skipnc
  2425  0206  171A               	bsf	26,6	;volatile
  2426                           
  2427                           ;pins.c: 270:             pinStates[PINC6] = value;
  2428  0207  0870               	movf	writePin@value,w
  2429  0208  00F1               	movwf	??_writePin
  2430  0209  0871               	movf	??_writePin,w
  2431  020A  00AF               	movwf	_pinStates+15
  2432                           
  2433                           ;pins.c: 271:             break;
  2434  020B  0008               	return
  2435  020C                     l1168:	
  2436                           
  2437                           ;pins.c: 273:             LATCbits.LATC7 = value;
  2438  020C  0C70               	rrf	writePin@value,w
  2439  020D  0140               	movlb	0	; select bank0
  2440  020E  1C03               	skipc
  2441  020F  139A               	bcf	26,7	;volatile
  2442  0210  1803               	skipnc
  2443  0211  179A               	bsf	26,7	;volatile
  2444                           
  2445                           ;pins.c: 274:             pinStates[PINC7] = value;
  2446  0212  0870               	movf	writePin@value,w
  2447  0213  00F1               	movwf	??_writePin
  2448  0214  0871               	movf	??_writePin,w
  2449  0215  00B0               	movwf	_pinStates+16
  2450                           
  2451                           ;pins.c: 275:             break;
  2452  0216  0008               	return
  2453  0217                     l1174:	
  2454  0217  0873               	movf	writePin@write,w
  2455  0218  00F1               	movwf	??_writePin
  2456  0219  01F2               	clrf	??_writePin+1
  2457                           
  2458                           ; Switch on 2 bytes has been partitioned into a top level switch of size 1, and 1 sub-sw
      +                          itches
  2459                           ; Switch size 1, requested type "simple"
  2460                           ; Number of cases is 1, Range of values is 0 to 0
  2461                           ; switch strategies available:
  2462                           ; Name         Instructions Cycles
  2463                           ; simple_byte            4     3 (average)
  2464                           ; direct_byte            8     6 (fixed)
  2465                           ; jumptable            260     6 (fixed)
  2466                           ;	Chosen strategy is simple_byte
  2467  021A  0872               	movf	??_writePin+1,w
  2468  021B  3A00               	xorlw	0	; case 0
  2469  021C  1903               	skipnz
  2470  021D  2A1F               	goto	l1272
  2471  021E  2A54               	goto	l151
  2472  021F                     l1272:	
  2473                           
  2474                           ; Switch size 1, requested type "simple"
  2475                           ; Number of cases is 17, Range of values is 0 to 16
  2476                           ; switch strategies available:
  2477                           ; Name         Instructions Cycles
  2478                           ; direct_byte           40     6 (fixed)
  2479                           ; simple_byte           52    27 (average)
  2480                           ; jumptable            260     6 (fixed)
  2481                           ;	Chosen strategy is simple_byte
  2482  021F  0871               	movf	??_writePin,w
  2483  0220  3A00               	xorlw	0	; case 0
  2484  0221  1903               	skipnz
  2485  0222  295C               	goto	l1104
  2486  0223  3A01               	xorlw	1	; case 1
  2487  0224  1903               	skipnz
  2488  0225  2967               	goto	l1108
  2489  0226  3A03               	xorlw	3	; case 2
  2490  0227  1903               	skipnz
  2491  0228  2972               	goto	l1112
  2492  0229  3A01               	xorlw	1	; case 3
  2493  022A  1903               	skipnz
  2494  022B  297D               	goto	l1116
  2495  022C  3A07               	xorlw	7	; case 4
  2496  022D  1903               	skipnz
  2497  022E  2988               	goto	l1120
  2498  022F  3A01               	xorlw	1	; case 5
  2499  0230  1903               	skipnz
  2500  0231  2993               	goto	l1124
  2501  0232  3A03               	xorlw	3	; case 6
  2502  0233  1903               	skipnz
  2503  0234  299E               	goto	l1128
  2504  0235  3A01               	xorlw	1	; case 7
  2505  0236  1903               	skipnz
  2506  0237  29A9               	goto	l1132
  2507  0238  3A0F               	xorlw	15	; case 8
  2508  0239  1903               	skipnz
  2509  023A  29B4               	goto	l1136
  2510  023B  3A01               	xorlw	1	; case 9
  2511  023C  1903               	skipnz
  2512  023D  29BF               	goto	l1140
  2513  023E  3A03               	xorlw	3	; case 10
  2514  023F  1903               	skipnz
  2515  0240  29CA               	goto	l1144
  2516  0241  3A01               	xorlw	1	; case 11
  2517  0242  1903               	skipnz
  2518  0243  29D5               	goto	l1148
  2519  0244  3A07               	xorlw	7	; case 12
  2520  0245  1903               	skipnz
  2521  0246  29E0               	goto	l1152
  2522  0247  3A01               	xorlw	1	; case 13
  2523  0248  1903               	skipnz
  2524  0249  29EB               	goto	l1156
  2525  024A  3A03               	xorlw	3	; case 14
  2526  024B  1903               	skipnz
  2527  024C  29F6               	goto	l1160
  2528  024D  3A01               	xorlw	1	; case 15
  2529  024E  1903               	skipnz
  2530  024F  2A01               	goto	l1164
  2531  0250  3A1F               	xorlw	31	; case 16
  2532  0251  1903               	skipnz
  2533  0252  2A0C               	goto	l1168
  2534  0253  2A54               	goto	l151
  2535  0254                     l151:	
  2536  0254  0008               	return
  2537  0255                     __end_of_writePin:	
  2538                           
  2539                           	psect	text2
  2540  0255                     __ptext2:	
  2541 ;; *************** function _readPin *****************
  2542 ;; Defined at:
  2543 ;;		line 167 in file "pins.c"
  2544 ;; Parameters:    Size  Location     Type
  2545 ;;  read            1    wreg     enum E11183
  2546 ;; Auto vars:     Size  Location     Type
  2547 ;;  read            1    2[COMMON] enum E11183
  2548 ;; Return value:  Size  Location     Type
  2549 ;;                  1    wreg      unsigned char 
  2550 ;; Registers used:
  2551 ;;		wreg, fsr0l, fsr0h, status,2, status,0
  2552 ;; Tracked objects:
  2553 ;;		On entry : 0/0
  2554 ;;		On exit  : 0/0
  2555 ;;		Unchanged: 0/0
  2556 ;; Data sizes:     COMMON   BANK0   BANK1   BANK2   BANK3   BANK4   BANK5   BANK6   BANK7   BANK8   BANK9  BANK10  BANK1
      +1  BANK12  BANK13  BANK14  BANK15  BANK16  BANK17  BANK18  BANK19  BANK20  BANK21  BANK22  BANK23  BANK24  BANK25
  2557 ;;      Params:         0       0       0       0       0       0       0       0       0       0       0       0       
      +0       0       0       0       0       0       0       0       0       0       0       0       0       0       0
  2558 ;;      Locals:         1       0       0       0       0       0       0       0       0       0       0       0       
      +0       0       0       0       0       0       0       0       0       0       0       0       0       0       0
  2559 ;;      Temps:          2       0       0       0       0       0       0       0       0       0       0       0       
      +0       0       0       0       0       0       0       0       0       0       0       0       0       0       0
  2560 ;;      Totals:         3       0       0       0       0       0       0       0       0       0       0       0       
      +0       0       0       0       0       0       0       0       0       0       0       0       0       0       0
  2561 ;;Total ram usage:        3 bytes
  2562 ;; Hardware stack levels used:    1
  2563 ;; Hardware stack levels required when called:    1
  2564 ;; This function calls:
  2565 ;;		Nothing
  2566 ;; This function is called by:
  2567 ;;		_main
  2568 ;; This function uses a non-reentrant model
  2569 ;;
  2570                           
  2571                           
  2572                           ;psect for function _readPin
  2573  0255                     _readPin:	
  2574                           
  2575                           ;incstack = 0
  2576                           ; Regs used in _readPin: [wreg-fsr0h+status,2+status,0]
  2577                           ;readPin@read stored from wreg
  2578  0255  00F2               	movwf	readPin@read
  2579                           
  2580                           ;pins.c: 168:     switch (read) {
  2581  0256  2AA9               	goto	l886
  2582  0257                     l816:	
  2583                           
  2584                           ;pins.c: 170:             return PORTAbits.RA0;
  2585  0257  0140               	movlb	0	; select bank0
  2586  0258  080C               	movf	12,w	;volatile
  2587  0259  3901               	andlw	1
  2588  025A  0008               	return
  2589  025B                     l820:	
  2590                           
  2591                           ;pins.c: 172:             return PORTAbits.RA1;
  2592  025B  0140               	movlb	0	; select bank0
  2593  025C  0C0C               	rrf	12,w	;volatile
  2594  025D  3901               	andlw	1
  2595  025E  0008               	return
  2596  025F                     l824:	
  2597                           
  2598                           ;pins.c: 174:             return PORTAbits.RA2;
  2599  025F  0140               	movlb	0	; select bank0
  2600  0260  0C0C               	rrf	12,w	;volatile
  2601  0261  0C89               	rrf	9,f
  2602  0262  3901               	andlw	1
  2603  0263  0008               	return
  2604  0264                     l828:	
  2605                           
  2606                           ;pins.c: 176:             return PORTAbits.RA4;
  2607  0264  0140               	movlb	0	; select bank0
  2608  0265  0E0C               	swapf	12,w	;volatile
  2609  0266  3901               	andlw	1
  2610  0267  0008               	return
  2611  0268                     l832:	
  2612                           
  2613                           ;pins.c: 178:             return PORTAbits.RA5;
  2614  0268  0140               	movlb	0	; select bank0
  2615  0269  0E0C               	swapf	12,w	;volatile
  2616  026A  0C89               	rrf	9,f
  2617  026B  3901               	andlw	1
  2618  026C  0008               	return
  2619  026D                     l836:	
  2620                           
  2621                           ;pins.c: 180:             return PORTBbits.RB4;
  2622  026D  0140               	movlb	0	; select bank0
  2623  026E  0E0D               	swapf	13,w	;volatile
  2624  026F  3901               	andlw	1
  2625  0270  0008               	return
  2626  0271                     l840:	
  2627                           
  2628                           ;pins.c: 182:             return PORTBbits.RB5;
  2629  0271  0140               	movlb	0	; select bank0
  2630  0272  0E0D               	swapf	13,w	;volatile
  2631  0273  0C89               	rrf	9,f
  2632  0274  3901               	andlw	1
  2633  0275  0008               	return
  2634  0276                     l844:	
  2635                           
  2636                           ;pins.c: 184:             return PORTBbits.RB6;
  2637  0276  0140               	movlb	0	; select bank0
  2638  0277  0E0D               	swapf	13,w	;volatile
  2639  0278  0C89               	rrf	9,f
  2640  0279  0C89               	rrf	9,f
  2641  027A  3901               	andlw	1
  2642  027B  0008               	return
  2643  027C                     l848:	
  2644                           
  2645                           ;pins.c: 186:             return PORTBbits.RB7;
  2646  027C  0140               	movlb	0	; select bank0
  2647  027D  0D0D               	rlf	13,w	;volatile
  2648  027E  0D0D               	rlf	13,w	;volatile
  2649  027F  3901               	andlw	1
  2650  0280  0008               	return
  2651  0281                     l852:	
  2652                           
  2653                           ;pins.c: 188:             return PORTCbits.RC0;
  2654  0281  0140               	movlb	0	; select bank0
  2655  0282  080E               	movf	14,w	;volatile
  2656  0283  3901               	andlw	1
  2657  0284  0008               	return
  2658  0285                     l856:	
  2659                           
  2660                           ;pins.c: 190:             return PORTCbits.RC1;
  2661  0285  0140               	movlb	0	; select bank0
  2662  0286  0C0E               	rrf	14,w	;volatile
  2663  0287  3901               	andlw	1
  2664  0288  0008               	return
  2665  0289                     l860:	
  2666                           
  2667                           ;pins.c: 192:             return PORTCbits.RC2;
  2668  0289  0140               	movlb	0	; select bank0
  2669  028A  0C0E               	rrf	14,w	;volatile
  2670  028B  0C89               	rrf	9,f
  2671  028C  3901               	andlw	1
  2672  028D  0008               	return
  2673  028E                     l864:	
  2674                           
  2675                           ;pins.c: 194:             return PORTCbits.RC3;
  2676  028E  0140               	movlb	0	; select bank0
  2677  028F  0C0E               	rrf	14,w	;volatile
  2678  0290  00F0               	movwf	??_readPin
  2679  0291  0CF0               	rrf	??_readPin,f
  2680  0292  0C70               	rrf	??_readPin,w
  2681  0293  3901               	andlw	1
  2682  0294  0008               	return
  2683  0295                     l868:	
  2684                           
  2685                           ;pins.c: 196:             return PORTCbits.RC4;
  2686  0295  0140               	movlb	0	; select bank0
  2687  0296  0E0E               	swapf	14,w	;volatile
  2688  0297  3901               	andlw	1
  2689  0298  0008               	return
  2690  0299                     l872:	
  2691                           
  2692                           ;pins.c: 198:             return PORTCbits.RC5;
  2693  0299  0140               	movlb	0	; select bank0
  2694  029A  0E0E               	swapf	14,w	;volatile
  2695  029B  0C89               	rrf	9,f
  2696  029C  3901               	andlw	1
  2697  029D  0008               	return
  2698  029E                     l876:	
  2699                           
  2700                           ;pins.c: 200:             return PORTCbits.RC6;
  2701  029E  0140               	movlb	0	; select bank0
  2702  029F  0E0E               	swapf	14,w	;volatile
  2703  02A0  0C89               	rrf	9,f
  2704  02A1  0C89               	rrf	9,f
  2705  02A2  3901               	andlw	1
  2706  02A3  0008               	return
  2707  02A4                     l880:	
  2708                           
  2709                           ;pins.c: 202:             return PORTCbits.RC7;
  2710  02A4  0140               	movlb	0	; select bank0
  2711  02A5  0D0E               	rlf	14,w	;volatile
  2712  02A6  0D0E               	rlf	14,w	;volatile
  2713  02A7  3901               	andlw	1
  2714  02A8  0008               	return
  2715  02A9                     l886:	
  2716  02A9  0872               	movf	readPin@read,w
  2717  02AA  00F0               	movwf	??_readPin
  2718  02AB  01F1               	clrf	??_readPin+1
  2719                           
  2720                           ; Switch on 2 bytes has been partitioned into a top level switch of size 1, and 1 sub-sw
      +                          itches
  2721                           ; Switch size 1, requested type "simple"
  2722                           ; Number of cases is 1, Range of values is 0 to 0
  2723                           ; switch strategies available:
  2724                           ; Name         Instructions Cycles
  2725                           ; simple_byte            4     3 (average)
  2726                           ; direct_byte            8     6 (fixed)
  2727                           ; jumptable            260     6 (fixed)
  2728                           ;	Chosen strategy is simple_byte
  2729  02AC  0871               	movf	??_readPin+1,w
  2730  02AD  3A00               	xorlw	0	; case 0
  2731  02AE  1903               	skipnz
  2732  02AF  2AB1               	goto	l1274
  2733  02B0  2AE6               	goto	l112
  2734  02B1                     l1274:	
  2735                           
  2736                           ; Switch size 1, requested type "simple"
  2737                           ; Number of cases is 17, Range of values is 0 to 16
  2738                           ; switch strategies available:
  2739                           ; Name         Instructions Cycles
  2740                           ; direct_byte           40     6 (fixed)
  2741                           ; simple_byte           52    27 (average)
  2742                           ; jumptable            260     6 (fixed)
  2743                           ;	Chosen strategy is simple_byte
  2744  02B1  0870               	movf	??_readPin,w
  2745  02B2  3A00               	xorlw	0	; case 0
  2746  02B3  1903               	skipnz
  2747  02B4  2A57               	goto	l816
  2748  02B5  3A01               	xorlw	1	; case 1
  2749  02B6  1903               	skipnz
  2750  02B7  2A5B               	goto	l820
  2751  02B8  3A03               	xorlw	3	; case 2
  2752  02B9  1903               	skipnz
  2753  02BA  2A5F               	goto	l824
  2754  02BB  3A01               	xorlw	1	; case 3
  2755  02BC  1903               	skipnz
  2756  02BD  2A64               	goto	l828
  2757  02BE  3A07               	xorlw	7	; case 4
  2758  02BF  1903               	skipnz
  2759  02C0  2A68               	goto	l832
  2760  02C1  3A01               	xorlw	1	; case 5
  2761  02C2  1903               	skipnz
  2762  02C3  2A6D               	goto	l836
  2763  02C4  3A03               	xorlw	3	; case 6
  2764  02C5  1903               	skipnz
  2765  02C6  2A71               	goto	l840
  2766  02C7  3A01               	xorlw	1	; case 7
  2767  02C8  1903               	skipnz
  2768  02C9  2A76               	goto	l844
  2769  02CA  3A0F               	xorlw	15	; case 8
  2770  02CB  1903               	skipnz
  2771  02CC  2A7C               	goto	l848
  2772  02CD  3A01               	xorlw	1	; case 9
  2773  02CE  1903               	skipnz
  2774  02CF  2A81               	goto	l852
  2775  02D0  3A03               	xorlw	3	; case 10
  2776  02D1  1903               	skipnz
  2777  02D2  2A85               	goto	l856
  2778  02D3  3A01               	xorlw	1	; case 11
  2779  02D4  1903               	skipnz
  2780  02D5  2A89               	goto	l860
  2781  02D6  3A07               	xorlw	7	; case 12
  2782  02D7  1903               	skipnz
  2783  02D8  2A8E               	goto	l864
  2784  02D9  3A01               	xorlw	1	; case 13
  2785  02DA  1903               	skipnz
  2786  02DB  2A95               	goto	l868
  2787  02DC  3A03               	xorlw	3	; case 14
  2788  02DD  1903               	skipnz
  2789  02DE  2A99               	goto	l872
  2790  02DF  3A01               	xorlw	1	; case 15
  2791  02E0  1903               	skipnz
  2792  02E1  2A9E               	goto	l876
  2793  02E2  3A1F               	xorlw	31	; case 16
  2794  02E3  1903               	skipnz
  2795  02E4  2AA4               	goto	l880
  2796  02E5  2AE6               	goto	l112
  2797  02E6                     l112:	
  2798  02E6  0008               	return
  2799  02E7                     __end_of_readPin:	
  2800                           
  2801                           	psect	text3
  2802  0026                     __ptext3:	
  2803 ;; *************** function _defineGPIODirection *****************
  2804 ;; Defined at:
  2805 ;;		line 18 in file "pins.c"
  2806 ;; Parameters:    Size  Location     Type
  2807 ;;  input           1    wreg     PTR enum E11183
  2808 ;;		 -> main@input(1), 
  2809 ;;  output          1    0[COMMON] PTR enum E11183
  2810 ;;		 -> main@output(1), 
  2811 ;;  inputLength     1    1[COMMON] unsigned char 
  2812 ;;  outputLength    1    2[COMMON] unsigned char 
  2813 ;; Auto vars:     Size  Location     Type
  2814 ;;  input           1    6[COMMON] PTR enum E11183
  2815 ;;		 -> main@input(1), 
  2816 ;;  i               1    7[COMMON] unsigned char 
  2817 ;; Return value:  Size  Location     Type
  2818 ;;                  1    wreg      void 
  2819 ;; Registers used:
  2820 ;;		wreg, fsr0l, fsr0h, fsr1l, fsr1h, status,2, status,0
  2821 ;; Tracked objects:
  2822 ;;		On entry : 0/0
  2823 ;;		On exit  : 0/0
  2824 ;;		Unchanged: 0/0
  2825 ;; Data sizes:     COMMON   BANK0   BANK1   BANK2   BANK3   BANK4   BANK5   BANK6   BANK7   BANK8   BANK9  BANK10  BANK1
      +1  BANK12  BANK13  BANK14  BANK15  BANK16  BANK17  BANK18  BANK19  BANK20  BANK21  BANK22  BANK23  BANK24  BANK25
  2826 ;;      Params:         3       0       0       0       0       0       0       0       0       0       0       0       
      +0       0       0       0       0       0       0       0       0       0       0       0       0       0       0
  2827 ;;      Locals:         2       0       0       0       0       0       0       0       0       0       0       0       
      +0       0       0       0       0       0       0       0       0       0       0       0       0       0       0
  2828 ;;      Temps:          3       0       0       0       0       0       0       0       0       0       0       0       
      +0       0       0       0       0       0       0       0       0       0       0       0       0       0       0
  2829 ;;      Totals:         8       0       0       0       0       0       0       0       0       0       0       0       
      +0       0       0       0       0       0       0       0       0       0       0       0       0       0       0
  2830 ;;Total ram usage:        8 bytes
  2831 ;; Hardware stack levels used:    1
  2832 ;; Hardware stack levels required when called:    1
  2833 ;; This function calls:
  2834 ;;		Nothing
  2835 ;; This function is called by:
  2836 ;;		_main
  2837 ;; This function uses a non-reentrant model
  2838 ;;
  2839                           
  2840                           
  2841                           ;psect for function _defineGPIODirection
  2842  0026                     _defineGPIODirection:	
  2843                           
  2844                           ;incstack = 0
  2845                           ; Regs used in _defineGPIODirection: [wreg-fsr1h+status,2+status,0]
  2846                           ;defineGPIODirection@input stored from wreg
  2847  0026  00F6               	movwf	defineGPIODirection@input
  2848                           
  2849                           ;pins.c: 19:     uint8_t i;;pins.c: 20:     for(i = 0; i < inputLength; i++) {
  2850  0027  01F7               	clrf	defineGPIODirection@i
  2851  0028  2892               	goto	l1082
  2852  0029                     l66:	
  2853                           ;pins.c: 22:             case PINA0 :
  2854                           
  2855                           
  2856                           ;pins.c: 23:                 TRISAbits.TRISA0 = 1;
  2857  0029  0140               	movlb	0	; select bank0
  2858  002A  1412               	bsf	18,0	;volatile
  2859                           
  2860                           ;pins.c: 24:                 ANSELAbits.ANSA0 = 0;
  2861  002B  017E               	movlb	62	; select bank62
  2862  002C  1038               	bcf	56,0	;volatile
  2863                           
  2864                           ;pins.c: 25:                 WPUAbits.WPUA0 = 1;
  2865  002D  1439               	bsf	57,0	;volatile
  2866                           
  2867                           ;pins.c: 26:                 break;
  2868  002E  288E               	goto	l1080
  2869  002F                     l68:	
  2870                           ;pins.c: 27:             case PINA1 :
  2871                           
  2872                           
  2873                           ;pins.c: 28:                 TRISAbits.TRISA1 = 1;
  2874  002F  0140               	movlb	0	; select bank0
  2875  0030  1492               	bsf	18,1	;volatile
  2876                           
  2877                           ;pins.c: 29:                 ANSELAbits.ANSA1 = 0;
  2878  0031  017E               	movlb	62	; select bank62
  2879  0032  10B8               	bcf	56,1	;volatile
  2880                           
  2881                           ;pins.c: 30:                 WPUAbits.WPUA1 = 1;
  2882  0033  14B9               	bsf	57,1	;volatile
  2883                           
  2884                           ;pins.c: 31:                 break;
  2885  0034  288E               	goto	l1080
  2886  0035                     l69:	
  2887                           ;pins.c: 32:             case PINA2 :
  2888                           
  2889                           
  2890                           ;pins.c: 33:                 TRISAbits.TRISA2 = 1;
  2891  0035  0140               	movlb	0	; select bank0
  2892  0036  1512               	bsf	18,2	;volatile
  2893                           
  2894                           ;pins.c: 34:                 ANSELAbits.ANSA2 = 0;
  2895  0037  017E               	movlb	62	; select bank62
  2896  0038  1138               	bcf	56,2	;volatile
  2897                           
  2898                           ;pins.c: 35:                 WPUAbits.WPUA2 = 1;
  2899  0039  1539               	bsf	57,2	;volatile
  2900                           
  2901                           ;pins.c: 36:                 break;
  2902  003A  288E               	goto	l1080
  2903  003B                     l70:	
  2904                           ;pins.c: 37:             case PINA4 :
  2905                           
  2906                           
  2907                           ;pins.c: 38:                 TRISAbits.TRISA4 = 1;
  2908  003B  0140               	movlb	0	; select bank0
  2909  003C  1612               	bsf	18,4	;volatile
  2910                           
  2911                           ;pins.c: 39:                 ANSELAbits.ANSA4 = 0;
  2912  003D  017E               	movlb	62	; select bank62
  2913  003E  1238               	bcf	56,4	;volatile
  2914                           
  2915                           ;pins.c: 40:                 WPUAbits.WPUA4 = 1;
  2916  003F  1639               	bsf	57,4	;volatile
  2917                           
  2918                           ;pins.c: 41:                 break;
  2919  0040  288E               	goto	l1080
  2920  0041                     l71:	
  2921                           ;pins.c: 42:             case PINA5 :
  2922                           
  2923                           
  2924                           ;pins.c: 43:                 TRISAbits.TRISA5 = 1;
  2925  0041  0140               	movlb	0	; select bank0
  2926  0042  1692               	bsf	18,5	;volatile
  2927                           
  2928                           ;pins.c: 44:                 ANSELAbits.ANSA5 = 0;
  2929  0043  017E               	movlb	62	; select bank62
  2930  0044  12B8               	bcf	56,5	;volatile
  2931                           
  2932                           ;pins.c: 45:                 WPUAbits.WPUA5 = 1;
  2933  0045  16B9               	bsf	57,5	;volatile
  2934                           
  2935                           ;pins.c: 46:                 break;
  2936  0046  288E               	goto	l1080
  2937  0047                     l72:	
  2938                           ;pins.c: 47:             case PINB4 :
  2939                           
  2940                           
  2941                           ;pins.c: 48:                 TRISBbits.TRISB4 = 1;
  2942  0047  0140               	movlb	0	; select bank0
  2943  0048  1613               	bsf	19,4	;volatile
  2944                           
  2945                           ;pins.c: 49:                 ANSELBbits.ANSB4 = 0;
  2946  0049  017E               	movlb	62	; select bank62
  2947  004A  1243               	bcf	67,4	;volatile
  2948                           
  2949                           ;pins.c: 50:                 WPUBbits.WPUB4 = 1;
  2950  004B  1644               	bsf	68,4	;volatile
  2951                           
  2952                           ;pins.c: 51:                 break;
  2953  004C  288E               	goto	l1080
  2954  004D                     l73:	
  2955                           ;pins.c: 52:             case PINB5 :
  2956                           
  2957                           
  2958                           ;pins.c: 53:                 TRISBbits.TRISB5 = 1;
  2959  004D  0140               	movlb	0	; select bank0
  2960  004E  1693               	bsf	19,5	;volatile
  2961                           
  2962                           ;pins.c: 54:                 ANSELBbits.ANSB5 = 0;
  2963  004F  017E               	movlb	62	; select bank62
  2964  0050  12C3               	bcf	67,5	;volatile
  2965                           
  2966                           ;pins.c: 55:                 WPUBbits.WPUB5 = 1;
  2967  0051  16C4               	bsf	68,5	;volatile
  2968                           
  2969                           ;pins.c: 56:                 break;
  2970  0052  288E               	goto	l1080
  2971  0053                     l74:	
  2972                           ;pins.c: 57:             case PINB6 :
  2973                           
  2974                           
  2975                           ;pins.c: 58:                 TRISBbits.TRISB6 = 1;
  2976  0053  0140               	movlb	0	; select bank0
  2977  0054  1713               	bsf	19,6	;volatile
  2978                           
  2979                           ;pins.c: 59:                 ANSELBbits.ANSB6 = 0;
  2980  0055  017E               	movlb	62	; select bank62
  2981  0056  1343               	bcf	67,6	;volatile
  2982                           
  2983                           ;pins.c: 60:                 WPUBbits.WPUB6 = 1;
  2984  0057  1744               	bsf	68,6	;volatile
  2985                           
  2986                           ;pins.c: 61:                 break;
  2987  0058  288E               	goto	l1080
  2988  0059                     l75:	
  2989                           ;pins.c: 62:             case PINB7 :
  2990                           
  2991                           
  2992                           ;pins.c: 63:                 TRISBbits.TRISB7 = 1;
  2993  0059  0140               	movlb	0	; select bank0
  2994  005A  1793               	bsf	19,7	;volatile
  2995                           
  2996                           ;pins.c: 64:                 ANSELBbits.ANSB7 = 0;
  2997  005B  017E               	movlb	62	; select bank62
  2998  005C  13C3               	bcf	67,7	;volatile
  2999                           
  3000                           ;pins.c: 65:                 WPUBbits.WPUB7 = 1;
  3001  005D  17C4               	bsf	68,7	;volatile
  3002                           
  3003                           ;pins.c: 66:                 break;
  3004  005E  288E               	goto	l1080
  3005  005F                     l76:	
  3006                           ;pins.c: 67:             case PINC0 :
  3007                           
  3008                           
  3009                           ;pins.c: 68:                 TRISCbits.TRISC0 = 1;
  3010  005F  0140               	movlb	0	; select bank0
  3011  0060  1414               	bsf	20,0	;volatile
  3012                           
  3013                           ;pins.c: 69:                 ANSELCbits.ANSC0 = 0;
  3014  0061  017E               	movlb	62	; select bank62
  3015  0062  104E               	bcf	78,0	;volatile
  3016                           
  3017                           ;pins.c: 70:                 WPUCbits.WPUC0 = 1;
  3018  0063  144F               	bsf	79,0	;volatile
  3019                           
  3020                           ;pins.c: 71:                 break;
  3021  0064  288E               	goto	l1080
  3022  0065                     l77:	
  3023                           ;pins.c: 72:             case PINC1 :
  3024                           
  3025                           
  3026                           ;pins.c: 73:                 TRISCbits.TRISC1 = 1;
  3027  0065  0140               	movlb	0	; select bank0
  3028  0066  1494               	bsf	20,1	;volatile
  3029                           
  3030                           ;pins.c: 74:                 ANSELCbits.ANSC1 = 0;
  3031  0067  017E               	movlb	62	; select bank62
  3032  0068  10CE               	bcf	78,1	;volatile
  3033                           
  3034                           ;pins.c: 75:                 WPUCbits.WPUC1 = 1;
  3035  0069  14CF               	bsf	79,1	;volatile
  3036                           
  3037                           ;pins.c: 76:                 break;
  3038  006A  288E               	goto	l1080
  3039  006B                     l78:	
  3040                           ;pins.c: 77:             case PINC2 :
  3041                           
  3042                           
  3043                           ;pins.c: 78:                 TRISCbits.TRISC2 = 1;
  3044  006B  0140               	movlb	0	; select bank0
  3045  006C  1514               	bsf	20,2	;volatile
  3046                           
  3047                           ;pins.c: 79:                 ANSELCbits.ANSC2 = 0;
  3048  006D  017E               	movlb	62	; select bank62
  3049  006E  114E               	bcf	78,2	;volatile
  3050                           
  3051                           ;pins.c: 80:                 WPUCbits.WPUC2 = 1;
  3052  006F  154F               	bsf	79,2	;volatile
  3053                           
  3054                           ;pins.c: 81:                 break;
  3055  0070  288E               	goto	l1080
  3056  0071                     l79:	
  3057                           ;pins.c: 82:             case PINC3 :
  3058                           
  3059                           
  3060                           ;pins.c: 83:                 TRISCbits.TRISC3 = 1;
  3061  0071  0140               	movlb	0	; select bank0
  3062  0072  1594               	bsf	20,3	;volatile
  3063                           
  3064                           ;pins.c: 84:                 ANSELCbits.ANSC3 = 0;
  3065  0073  017E               	movlb	62	; select bank62
  3066  0074  11CE               	bcf	78,3	;volatile
  3067                           
  3068                           ;pins.c: 85:                 WPUCbits.WPUC3 = 1;
  3069  0075  15CF               	bsf	79,3	;volatile
  3070                           
  3071                           ;pins.c: 86:                 break;
  3072  0076  288E               	goto	l1080
  3073  0077                     l80:	
  3074                           ;pins.c: 87:             case PINC4 :
  3075                           
  3076                           
  3077                           ;pins.c: 88:                 TRISCbits.TRISC4 = 1;
  3078  0077  0140               	movlb	0	; select bank0
  3079  0078  1614               	bsf	20,4	;volatile
  3080                           
  3081                           ;pins.c: 89:                 ANSELCbits.ANSC4 = 0;
  3082  0079  017E               	movlb	62	; select bank62
  3083  007A  124E               	bcf	78,4	;volatile
  3084                           
  3085                           ;pins.c: 90:                 WPUCbits.WPUC4 = 1;
  3086  007B  164F               	bsf	79,4	;volatile
  3087                           
  3088                           ;pins.c: 91:                 break;
  3089  007C  288E               	goto	l1080
  3090  007D                     l81:	
  3091                           ;pins.c: 92:             case PINC5 :
  3092                           
  3093                           
  3094                           ;pins.c: 93:                 TRISCbits.TRISC5 = 1;
  3095  007D  0140               	movlb	0	; select bank0
  3096  007E  1694               	bsf	20,5	;volatile
  3097                           
  3098                           ;pins.c: 94:                 ANSELCbits.ANSC5 = 0;
  3099  007F  017E               	movlb	62	; select bank62
  3100  0080  12CE               	bcf	78,5	;volatile
  3101                           
  3102                           ;pins.c: 95:                 WPUCbits.WPUC5 = 1;
  3103  0081  16CF               	bsf	79,5	;volatile
  3104                           
  3105                           ;pins.c: 96:                 break;
  3106  0082  288E               	goto	l1080
  3107  0083                     l82:	
  3108                           ;pins.c: 97:             case PINC6 :
  3109                           
  3110                           
  3111                           ;pins.c: 98:                 TRISCbits.TRISC6 = 1;
  3112  0083  0140               	movlb	0	; select bank0
  3113  0084  1714               	bsf	20,6	;volatile
  3114                           
  3115                           ;pins.c: 99:                 ANSELCbits.ANSC6 = 0;
  3116  0085  017E               	movlb	62	; select bank62
  3117  0086  134E               	bcf	78,6	;volatile
  3118                           
  3119                           ;pins.c: 100:                 WPUCbits.WPUC6 = 1;
  3120  0087  174F               	bsf	79,6	;volatile
  3121                           
  3122                           ;pins.c: 101:                 break;
  3123  0088  288E               	goto	l1080
  3124  0089                     l83:	
  3125                           ;pins.c: 102:             case PINC7 :
  3126                           
  3127                           
  3128                           ;pins.c: 103:                 TRISCbits.TRISC7 = 1;
  3129  0089  0140               	movlb	0	; select bank0
  3130  008A  1794               	bsf	20,7	;volatile
  3131                           
  3132                           ;pins.c: 104:                 ANSELCbits.ANSC7 = 0;
  3133  008B  017E               	movlb	62	; select bank62
  3134  008C  13CE               	bcf	78,7	;volatile
  3135                           
  3136                           ;pins.c: 105:                 WPUCbits.WPUC7 = 1;
  3137  008D  17CF               	bsf	79,7	;volatile
  3138  008E                     l1080:	
  3139                           ;pins.c: 106:                 break;
  3140                           
  3141                           
  3142                           ;pins.c: 108:     }
  3143  008E  3001               	movlw	1
  3144  008F  00F3               	movwf	??_defineGPIODirection
  3145  0090  0873               	movf	??_defineGPIODirection,w
  3146  0091  07F7               	addwf	defineGPIODirection@i,f
  3147  0092                     l1082:	
  3148  0092  0871               	movf	defineGPIODirection@inputLength,w
  3149  0093  0277               	subwf	defineGPIODirection@i,w
  3150  0094  1803               	btfsc	3,0
  3151  0095  28DA               	goto	l1084
  3152  0096  0877               	movf	defineGPIODirection@i,w
  3153  0097  0776               	addwf	defineGPIODirection@input,w
  3154  0098  00F3               	movwf	??_defineGPIODirection
  3155  0099  0873               	movf	??_defineGPIODirection,w
  3156  009A  0086               	movwf	6
  3157  009B  0187               	clrf	7
  3158  009C  0801               	movf	1,w
  3159  009D  00F4               	movwf	??_defineGPIODirection+1
  3160  009E  01F5               	clrf	??_defineGPIODirection+2
  3161                           
  3162                           ; Switch on 2 bytes has been partitioned into a top level switch of size 1, and 1 sub-sw
      +                          itches
  3163                           ; Switch size 1, requested type "simple"
  3164                           ; Number of cases is 1, Range of values is 0 to 0
  3165                           ; switch strategies available:
  3166                           ; Name         Instructions Cycles
  3167                           ; simple_byte            4     3 (average)
  3168                           ; direct_byte            8     6 (fixed)
  3169                           ; jumptable            260     6 (fixed)
  3170                           ;	Chosen strategy is simple_byte
  3171  009F  0875               	movf	??_defineGPIODirection+2,w
  3172  00A0  3A00               	xorlw	0	; case 0
  3173  00A1  1903               	skipnz
  3174  00A2  28A4               	goto	l1276
  3175  00A3  288E               	goto	l1080
  3176  00A4                     l1276:	
  3177                           
  3178                           ; Switch size 1, requested type "simple"
  3179                           ; Number of cases is 17, Range of values is 0 to 16
  3180                           ; switch strategies available:
  3181                           ; Name         Instructions Cycles
  3182                           ; direct_byte           40     6 (fixed)
  3183                           ; simple_byte           52    27 (average)
  3184                           ; jumptable            260     6 (fixed)
  3185                           ;	Chosen strategy is simple_byte
  3186  00A4  0874               	movf	??_defineGPIODirection+1,w
  3187  00A5  3A00               	xorlw	0	; case 0
  3188  00A6  1903               	skipnz
  3189  00A7  2829               	goto	l66
  3190  00A8  3A01               	xorlw	1	; case 1
  3191  00A9  1903               	skipnz
  3192  00AA  282F               	goto	l68
  3193  00AB  3A03               	xorlw	3	; case 2
  3194  00AC  1903               	skipnz
  3195  00AD  2835               	goto	l69
  3196  00AE  3A01               	xorlw	1	; case 3
  3197  00AF  1903               	skipnz
  3198  00B0  283B               	goto	l70
  3199  00B1  3A07               	xorlw	7	; case 4
  3200  00B2  1903               	skipnz
  3201  00B3  2841               	goto	l71
  3202  00B4  3A01               	xorlw	1	; case 5
  3203  00B5  1903               	skipnz
  3204  00B6  2847               	goto	l72
  3205  00B7  3A03               	xorlw	3	; case 6
  3206  00B8  1903               	skipnz
  3207  00B9  284D               	goto	l73
  3208  00BA  3A01               	xorlw	1	; case 7
  3209  00BB  1903               	skipnz
  3210  00BC  2853               	goto	l74
  3211  00BD  3A0F               	xorlw	15	; case 8
  3212  00BE  1903               	skipnz
  3213  00BF  2859               	goto	l75
  3214  00C0  3A01               	xorlw	1	; case 9
  3215  00C1  1903               	skipnz
  3216  00C2  285F               	goto	l76
  3217  00C3  3A03               	xorlw	3	; case 10
  3218  00C4  1903               	skipnz
  3219  00C5  2865               	goto	l77
  3220  00C6  3A01               	xorlw	1	; case 11
  3221  00C7  1903               	skipnz
  3222  00C8  286B               	goto	l78
  3223  00C9  3A07               	xorlw	7	; case 12
  3224  00CA  1903               	skipnz
  3225  00CB  2871               	goto	l79
  3226  00CC  3A01               	xorlw	1	; case 13
  3227  00CD  1903               	skipnz
  3228  00CE  2877               	goto	l80
  3229  00CF  3A03               	xorlw	3	; case 14
  3230  00D0  1903               	skipnz
  3231  00D1  287D               	goto	l81
  3232  00D2  3A01               	xorlw	1	; case 15
  3233  00D3  1903               	skipnz
  3234  00D4  2883               	goto	l82
  3235  00D5  3A1F               	xorlw	31	; case 16
  3236  00D6  1903               	skipnz
  3237  00D7  2889               	goto	l83
  3238  00D8  288E               	goto	l1080
  3239  00D9  288E               	goto	l1080
  3240  00DA                     l1084:	
  3241                           
  3242                           ;pins.c: 110:     for(i = 0; i < outputLength; i++) {
  3243  00DA  01F7               	clrf	defineGPIODirection@i
  3244  00DB  2912               	goto	l1092
  3245  00DC                     l88:	
  3246                           ;pins.c: 112:             case PINA0 :
  3247                           
  3248                           
  3249                           ;pins.c: 113:                 TRISAbits.TRISA0 = 0;
  3250  00DC  0140               	movlb	0	; select bank0
  3251  00DD  1012               	bcf	18,0	;volatile
  3252                           
  3253                           ;pins.c: 114:                 break;
  3254  00DE  290E               	goto	l1090
  3255  00DF                     l90:	
  3256                           ;pins.c: 115:             case PINA1 :
  3257                           
  3258                           
  3259                           ;pins.c: 116:                 TRISAbits.TRISA1 = 0;
  3260  00DF  0140               	movlb	0	; select bank0
  3261  00E0  1092               	bcf	18,1	;volatile
  3262                           
  3263                           ;pins.c: 117:                 break;
  3264  00E1  290E               	goto	l1090
  3265  00E2                     l91:	
  3266                           ;pins.c: 118:             case PINA2 :
  3267                           
  3268                           
  3269                           ;pins.c: 119:                 TRISAbits.TRISA2 = 0;
  3270  00E2  0140               	movlb	0	; select bank0
  3271  00E3  1112               	bcf	18,2	;volatile
  3272                           
  3273                           ;pins.c: 120:                 break;
  3274  00E4  290E               	goto	l1090
  3275  00E5                     l92:	
  3276                           ;pins.c: 121:             case PINA4 :
  3277                           
  3278                           
  3279                           ;pins.c: 122:                 TRISAbits.TRISA4 = 0;
  3280  00E5  0140               	movlb	0	; select bank0
  3281  00E6  1212               	bcf	18,4	;volatile
  3282                           
  3283                           ;pins.c: 123:                 break;
  3284  00E7  290E               	goto	l1090
  3285  00E8                     l93:	
  3286                           ;pins.c: 124:             case PINA5 :
  3287                           
  3288                           
  3289                           ;pins.c: 125:                 TRISAbits.TRISA5 = 0;
  3290  00E8  0140               	movlb	0	; select bank0
  3291  00E9  1292               	bcf	18,5	;volatile
  3292                           
  3293                           ;pins.c: 126:                 break;
  3294  00EA  290E               	goto	l1090
  3295  00EB                     l94:	
  3296                           ;pins.c: 127:             case PINB4 :
  3297                           
  3298                           
  3299                           ;pins.c: 128:                 TRISBbits.TRISB4 = 0;
  3300  00EB  0140               	movlb	0	; select bank0
  3301  00EC  1213               	bcf	19,4	;volatile
  3302                           
  3303                           ;pins.c: 129:                 break;
  3304  00ED  290E               	goto	l1090
  3305  00EE                     l95:	
  3306                           ;pins.c: 130:             case PINB5 :
  3307                           
  3308                           
  3309                           ;pins.c: 131:                 TRISBbits.TRISB5 = 0;
  3310  00EE  0140               	movlb	0	; select bank0
  3311  00EF  1293               	bcf	19,5	;volatile
  3312                           
  3313                           ;pins.c: 132:                 break;
  3314  00F0  290E               	goto	l1090
  3315  00F1                     l96:	
  3316                           ;pins.c: 133:             case PINB6 :
  3317                           
  3318                           
  3319                           ;pins.c: 134:                 TRISBbits.TRISB6 = 0;
  3320  00F1  0140               	movlb	0	; select bank0
  3321  00F2  1313               	bcf	19,6	;volatile
  3322                           
  3323                           ;pins.c: 135:                 break;
  3324  00F3  290E               	goto	l1090
  3325  00F4                     l97:	
  3326                           ;pins.c: 136:             case PINB7 :
  3327                           
  3328                           
  3329                           ;pins.c: 137:                 TRISBbits.TRISB7 = 0;
  3330  00F4  0140               	movlb	0	; select bank0
  3331  00F5  1393               	bcf	19,7	;volatile
  3332                           
  3333                           ;pins.c: 138:                 break;
  3334  00F6  290E               	goto	l1090
  3335  00F7                     l98:	
  3336                           ;pins.c: 139:             case PINC0 :
  3337                           
  3338                           
  3339                           ;pins.c: 140:                 TRISCbits.TRISC0 = 0;
  3340  00F7  0140               	movlb	0	; select bank0
  3341  00F8  1014               	bcf	20,0	;volatile
  3342                           
  3343                           ;pins.c: 141:                 break;
  3344  00F9  290E               	goto	l1090
  3345  00FA                     l99:	
  3346                           ;pins.c: 142:             case PINC1 :
  3347                           
  3348                           
  3349                           ;pins.c: 143:                 TRISCbits.TRISC1 = 0;
  3350  00FA  0140               	movlb	0	; select bank0
  3351  00FB  1094               	bcf	20,1	;volatile
  3352                           
  3353                           ;pins.c: 144:                 break;
  3354  00FC  290E               	goto	l1090
  3355  00FD                     l100:	
  3356                           ;pins.c: 145:             case PINC2 :
  3357                           
  3358                           
  3359                           ;pins.c: 146:                 TRISCbits.TRISC2 = 0;
  3360  00FD  0140               	movlb	0	; select bank0
  3361  00FE  1114               	bcf	20,2	;volatile
  3362                           
  3363                           ;pins.c: 147:                 break;
  3364  00FF  290E               	goto	l1090
  3365  0100                     l101:	
  3366                           ;pins.c: 148:             case PINC3 :
  3367                           
  3368                           
  3369                           ;pins.c: 149:                 TRISCbits.TRISC3 = 0;
  3370  0100  0140               	movlb	0	; select bank0
  3371  0101  1194               	bcf	20,3	;volatile
  3372                           
  3373                           ;pins.c: 150:                 break;
  3374  0102  290E               	goto	l1090
  3375  0103                     l102:	
  3376                           ;pins.c: 151:             case PINC4 :
  3377                           
  3378                           
  3379                           ;pins.c: 152:                 TRISCbits.TRISC4 = 0;
  3380  0103  0140               	movlb	0	; select bank0
  3381  0104  1214               	bcf	20,4	;volatile
  3382                           
  3383                           ;pins.c: 153:                 break;
  3384  0105  290E               	goto	l1090
  3385  0106                     l103:	
  3386                           ;pins.c: 154:             case PINC5 :
  3387                           
  3388                           
  3389                           ;pins.c: 155:                 TRISCbits.TRISC5 = 0;
  3390  0106  0140               	movlb	0	; select bank0
  3391  0107  1294               	bcf	20,5	;volatile
  3392                           
  3393                           ;pins.c: 156:                 break;
  3394  0108  290E               	goto	l1090
  3395  0109                     l104:	
  3396                           ;pins.c: 157:             case PINC6 :
  3397                           
  3398                           
  3399                           ;pins.c: 158:                 TRISCbits.TRISC6 = 0;
  3400  0109  0140               	movlb	0	; select bank0
  3401  010A  1314               	bcf	20,6	;volatile
  3402                           
  3403                           ;pins.c: 159:                 break;
  3404  010B  290E               	goto	l1090
  3405  010C                     l105:	
  3406                           ;pins.c: 160:             case PINC7 :
  3407                           
  3408                           
  3409                           ;pins.c: 161:                 TRISCbits.TRISC7 = 0;
  3410  010C  0140               	movlb	0	; select bank0
  3411  010D  1394               	bcf	20,7	;volatile
  3412  010E                     l1090:	
  3413                           ;pins.c: 162:                 break;
  3414                           
  3415                           
  3416                           ;pins.c: 164:     }
  3417  010E  3001               	movlw	1
  3418  010F  00F3               	movwf	??_defineGPIODirection
  3419  0110  0873               	movf	??_defineGPIODirection,w
  3420  0111  07F7               	addwf	defineGPIODirection@i,f
  3421  0112                     l1092:	
  3422  0112  0872               	movf	defineGPIODirection@outputLength,w
  3423  0113  0277               	subwf	defineGPIODirection@i,w
  3424  0114  1803               	btfsc	3,0
  3425  0115  0008               	return
  3426  0116  0877               	movf	defineGPIODirection@i,w
  3427  0117  0770               	addwf	defineGPIODirection@output,w
  3428  0118  00F3               	movwf	??_defineGPIODirection
  3429  0119  0873               	movf	??_defineGPIODirection,w
  3430  011A  0086               	movwf	6
  3431  011B  0187               	clrf	7
  3432  011C  0801               	movf	1,w
  3433  011D  00F4               	movwf	??_defineGPIODirection+1
  3434  011E  01F5               	clrf	??_defineGPIODirection+2
  3435                           
  3436                           ; Switch on 2 bytes has been partitioned into a top level switch of size 1, and 1 sub-sw
      +                          itches
  3437                           ; Switch size 1, requested type "simple"
  3438                           ; Number of cases is 1, Range of values is 0 to 0
  3439                           ; switch strategies available:
  3440                           ; Name         Instructions Cycles
  3441                           ; simple_byte            4     3 (average)
  3442                           ; direct_byte            8     6 (fixed)
  3443                           ; jumptable            260     6 (fixed)
  3444                           ;	Chosen strategy is simple_byte
  3445  011F  0875               	movf	??_defineGPIODirection+2,w
  3446  0120  3A00               	xorlw	0	; case 0
  3447  0121  1903               	skipnz
  3448  0122  2924               	goto	l1278
  3449  0123  290E               	goto	l1090
  3450  0124                     l1278:	
  3451                           
  3452                           ; Switch size 1, requested type "simple"
  3453                           ; Number of cases is 17, Range of values is 0 to 16
  3454                           ; switch strategies available:
  3455                           ; Name         Instructions Cycles
  3456                           ; direct_byte           40     6 (fixed)
  3457                           ; simple_byte           52    27 (average)
  3458                           ; jumptable            260     6 (fixed)
  3459                           ;	Chosen strategy is simple_byte
  3460  0124  0874               	movf	??_defineGPIODirection+1,w
  3461  0125  3A00               	xorlw	0	; case 0
  3462  0126  1903               	skipnz
  3463  0127  28DC               	goto	l88
  3464  0128  3A01               	xorlw	1	; case 1
  3465  0129  1903               	skipnz
  3466  012A  28DF               	goto	l90
  3467  012B  3A03               	xorlw	3	; case 2
  3468  012C  1903               	skipnz
  3469  012D  28E2               	goto	l91
  3470  012E  3A01               	xorlw	1	; case 3
  3471  012F  1903               	skipnz
  3472  0130  28E5               	goto	l92
  3473  0131  3A07               	xorlw	7	; case 4
  3474  0132  1903               	skipnz
  3475  0133  28E8               	goto	l93
  3476  0134  3A01               	xorlw	1	; case 5
  3477  0135  1903               	skipnz
  3478  0136  28EB               	goto	l94
  3479  0137  3A03               	xorlw	3	; case 6
  3480  0138  1903               	skipnz
  3481  0139  28EE               	goto	l95
  3482  013A  3A01               	xorlw	1	; case 7
  3483  013B  1903               	skipnz
  3484  013C  28F1               	goto	l96
  3485  013D  3A0F               	xorlw	15	; case 8
  3486  013E  1903               	skipnz
  3487  013F  28F4               	goto	l97
  3488  0140  3A01               	xorlw	1	; case 9
  3489  0141  1903               	skipnz
  3490  0142  28F7               	goto	l98
  3491  0143  3A03               	xorlw	3	; case 10
  3492  0144  1903               	skipnz
  3493  0145  28FA               	goto	l99
  3494  0146  3A01               	xorlw	1	; case 11
  3495  0147  1903               	skipnz
  3496  0148  28FD               	goto	l100
  3497  0149  3A07               	xorlw	7	; case 12
  3498  014A  1903               	skipnz
  3499  014B  2900               	goto	l101
  3500  014C  3A01               	xorlw	1	; case 13
  3501  014D  1903               	skipnz
  3502  014E  2903               	goto	l102
  3503  014F  3A03               	xorlw	3	; case 14
  3504  0150  1903               	skipnz
  3505  0151  2906               	goto	l103
  3506  0152  3A01               	xorlw	1	; case 15
  3507  0153  1903               	skipnz
  3508  0154  2909               	goto	l104
  3509  0155  3A1F               	xorlw	31	; case 16
  3510  0156  1903               	skipnz
  3511  0157  290C               	goto	l105
  3512  0158  290E               	goto	l1090
  3513  0159  290E               	goto	l1090
  3514  015A                     __end_of_defineGPIODirection:	
  3515                           
  3516                           	psect	intentry
  3517  0004                     __pintentry:	
  3518 ;; *************** function _timer0ISR *****************
  3519 ;; Defined at:
  3520 ;;		line 27 in file "timer0.c"
  3521 ;; Parameters:    Size  Location     Type
  3522 ;;		None
  3523 ;; Auto vars:     Size  Location     Type
  3524 ;;		None
  3525 ;; Return value:  Size  Location     Type
  3526 ;;                  1    wreg      void 
  3527 ;; Registers used:
  3528 ;;		wreg
  3529 ;; Tracked objects:
  3530 ;;		On entry : 0/0
  3531 ;;		On exit  : 0/0
  3532 ;;		Unchanged: 0/0
  3533 ;; Data sizes:     COMMON   BANK0   BANK1   BANK2   BANK3   BANK4   BANK5   BANK6   BANK7   BANK8   BANK9  BANK10  BANK1
      +1  BANK12  BANK13  BANK14  BANK15  BANK16  BANK17  BANK18  BANK19  BANK20  BANK21  BANK22  BANK23  BANK24  BANK25
  3534 ;;      Params:         0       0       0       0       0       0       0       0       0       0       0       0       
      +0       0       0       0       0       0       0       0       0       0       0       0       0       0       0
  3535 ;;      Locals:         0       0       0       0       0       0       0       0       0       0       0       0       
      +0       0       0       0       0       0       0       0       0       0       0       0       0       0       0
  3536 ;;      Temps:          0       0       0       0       0       0       0       0       0       0       0       0       
      +0       0       0       0       0       0       0       0       0       0       0       0       0       0       0
  3537 ;;      Totals:         0       0       0       0       0       0       0       0       0       0       0       0       
      +0       0       0       0       0       0       0       0       0       0       0       0       0       0       0
  3538 ;;Total ram usage:        0 bytes
  3539 ;; Hardware stack levels used:    1
  3540 ;; This function calls:
  3541 ;;		Nothing
  3542 ;; This function is called by:
  3543 ;;		Interrupt level 1
  3544 ;; This function uses a non-reentrant model
  3545 ;;
  3546                           
  3547  0004                     _timer0ISR:	
  3548                           
  3549                           ;incstack = 0
  3550  0004  147E               	bsf	126,0	;set compiler interrupt flag (level 1)
  3551                           
  3552                           ; Regs used in _timer0ISR: [wreg]
  3553  0005  3180               	pagesel	$
  3554                           
  3555                           ;timer0.c: 28:     count++;
  3556  0006  3001               	movlw	1
  3557  0007  0140               	movlb	0	; select bank0
  3558  0008  07B5               	addwf	_count,f
  3559  0009  3000               	movlw	0
  3560  000A  3DB6               	addwfc	_count+1,f
  3561  000B  3000               	movlw	0
  3562  000C  3DB7               	addwfc	_count+2,f
  3563  000D  3000               	movlw	0
  3564  000E  3DB8               	addwfc	_count+3,f
  3565  000F  107E               	bcf	126,0	;clear compiler interrupt flag (level 1)
  3566  0010  0009               	retfie
  3567  0011                     __end_of_timer0ISR:	
  3568  007E                     btemp	set	126	;btemp
  3569  007E                     int$flags	set	126
  3570  007E                     wtemp0	set	126


Data Sizes:
    Strings     0
    Constant    0
    Data        2
    BSS         25
    Persistent  32
    Stack       0

Auto Spaces:
    Space          Size  Autos    Used
    COMMON           14     11      13
    BANK0            80      0      25
    BANK1            80      0       0
    BANK2            80      0       0
    BANK3            80      0       0
    BANK4            80      0       0
    BANK5            80      0       0
    BANK6            80      0       0
    BANK7            80      0       0
    BANK8            80      0       0
    BANK9            80      0       0
    BANK10           80      0       0
    BANK11           80      0       0
    BANK12           80      0       0
    BANK13           80      0       0
    BANK14           80      0       0
    BANK15           80      0       0
    BANK16           80      0       0
    BANK17           80      0       0
    BANK18           80      0       0
    BANK19           80      0       0
    BANK20           80      0       0
    BANK21           80      0       0
    BANK22           80      0       0
    BANK23           80      0       0
    BANK24           80      0       0
    BANK25           32      0       0

Pointer List with Targets:

    defineGPIODirection@output	PTR enum E11183 size(1) Largest target is 1
		 -> main@output(COMMON[1]), 

    defineGPIODirection@input	PTR enum E11183 size(1) Largest target is 1
		 -> main@input(COMMON[1]), 


Critical Paths under _main in COMMON

    _main->_defineGPIODirection

Critical Paths under _timer0ISR in COMMON

    None.

Critical Paths under _main in BANK0

    None.

Critical Paths under _timer0ISR in BANK0

    None.

Critical Paths under _main in BANK1

    None.

Critical Paths under _timer0ISR in BANK1

    None.

Critical Paths under _main in BANK2

    None.

Critical Paths under _timer0ISR in BANK2

    None.

Critical Paths under _main in BANK3

    None.

Critical Paths under _timer0ISR in BANK3

    None.

Critical Paths under _main in BANK4

    None.

Critical Paths under _timer0ISR in BANK4

    None.

Critical Paths under _main in BANK5

    None.

Critical Paths under _timer0ISR in BANK5

    None.

Critical Paths under _main in BANK6

    None.

Critical Paths under _timer0ISR in BANK6

    None.

Critical Paths under _main in BANK7

    None.

Critical Paths under _timer0ISR in BANK7

    None.

Critical Paths under _main in BANK8

    None.

Critical Paths under _timer0ISR in BANK8

    None.

Critical Paths under _main in BANK9

    None.

Critical Paths under _timer0ISR in BANK9

    None.

Critical Paths under _main in BANK10

    None.

Critical Paths under _timer0ISR in BANK10

    None.

Critical Paths under _main in BANK11

    None.

Critical Paths under _timer0ISR in BANK11

    None.

Critical Paths under _main in BANK12

    None.

Critical Paths under _timer0ISR in BANK12

    None.

Critical Paths under _main in BANK13

    None.

Critical Paths under _timer0ISR in BANK13

    None.

Critical Paths under _main in BANK14

    None.

Critical Paths under _timer0ISR in BANK14

    None.

Critical Paths under _main in BANK15

    None.

Critical Paths under _timer0ISR in BANK15

    None.

Critical Paths under _main in BANK16

    None.

Critical Paths under _timer0ISR in BANK16

    None.

Critical Paths under _main in BANK17

    None.

Critical Paths under _timer0ISR in BANK17

    None.

Critical Paths under _main in BANK18

    None.

Critical Paths under _timer0ISR in BANK18

    None.

Critical Paths under _main in BANK19

    None.

Critical Paths under _timer0ISR in BANK19

    None.

Critical Paths under _main in BANK20

    None.

Critical Paths under _timer0ISR in BANK20

    None.

Critical Paths under _main in BANK21

    None.

Critical Paths under _timer0ISR in BANK21

    None.

Critical Paths under _main in BANK22

    None.

Critical Paths under _timer0ISR in BANK22

    None.

Critical Paths under _main in BANK23

    None.

Critical Paths under _timer0ISR in BANK23

    None.

Critical Paths under _main in BANK24

    None.

Critical Paths under _timer0ISR in BANK24

    None.

Critical Paths under _main in BANK25

    None.

Critical Paths under _timer0ISR in BANK25

    None.

Call Graph Tables:

 ---------------------------------------------------------------------------------
 (Depth) Function   	        Calls       Base Space   Used Autos Params    Refs
 ---------------------------------------------------------------------------------
 (0) _main                                                 3     3      0    1426
                                              8 COMMON     3     3      0
                _defineGPIODirection
                            _readPin
                           _writePin
 ---------------------------------------------------------------------------------
 (1) _writePin                                             4     3      1     922
                                              0 COMMON     4     3      1
 ---------------------------------------------------------------------------------
 (1) _readPin                                              3     3      0      15
                                              0 COMMON     3     3      0
 ---------------------------------------------------------------------------------
 (1) _defineGPIODirection                                  8     5      3     441
                                              0 COMMON     8     5      3
 ---------------------------------------------------------------------------------
 Estimated maximum stack depth 1
 ---------------------------------------------------------------------------------
 (Depth) Function   	        Calls       Base Space   Used Autos Params    Refs
 ---------------------------------------------------------------------------------
 (2) _timer0ISR                                            0     0      0       0
 ---------------------------------------------------------------------------------
 Estimated maximum stack depth 2
 ---------------------------------------------------------------------------------

 Call Graph Graphs:

 _main (ROOT)
   _defineGPIODirection
   _readPin
   _writePin

 _timer0ISR (ROOT)

 Address spaces:
Name               Size   Autos  Total    Cost      Usage
BIGRAM             7F0      0       0       0        0.0%
EEDATA             100      0       0       0        0.0%
NULL                 0      0       0       0        0.0%
CODE                 0      0       0       0        0.0%
BITCOMMON            E      0       0       1        0.0%
BITSFR0              0      0       0       1        0.0%
SFR0                 0      0       0       1        0.0%
COMMON               E      B       D       2       92.9%
BITSFR1              0      0       0       2        0.0%
SFR1                 0      0       0       2        0.0%
BITSFR2              0      0       0       3        0.0%
SFR2                 0      0       0       3        0.0%
STACK                0      0       0       3        0.0%
BITBANK0            50      0       0       4        0.0%
BITSFR3              0      0       0       4        0.0%
SFR3                 0      0       0       4        0.0%
BANK0               50      0      19       5       31.3%
BITSFR4              0      0       0       5        0.0%
SFR4                 0      0       0       5        0.0%
BITSFR5              0      0       0       6        0.0%
SFR5                 0      0       0       6        0.0%
ABS                  0      0      26       6        0.0%
BITBANK1            50      0       0       7        0.0%
BITSFR6              0      0       0       7        0.0%
SFR6                 0      0       0       7        0.0%
BANK1               50      0       0       8        0.0%
BITSFR7              0      0       0       8        0.0%
SFR7                 0      0       0       8        0.0%
BITBANK2            50      0       0       9        0.0%
BITSFR8              0      0       0       9        0.0%
SFR8                 0      0       0       9        0.0%
BANK2               50      0       0      10        0.0%
BITSFR9              0      0       0      10        0.0%
SFR9                 0      0       0      10        0.0%
BITBANK3            50      0       0      11        0.0%
BITSFR10             0      0       0      11        0.0%
SFR10                0      0       0      11        0.0%
BANK3               50      0       0      12        0.0%
BITSFR11             0      0       0      12        0.0%
SFR11                0      0       0      12        0.0%
BITBANK4            50      0       0      13        0.0%
BITSFR12             0      0       0      13        0.0%
SFR12                0      0       0      13        0.0%
BANK4               50      0       0      14        0.0%
BITSFR13             0      0       0      14        0.0%
SFR13                0      0       0      14        0.0%
BITBANK5            50      0       0      15        0.0%
BITSFR14             0      0       0      15        0.0%
SFR14                0      0       0      15        0.0%
BANK5               50      0       0      16        0.0%
BITSFR15             0      0       0      16        0.0%
SFR15                0      0       0      16        0.0%
BITBANK6            50      0       0      17        0.0%
BITSFR16             0      0       0      17        0.0%
SFR16                0      0       0      17        0.0%
BANK6               50      0       0      18        0.0%
BITSFR17             0      0       0      18        0.0%
SFR17                0      0       0      18        0.0%
BITBANK7            50      0       0      19        0.0%
BITSFR18             0      0       0      19        0.0%
SFR18                0      0       0      19        0.0%
BANK7               50      0       0      20        0.0%
BITSFR19             0      0       0      20        0.0%
SFR19                0      0       0      20        0.0%
BITBANK8            50      0       0      21        0.0%
BITSFR20             0      0       0      21        0.0%
SFR20                0      0       0      21        0.0%
BANK8               50      0       0      22        0.0%
BITSFR21             0      0       0      22        0.0%
SFR21                0      0       0      22        0.0%
BITBANK9            50      0       0      23        0.0%
BITSFR22             0      0       0      23        0.0%
SFR22                0      0       0      23        0.0%
BANK9               50      0       0      24        0.0%
BITSFR23             0      0       0      24        0.0%
SFR23                0      0       0      24        0.0%
BITBANK10           50      0       0      25        0.0%
BITSFR24             0      0       0      25        0.0%
SFR24                0      0       0      25        0.0%
BANK10              50      0       0      26        0.0%
BITSFR25             0      0       0      26        0.0%
SFR25                0      0       0      26        0.0%
BITBANK11           50      0       0      27        0.0%
BITSFR26             0      0       0      27        0.0%
SFR26                0      0       0      27        0.0%
BANK11              50      0       0      28        0.0%
BITSFR27             0      0       0      28        0.0%
SFR27                0      0       0      28        0.0%
BITBANK12           50      0       0      29        0.0%
BITSFR28             0      0       0      29        0.0%
SFR28                0      0       0      29        0.0%
BANK12              50      0       0      30        0.0%
BITSFR29             0      0       0      30        0.0%
SFR29                0      0       0      30        0.0%
BITBANK13           50      0       0      31        0.0%
BITSFR30             0      0       0      31        0.0%
SFR30                0      0       0      31        0.0%
BANK13              50      0       0      32        0.0%
BITSFR31             0      0       0      32        0.0%
SFR31                0      0       0      32        0.0%
BITBANK14           50      0       0      33        0.0%
BITSFR32             0      0       0      33        0.0%
SFR32                0      0       0      33        0.0%
BANK14              50      0       0      34        0.0%
BITSFR33             0      0       0      34        0.0%
SFR33                0      0       0      34        0.0%
BITBANK15           50      0       0      35        0.0%
BITSFR34             0      0       0      35        0.0%
SFR34                0      0       0      35        0.0%
BANK15              50      0       0      36        0.0%
BITSFR35             0      0       0      36        0.0%
SFR35                0      0       0      36        0.0%
BITBANK16           50      0       0      37        0.0%
BITSFR36             0      0       0      37        0.0%
SFR36                0      0       0      37        0.0%
BANK16              50      0       0      38        0.0%
BITSFR37             0      0       0      38        0.0%
SFR37                0      0       0      38        0.0%
BITBANK17           50      0       0      39        0.0%
BITSFR38             0      0       0      39        0.0%
SFR38                0      0       0      39        0.0%
BANK17              50      0       0      40        0.0%
BITSFR39             0      0       0      40        0.0%
SFR39                0      0       0      40        0.0%
BITBANK18           50      0       0      41        0.0%
BITSFR40             0      0       0      41        0.0%
SFR40                0      0       0      41        0.0%
BANK18              50      0       0      42        0.0%
BITSFR41             0      0       0      42        0.0%
SFR41                0      0       0      42        0.0%
BITBANK19           50      0       0      43        0.0%
BITSFR42             0      0       0      43        0.0%
SFR42                0      0       0      43        0.0%
BANK19              50      0       0      44        0.0%
BITSFR43             0      0       0      44        0.0%
SFR43                0      0       0      44        0.0%
BITBANK20           50      0       0      45        0.0%
BITSFR44             0      0       0      45        0.0%
SFR44                0      0       0      45        0.0%
BANK20              50      0       0      46        0.0%
BITSFR45             0      0       0      46        0.0%
SFR45                0      0       0      46        0.0%
BITBANK21           50      0       0      47        0.0%
BITSFR46             0      0       0      47        0.0%
SFR46                0      0       0      47        0.0%
BANK21              50      0       0      48        0.0%
BITSFR47             0      0       0      48        0.0%
SFR47                0      0       0      48        0.0%
BITBANK22           50      0       0      49        0.0%
BITSFR48             0      0       0      49        0.0%
SFR48                0      0       0      49        0.0%
BANK22              50      0       0      50        0.0%
BITSFR49             0      0       0      50        0.0%
SFR49                0      0       0      50        0.0%
BITBANK23           50      0       0      51        0.0%
BITSFR50             0      0       0      51        0.0%
SFR50                0      0       0      51        0.0%
BANK23              50      0       0      52        0.0%
BITSFR51             0      0       0      52        0.0%
SFR51                0      0       0      52        0.0%
BITBANK24           50      0       0      53        0.0%
BITSFR52             0      0       0      53        0.0%
SFR52                0      0       0      53        0.0%
BANK24              50      0       0      54        0.0%
BITSFR53             0      0       0      54        0.0%
SFR53                0      0       0      54        0.0%
BITBANK25           20      0       0      55        0.0%
BITSFR54             0      0       0      55        0.0%
SFR54                0      0       0      55        0.0%
BANK25              20      0       0      56        0.0%
BITSFR55             0      0       0      56        0.0%
SFR55                0      0       0      56        0.0%
BITSFR56             0      0       0      57        0.0%
SFR56                0      0       0      57        0.0%
DATA                 0      0      26      57        0.0%
BITSFR57             0      0       0      58        0.0%
SFR57                0      0       0      58        0.0%
BITSFR58             0      0       0      59        0.0%
SFR58                0      0       0      59        0.0%
BITSFR59             0      0       0      60        0.0%
SFR59                0      0       0      60        0.0%
BITSFR60             0      0       0      61        0.0%
SFR60                0      0       0      61        0.0%
BITSFR61             0      0       0      62        0.0%
SFR61                0      0       0      62        0.0%
BITSFR62             0      0       0      63        0.0%
SFR62                0      0       0      63        0.0%
BITSFR63             0      0       0      64        0.0%
SFR63                0      0       0      64        0.0%


Microchip Technology PIC Macro Assembler V2.05 build -831301201 
Symbol Table                                                                                   Sat Mar 28 00:37:48 2020

                             l70 003B                               l71 0041                               l80 0077  
                             l72 0047                               l81 007D                               l73 004D  
                             l90 00DF                               l82 0083                               l74 0053  
                             l66 0029                               l91 00E2                               l83 0089  
                             l75 0059                               l92 00E5                               l76 005F  
                             l68 002F                               l93 00E8                               l77 0065  
                             l69 0035                               l94 00EB                               l78 006B  
                             l95 00EE                               l79 0071                               l96 00F1  
                             l88 00DC                               l97 00F4                               l98 00F7  
                             l99 00FA                              l100 00FD                              l101 0100  
                            l102 0103                              l103 0106                              l104 0109  
                            l112 02E6                              l105 010C                              l151 0254  
                            l820 025B                              l840 0271                              l832 0268  
                            l824 025F                              l816 0257                              l860 0289  
                            l852 0281                              l844 0276                              l836 026D  
                            l828 0264                              l880 02A4                              l872 0299  
                            l864 028E                              l856 0285                              l848 027C  
                            l876 029E                              l868 0295                              l886 02A9  
                            wreg 0009                             l1120 0188                             l1112 0172  
                           l1104 015C                             l1140 01BF                             l1132 01A9  
                           l1124 0193                             l1116 017D                             l1108 0167  
                           l1080 008E                             l1160 01F6                             l1152 01E0  
                           l1144 01CA                             l1136 01B4                             l1128 019E  
                           l1090 010E                             l1082 0092                             l1092 0112  
                           l1084 00DA                             l1164 0201                             l1156 01EB  
                           l1148 01D5                             l1174 0217                             l1272 021F  
                           l1168 020C                             l1184 0302                             l1274 02B1  
                           l1186 02FC                             l1276 00A4                             l1278 0124  
                           _main 02E7                             fsr0h 0005                             fsr1h 0007  
                           indf0 0000                             fsr0l 0004                             indf1 0001  
                           fsr1l 0006                             btemp 007E                             start 0011  
                          ?_main 0070                    __CFG_WDTE$OFF 0000                            _TMR0H 059D  
 defineGPIODirection@inputLength 0071                            _count 0035                  __end_of_readPin 02E7  
                          wtemp0 007E                  __initialization 0013                     __end_of_main 030B  
                         ??_main 0078                      readPin@read 0072                        ??_readPin 0070  
                   __pdataCOMMON 007B                 __end_of_writePin 0255          __end_of__initialization 0022  
                 __pcstackCOMMON 0070                       __pbssBANK0 0020     __size_of_defineGPIODirection 0134  
                     __pmaintext 02E7                       __pintentry 0004               __size_of_timer0ISR 000D  
                        __ptext1 015A                          __ptext2 0255                          __ptext3 0026  
                      ?_writePin 0070                          _readPin 0255                          clrloop0 030C  
           end_of_initialization 0022                __end_of_timer0ISR 0011                       main@F11220 007B  
                     main@F11218 007C                        _PORTAbits 000C                        _PORTBbits 000D  
                     ??_writePin 0071                        _PORTCbits 000E         defineGPIODirection@input 0076  
                      _TRISAbits 0012                        _TRISBbits 0013                        _TRISCbits 0014  
                     main@output 007A                    __pidataCOMMON 0311  defineGPIODirection@outputLength 0072  
            _defineGPIODirection 0026              start_initialization 0013        defineGPIODirection@output 0070  
           ?_defineGPIODirection 0070                        ___latbits 0003            ??_defineGPIODirection 0073  
                       ?_readPin 0070                __size_of_writePin 00FB                        _pinStates 0020  
                       _LATAbits 0018                         _LATBbits 0019                         _LATCbits 001A  
                      clear_ram0 030B                         _PIE0bits 0716                        _timer0ISR 0004  
                       _WPUAbits 1F39                         _WPUBbits 1F44                         _WPUCbits 1F4F  
                      main@input 0079             defineGPIODirection@i 0077                       ?_timer0ISR 0070  
                     _ANSELAbits 1F38                       _ANSELBbits 1F43                       _ANSELCbits 1F4E  
                     _T0CON0bits 059E                       _T0CON1bits 059F                 __size_of_readPin 0092  
                  __size_of_main 0024                         int$flags 007E                         _writePin 015A  
                     _INTCONbits 000B                     _timeTurnedOn 0031                         intlevel1 0000  
                    ??_timer0ISR 0070      __end_of_defineGPIODirection 015A                    writePin@value 0070  
                  writePin@write 0073  
