

Microchip MPLAB XC8 Assembler V2.05 build -831301201 
                                                                                               Fri Mar 27 23:59:57 2020

Microchip MPLAB XC8 C Compiler v2.05 (Free license) build 20181220022703 Og1 
     1                           	processor	16F18446
     2                           	opt	pw 120
     3                           	opt	flic
     4                           	psect	idataCOMMON,global,class=CODE,delta=2
     5                           	psect	cinit,global,class=CODE,merge=1,delta=2
     6                           	psect	dataCOMMON,global,class=COMMON,space=1,delta=1
     7                           	psect	cstackCOMMON,global,class=COMMON,space=1,delta=1
     8                           	psect	maintext,global,class=CODE,merge=1,split=1,delta=2
     9                           	psect	text1,local,class=CODE,merge=1,delta=2
    10                           	psect	text2,local,class=CODE,merge=1,delta=2
    11                           	psect	text3,local,class=CODE,merge=1,delta=2
    12                           	dabs	1,0x7E,2
    13  0000                     
    14                           ; Version 2.05
    15                           ; Generated 20/12/2018 GMT
    16                           ; 
    17                           ; Copyright © 2018, Microchip Technology Inc. and its subsidiaries ("Microchip")
    18                           ; All rights reserved.
    19                           ; 
    20                           ; This software is developed by Microchip Technology Inc. and its subsidiaries ("Microch
      +                          ip").
    21                           ; 
    22                           ; Redistribution and use in source and binary forms, with or without modification, are
    23                           ; permitted provided that the following conditions are met:
    24                           ; 
    25                           ;     1. Redistributions of source code must retain the above copyright notice, this lis
      +                          t of
    26                           ;        conditions and the following disclaimer.
    27                           ; 
    28                           ;     2. Redistributions in binary form must reproduce the above copyright notice, this 
      +                          list
    29                           ;        of conditions and the following disclaimer in the documentation and/or other
    30                           ;        materials provided with the distribution.
    31                           ; 
    32                           ;     3. Microchip's name may not be used to endorse or promote products derived from th
      +                          is
    33                           ;        software without specific prior written permission.
    34                           ; 
    35                           ; THIS SOFTWARE IS PROVIDED BY MICROCHIP "AS IS" AND ANY EXPRESS OR IMPLIED WARRANTIES,
    36                           ; INCLUDING, BUT NOT LIMITED TO, THE IMPLIED WARRANTIES OF MERCHANTABILITY AND FITNESS F
      +                          OR
    37                           ; PURPOSE ARE DISCLAIMED.  IN NO EVENT SHALL MICROCHIP BE LIABLE FOR ANY DIRECT, INDIREC
      +                          T,
    38                           ; INCIDENTAL, SPECIAL, EXEMPLARY, OR CONSEQUENTIAL DAMAGES (INCLUDING BUT NOT LIMITED TO
    39                           ; PROCUREMENT OF SUBSTITUTE GOODS OR SERVICES; LOSS OF USE, DATA OR PROFITS; OR BUSINESS
    40                           ; INTERRUPTION) HOWSOEVER CAUSED AND ON ANY THEORY OF LIABILITY, WHETHER IN CONTRACT, ST
      +                          RICT
    41                           ; LIABILITY, OR TORT (INCLUDING NEGLIGENCE OR OTHERWISE) ARISING IN ANY WAY OUT OF THE U
      +                          SE OF
    42                           ; THIS SOFTWARE, EVEN IF ADVISED OF THE POSSIBILITY OF SUCH DAMAGE.
    43                           ; 
    44                           ; 
    45                           ; Code-generator required, PIC16F18446 Definitions
    46                           ; 
    47                           ; SFR Addresses
    48  0000                     	;# 
    49  0001                     	;# 
    50  0002                     	;# 
    51  0003                     	;# 
    52  0004                     	;# 
    53  0005                     	;# 
    54  0006                     	;# 
    55  0007                     	;# 
    56  0008                     	;# 
    57  0009                     	;# 
    58  000A                     	;# 
    59  000B                     	;# 
    60  000C                     	;# 
    61  000D                     	;# 
    62  000E                     	;# 
    63  0012                     	;# 
    64  0013                     	;# 
    65  0014                     	;# 
    66  0018                     	;# 
    67  0019                     	;# 
    68  001A                     	;# 
    69  008C                     	;# 
    70  008C                     	;# 
    71  008D                     	;# 
    72  008E                     	;# 
    73  008E                     	;# 
    74  008F                     	;# 
    75  0090                     	;# 
    76  0090                     	;# 
    77  0091                     	;# 
    78  0092                     	;# 
    79  0092                     	;# 
    80  0093                     	;# 
    81  0094                     	;# 
    82  0094                     	;# 
    83  0095                     	;# 
    84  0096                     	;# 
    85  0096                     	;# 
    86  0097                     	;# 
    87  0098                     	;# 
    88  0099                     	;# 
    89  009A                     	;# 
    90  009B                     	;# 
    91  009B                     	;# 
    92  009C                     	;# 
    93  009D                     	;# 
    94  009D                     	;# 
    95  009E                     	;# 
    96  009F                     	;# 
    97  010C                     	;# 
    98  010C                     	;# 
    99  010D                     	;# 
   100  010E                     	;# 
   101  010F                     	;# 
   102  010F                     	;# 
   103  0110                     	;# 
   104  0111                     	;# 
   105  0112                     	;# 
   106  0113                     	;# 
   107  0114                     	;# 
   108  0115                     	;# 
   109  0116                     	;# 
   110  0117                     	;# 
   111  0118                     	;# 
   112  0119                     	;# 
   113  0119                     	;# 
   114  0119                     	;# 
   115  011A                     	;# 
   116  011A                     	;# 
   117  011A                     	;# 
   118  011B                     	;# 
   119  011B                     	;# 
   120  011B                     	;# 
   121  011B                     	;# 
   122  011B                     	;# 
   123  011C                     	;# 
   124  011C                     	;# 
   125  011C                     	;# 
   126  011D                     	;# 
   127  011D                     	;# 
   128  011D                     	;# 
   129  011E                     	;# 
   130  011E                     	;# 
   131  011E                     	;# 
   132  011F                     	;# 
   133  011F                     	;# 
   134  011F                     	;# 
   135  011F                     	;# 
   136  011F                     	;# 
   137  018C                     	;# 
   138  018D                     	;# 
   139  018E                     	;# 
   140  018F                     	;# 
   141  0190                     	;# 
   142  0191                     	;# 
   143  0192                     	;# 
   144  0196                     	;# 
   145  0197                     	;# 
   146  0198                     	;# 
   147  0199                     	;# 
   148  019A                     	;# 
   149  019B                     	;# 
   150  019C                     	;# 
   151  020C                     	;# 
   152  020D                     	;# 
   153  020E                     	;# 
   154  020E                     	;# 
   155  020F                     	;# 
   156  020F                     	;# 
   157  0210                     	;# 
   158  0210                     	;# 
   159  0211                     	;# 
   160  0211                     	;# 
   161  0212                     	;# 
   162  0213                     	;# 
   163  0214                     	;# 
   164  0214                     	;# 
   165  0215                     	;# 
   166  0215                     	;# 
   167  0216                     	;# 
   168  0216                     	;# 
   169  0217                     	;# 
   170  0217                     	;# 
   171  0218                     	;# 
   172  0219                     	;# 
   173  021A                     	;# 
   174  021A                     	;# 
   175  021B                     	;# 
   176  021B                     	;# 
   177  021C                     	;# 
   178  021C                     	;# 
   179  021D                     	;# 
   180  021D                     	;# 
   181  021E                     	;# 
   182  021F                     	;# 
   183  028C                     	;# 
   184  028C                     	;# 
   185  028D                     	;# 
   186  028D                     	;# 
   187  028E                     	;# 
   188  028F                     	;# 
   189  0290                     	;# 
   190  0291                     	;# 
   191  0292                     	;# 
   192  0292                     	;# 
   193  0293                     	;# 
   194  0293                     	;# 
   195  0294                     	;# 
   196  0295                     	;# 
   197  0296                     	;# 
   198  0297                     	;# 
   199  0298                     	;# 
   200  0298                     	;# 
   201  0299                     	;# 
   202  0299                     	;# 
   203  029A                     	;# 
   204  029B                     	;# 
   205  029C                     	;# 
   206  029D                     	;# 
   207  029F                     	;# 
   208  030C                     	;# 
   209  030C                     	;# 
   210  030D                     	;# 
   211  030E                     	;# 
   212  030F                     	;# 
   213  0310                     	;# 
   214  0310                     	;# 
   215  0311                     	;# 
   216  0312                     	;# 
   217  0313                     	;# 
   218  0314                     	;# 
   219  0314                     	;# 
   220  0315                     	;# 
   221  0316                     	;# 
   222  0317                     	;# 
   223  0318                     	;# 
   224  0318                     	;# 
   225  0319                     	;# 
   226  031A                     	;# 
   227  031B                     	;# 
   228  038C                     	;# 
   229  038C                     	;# 
   230  038D                     	;# 
   231  038E                     	;# 
   232  0390                     	;# 
   233  0390                     	;# 
   234  0391                     	;# 
   235  0392                     	;# 
   236  048C                     	;# 
   237  048C                     	;# 
   238  048D                     	;# 
   239  048E                     	;# 
   240  048F                     	;# 
   241  048F                     	;# 
   242  0490                     	;# 
   243  0491                     	;# 
   244  0492                     	;# 
   245  0492                     	;# 
   246  0493                     	;# 
   247  0494                     	;# 
   248  0495                     	;# 
   249  0495                     	;# 
   250  0496                     	;# 
   251  0497                     	;# 
   252  0498                     	;# 
   253  0499                     	;# 
   254  049A                     	;# 
   255  049B                     	;# 
   256  049C                     	;# 
   257  049D                     	;# 
   258  058C                     	;# 
   259  058C                     	;# 
   260  058D                     	;# 
   261  058E                     	;# 
   262  058F                     	;# 
   263  058F                     	;# 
   264  0590                     	;# 
   265  0591                     	;# 
   266  0592                     	;# 
   267  0593                     	;# 
   268  059C                     	;# 
   269  059C                     	;# 
   270  059D                     	;# 
   271  059D                     	;# 
   272  059E                     	;# 
   273  059F                     	;# 
   274  060C                     	;# 
   275  060C                     	;# 
   276  060D                     	;# 
   277  060D                     	;# 
   278  060E                     	;# 
   279  060F                     	;# 
   280  0610                     	;# 
   281  0611                     	;# 
   282  0612                     	;# 
   283  0613                     	;# 
   284  0614                     	;# 
   285  0616                     	;# 
   286  0616                     	;# 
   287  0617                     	;# 
   288  0617                     	;# 
   289  0618                     	;# 
   290  0619                     	;# 
   291  061A                     	;# 
   292  061B                     	;# 
   293  061C                     	;# 
   294  061D                     	;# 
   295  061E                     	;# 
   296  070C                     	;# 
   297  070D                     	;# 
   298  070E                     	;# 
   299  070F                     	;# 
   300  0710                     	;# 
   301  0711                     	;# 
   302  0712                     	;# 
   303  0713                     	;# 
   304  0714                     	;# 
   305  0716                     	;# 
   306  0717                     	;# 
   307  0718                     	;# 
   308  0719                     	;# 
   309  071A                     	;# 
   310  071B                     	;# 
   311  071C                     	;# 
   312  071D                     	;# 
   313  071E                     	;# 
   314  0796                     	;# 
   315  0797                     	;# 
   316  0798                     	;# 
   317  0799                     	;# 
   318  079A                     	;# 
   319  079B                     	;# 
   320  079C                     	;# 
   321  079D                     	;# 
   322  080C                     	;# 
   323  080D                     	;# 
   324  080E                     	;# 
   325  080F                     	;# 
   326  0810                     	;# 
   327  0811                     	;# 
   328  0812                     	;# 
   329  0813                     	;# 
   330  0814                     	;# 
   331  081A                     	;# 
   332  081A                     	;# 
   333  081B                     	;# 
   334  081C                     	;# 
   335  081C                     	;# 
   336  081D                     	;# 
   337  081E                     	;# 
   338  081F                     	;# 
   339  088C                     	;# 
   340  088D                     	;# 
   341  088E                     	;# 
   342  088F                     	;# 
   343  0890                     	;# 
   344  0891                     	;# 
   345  0892                     	;# 
   346  0893                     	;# 
   347  0895                     	;# 
   348  0896                     	;# 
   349  0897                     	;# 
   350  0898                     	;# 
   351  0899                     	;# 
   352  089A                     	;# 
   353  089B                     	;# 
   354  090C                     	;# 
   355  090E                     	;# 
   356  090F                     	;# 
   357  091F                     	;# 
   358  098F                     	;# 
   359  098F                     	;# 
   360  0990                     	;# 
   361  0991                     	;# 
   362  0992                     	;# 
   363  0993                     	;# 
   364  0994                     	;# 
   365  0995                     	;# 
   366  0996                     	;# 
   367  0997                     	;# 
   368  1E0F                     	;# 
   369  1E10                     	;# 
   370  1E11                     	;# 
   371  1E12                     	;# 
   372  1E13                     	;# 
   373  1E14                     	;# 
   374  1E15                     	;# 
   375  1E16                     	;# 
   376  1E17                     	;# 
   377  1E18                     	;# 
   378  1E19                     	;# 
   379  1E1A                     	;# 
   380  1E1B                     	;# 
   381  1E1C                     	;# 
   382  1E1D                     	;# 
   383  1E1E                     	;# 
   384  1E1F                     	;# 
   385  1E20                     	;# 
   386  1E21                     	;# 
   387  1E22                     	;# 
   388  1E23                     	;# 
   389  1E24                     	;# 
   390  1E25                     	;# 
   391  1E26                     	;# 
   392  1E27                     	;# 
   393  1E28                     	;# 
   394  1E29                     	;# 
   395  1E2A                     	;# 
   396  1E2B                     	;# 
   397  1E2C                     	;# 
   398  1E2D                     	;# 
   399  1E2E                     	;# 
   400  1E2F                     	;# 
   401  1E30                     	;# 
   402  1E31                     	;# 
   403  1E32                     	;# 
   404  1E33                     	;# 
   405  1E34                     	;# 
   406  1E35                     	;# 
   407  1E36                     	;# 
   408  1E37                     	;# 
   409  1E8F                     	;# 
   410  1E90                     	;# 
   411  1E91                     	;# 
   412  1E92                     	;# 
   413  1E93                     	;# 
   414  1E94                     	;# 
   415  1E95                     	;# 
   416  1E96                     	;# 
   417  1E97                     	;# 
   418  1E9C                     	;# 
   419  1E9D                     	;# 
   420  1E9E                     	;# 
   421  1EA1                     	;# 
   422  1EA2                     	;# 
   423  1EA3                     	;# 
   424  1EA4                     	;# 
   425  1EA9                     	;# 
   426  1EAA                     	;# 
   427  1EB1                     	;# 
   428  1EB2                     	;# 
   429  1EB8                     	;# 
   430  1EB9                     	;# 
   431  1EBA                     	;# 
   432  1EBB                     	;# 
   433  1EBC                     	;# 
   434  1EBD                     	;# 
   435  1EBE                     	;# 
   436  1EC3                     	;# 
   437  1EC5                     	;# 
   438  1EC6                     	;# 
   439  1EC7                     	;# 
   440  1EC8                     	;# 
   441  1EC9                     	;# 
   442  1ECA                     	;# 
   443  1ECB                     	;# 
   444  1ECB                     	;# 
   445  1ECB                     	;# 
   446  1ECC                     	;# 
   447  1ECC                     	;# 
   448  1ECC                     	;# 
   449  1F10                     	;# 
   450  1F11                     	;# 
   451  1F12                     	;# 
   452  1F14                     	;# 
   453  1F15                     	;# 
   454  1F1C                     	;# 
   455  1F1D                     	;# 
   456  1F1E                     	;# 
   457  1F1F                     	;# 
   458  1F20                     	;# 
   459  1F21                     	;# 
   460  1F22                     	;# 
   461  1F23                     	;# 
   462  1F24                     	;# 
   463  1F25                     	;# 
   464  1F26                     	;# 
   465  1F27                     	;# 
   466  1F38                     	;# 
   467  1F39                     	;# 
   468  1F3A                     	;# 
   469  1F3B                     	;# 
   470  1F3C                     	;# 
   471  1F3D                     	;# 
   472  1F3E                     	;# 
   473  1F3F                     	;# 
   474  1F43                     	;# 
   475  1F44                     	;# 
   476  1F45                     	;# 
   477  1F46                     	;# 
   478  1F47                     	;# 
   479  1F48                     	;# 
   480  1F49                     	;# 
   481  1F4A                     	;# 
   482  1F4E                     	;# 
   483  1F4F                     	;# 
   484  1F50                     	;# 
   485  1F51                     	;# 
   486  1F52                     	;# 
   487  1F53                     	;# 
   488  1F54                     	;# 
   489  1F55                     	;# 
   490  1FE4                     	;# 
   491  1FE5                     	;# 
   492  1FE6                     	;# 
   493  1FE7                     	;# 
   494  1FE8                     	;# 
   495  1FE8                     	;# 
   496  1FE9                     	;# 
   497  1FEA                     	;# 
   498  1FEB                     	;# 
   499  1FED                     	;# 
   500  1FEE                     	;# 
   501  1FEF                     	;# 
   502  0000                     	;# 
   503  0001                     	;# 
   504  0002                     	;# 
   505  0003                     	;# 
   506  0004                     	;# 
   507  0005                     	;# 
   508  0006                     	;# 
   509  0007                     	;# 
   510  0008                     	;# 
   511  0009                     	;# 
   512  000A                     	;# 
   513  000B                     	;# 
   514  000C                     	;# 
   515  000D                     	;# 
   516  000E                     	;# 
   517  0012                     	;# 
   518  0013                     	;# 
   519  0014                     	;# 
   520  0018                     	;# 
   521  0019                     	;# 
   522  001A                     	;# 
   523  008C                     	;# 
   524  008C                     	;# 
   525  008D                     	;# 
   526  008E                     	;# 
   527  008E                     	;# 
   528  008F                     	;# 
   529  0090                     	;# 
   530  0090                     	;# 
   531  0091                     	;# 
   532  0092                     	;# 
   533  0092                     	;# 
   534  0093                     	;# 
   535  0094                     	;# 
   536  0094                     	;# 
   537  0095                     	;# 
   538  0096                     	;# 
   539  0096                     	;# 
   540  0097                     	;# 
   541  0098                     	;# 
   542  0099                     	;# 
   543  009A                     	;# 
   544  009B                     	;# 
   545  009B                     	;# 
   546  009C                     	;# 
   547  009D                     	;# 
   548  009D                     	;# 
   549  009E                     	;# 
   550  009F                     	;# 
   551  010C                     	;# 
   552  010C                     	;# 
   553  010D                     	;# 
   554  010E                     	;# 
   555  010F                     	;# 
   556  010F                     	;# 
   557  0110                     	;# 
   558  0111                     	;# 
   559  0112                     	;# 
   560  0113                     	;# 
   561  0114                     	;# 
   562  0115                     	;# 
   563  0116                     	;# 
   564  0117                     	;# 
   565  0118                     	;# 
   566  0119                     	;# 
   567  0119                     	;# 
   568  0119                     	;# 
   569  011A                     	;# 
   570  011A                     	;# 
   571  011A                     	;# 
   572  011B                     	;# 
   573  011B                     	;# 
   574  011B                     	;# 
   575  011B                     	;# 
   576  011B                     	;# 
   577  011C                     	;# 
   578  011C                     	;# 
   579  011C                     	;# 
   580  011D                     	;# 
   581  011D                     	;# 
   582  011D                     	;# 
   583  011E                     	;# 
   584  011E                     	;# 
   585  011E                     	;# 
   586  011F                     	;# 
   587  011F                     	;# 
   588  011F                     	;# 
   589  011F                     	;# 
   590  011F                     	;# 
   591  018C                     	;# 
   592  018D                     	;# 
   593  018E                     	;# 
   594  018F                     	;# 
   595  0190                     	;# 
   596  0191                     	;# 
   597  0192                     	;# 
   598  0196                     	;# 
   599  0197                     	;# 
   600  0198                     	;# 
   601  0199                     	;# 
   602  019A                     	;# 
   603  019B                     	;# 
   604  019C                     	;# 
   605  020C                     	;# 
   606  020D                     	;# 
   607  020E                     	;# 
   608  020E                     	;# 
   609  020F                     	;# 
   610  020F                     	;# 
   611  0210                     	;# 
   612  0210                     	;# 
   613  0211                     	;# 
   614  0211                     	;# 
   615  0212                     	;# 
   616  0213                     	;# 
   617  0214                     	;# 
   618  0214                     	;# 
   619  0215                     	;# 
   620  0215                     	;# 
   621  0216                     	;# 
   622  0216                     	;# 
   623  0217                     	;# 
   624  0217                     	;# 
   625  0218                     	;# 
   626  0219                     	;# 
   627  021A                     	;# 
   628  021A                     	;# 
   629  021B                     	;# 
   630  021B                     	;# 
   631  021C                     	;# 
   632  021C                     	;# 
   633  021D                     	;# 
   634  021D                     	;# 
   635  021E                     	;# 
   636  021F                     	;# 
   637  028C                     	;# 
   638  028C                     	;# 
   639  028D                     	;# 
   640  028D                     	;# 
   641  028E                     	;# 
   642  028F                     	;# 
   643  0290                     	;# 
   644  0291                     	;# 
   645  0292                     	;# 
   646  0292                     	;# 
   647  0293                     	;# 
   648  0293                     	;# 
   649  0294                     	;# 
   650  0295                     	;# 
   651  0296                     	;# 
   652  0297                     	;# 
   653  0298                     	;# 
   654  0298                     	;# 
   655  0299                     	;# 
   656  0299                     	;# 
   657  029A                     	;# 
   658  029B                     	;# 
   659  029C                     	;# 
   660  029D                     	;# 
   661  029F                     	;# 
   662  030C                     	;# 
   663  030C                     	;# 
   664  030D                     	;# 
   665  030E                     	;# 
   666  030F                     	;# 
   667  0310                     	;# 
   668  0310                     	;# 
   669  0311                     	;# 
   670  0312                     	;# 
   671  0313                     	;# 
   672  0314                     	;# 
   673  0314                     	;# 
   674  0315                     	;# 
   675  0316                     	;# 
   676  0317                     	;# 
   677  0318                     	;# 
   678  0318                     	;# 
   679  0319                     	;# 
   680  031A                     	;# 
   681  031B                     	;# 
   682  038C                     	;# 
   683  038C                     	;# 
   684  038D                     	;# 
   685  038E                     	;# 
   686  0390                     	;# 
   687  0390                     	;# 
   688  0391                     	;# 
   689  0392                     	;# 
   690  048C                     	;# 
   691  048C                     	;# 
   692  048D                     	;# 
   693  048E                     	;# 
   694  048F                     	;# 
   695  048F                     	;# 
   696  0490                     	;# 
   697  0491                     	;# 
   698  0492                     	;# 
   699  0492                     	;# 
   700  0493                     	;# 
   701  0494                     	;# 
   702  0495                     	;# 
   703  0495                     	;# 
   704  0496                     	;# 
   705  0497                     	;# 
   706  0498                     	;# 
   707  0499                     	;# 
   708  049A                     	;# 
   709  049B                     	;# 
   710  049C                     	;# 
   711  049D                     	;# 
   712  058C                     	;# 
   713  058C                     	;# 
   714  058D                     	;# 
   715  058E                     	;# 
   716  058F                     	;# 
   717  058F                     	;# 
   718  0590                     	;# 
   719  0591                     	;# 
   720  0592                     	;# 
   721  0593                     	;# 
   722  059C                     	;# 
   723  059C                     	;# 
   724  059D                     	;# 
   725  059D                     	;# 
   726  059E                     	;# 
   727  059F                     	;# 
   728  060C                     	;# 
   729  060C                     	;# 
   730  060D                     	;# 
   731  060D                     	;# 
   732  060E                     	;# 
   733  060F                     	;# 
   734  0610                     	;# 
   735  0611                     	;# 
   736  0612                     	;# 
   737  0613                     	;# 
   738  0614                     	;# 
   739  0616                     	;# 
   740  0616                     	;# 
   741  0617                     	;# 
   742  0617                     	;# 
   743  0618                     	;# 
   744  0619                     	;# 
   745  061A                     	;# 
   746  061B                     	;# 
   747  061C                     	;# 
   748  061D                     	;# 
   749  061E                     	;# 
   750  070C                     	;# 
   751  070D                     	;# 
   752  070E                     	;# 
   753  070F                     	;# 
   754  0710                     	;# 
   755  0711                     	;# 
   756  0712                     	;# 
   757  0713                     	;# 
   758  0714                     	;# 
   759  0716                     	;# 
   760  0717                     	;# 
   761  0718                     	;# 
   762  0719                     	;# 
   763  071A                     	;# 
   764  071B                     	;# 
   765  071C                     	;# 
   766  071D                     	;# 
   767  071E                     	;# 
   768  0796                     	;# 
   769  0797                     	;# 
   770  0798                     	;# 
   771  0799                     	;# 
   772  079A                     	;# 
   773  079B                     	;# 
   774  079C                     	;# 
   775  079D                     	;# 
   776  080C                     	;# 
   777  080D                     	;# 
   778  080E                     	;# 
   779  080F                     	;# 
   780  0810                     	;# 
   781  0811                     	;# 
   782  0812                     	;# 
   783  0813                     	;# 
   784  0814                     	;# 
   785  081A                     	;# 
   786  081A                     	;# 
   787  081B                     	;# 
   788  081C                     	;# 
   789  081C                     	;# 
   790  081D                     	;# 
   791  081E                     	;# 
   792  081F                     	;# 
   793  088C                     	;# 
   794  088D                     	;# 
   795  088E                     	;# 
   796  088F                     	;# 
   797  0890                     	;# 
   798  0891                     	;# 
   799  0892                     	;# 
   800  0893                     	;# 
   801  0895                     	;# 
   802  0896                     	;# 
   803  0897                     	;# 
   804  0898                     	;# 
   805  0899                     	;# 
   806  089A                     	;# 
   807  089B                     	;# 
   808  090C                     	;# 
   809  090E                     	;# 
   810  090F                     	;# 
   811  091F                     	;# 
   812  098F                     	;# 
   813  098F                     	;# 
   814  0990                     	;# 
   815  0991                     	;# 
   816  0992                     	;# 
   817  0993                     	;# 
   818  0994                     	;# 
   819  0995                     	;# 
   820  0996                     	;# 
   821  0997                     	;# 
   822  1E0F                     	;# 
   823  1E10                     	;# 
   824  1E11                     	;# 
   825  1E12                     	;# 
   826  1E13                     	;# 
   827  1E14                     	;# 
   828  1E15                     	;# 
   829  1E16                     	;# 
   830  1E17                     	;# 
   831  1E18                     	;# 
   832  1E19                     	;# 
   833  1E1A                     	;# 
   834  1E1B                     	;# 
   835  1E1C                     	;# 
   836  1E1D                     	;# 
   837  1E1E                     	;# 
   838  1E1F                     	;# 
   839  1E20                     	;# 
   840  1E21                     	;# 
   841  1E22                     	;# 
   842  1E23                     	;# 
   843  1E24                     	;# 
   844  1E25                     	;# 
   845  1E26                     	;# 
   846  1E27                     	;# 
   847  1E28                     	;# 
   848  1E29                     	;# 
   849  1E2A                     	;# 
   850  1E2B                     	;# 
   851  1E2C                     	;# 
   852  1E2D                     	;# 
   853  1E2E                     	;# 
   854  1E2F                     	;# 
   855  1E30                     	;# 
   856  1E31                     	;# 
   857  1E32                     	;# 
   858  1E33                     	;# 
   859  1E34                     	;# 
   860  1E35                     	;# 
   861  1E36                     	;# 
   862  1E37                     	;# 
   863  1E8F                     	;# 
   864  1E90                     	;# 
   865  1E91                     	;# 
   866  1E92                     	;# 
   867  1E93                     	;# 
   868  1E94                     	;# 
   869  1E95                     	;# 
   870  1E96                     	;# 
   871  1E97                     	;# 
   872  1E9C                     	;# 
   873  1E9D                     	;# 
   874  1E9E                     	;# 
   875  1EA1                     	;# 
   876  1EA2                     	;# 
   877  1EA3                     	;# 
   878  1EA4                     	;# 
   879  1EA9                     	;# 
   880  1EAA                     	;# 
   881  1EB1                     	;# 
   882  1EB2                     	;# 
   883  1EB8                     	;# 
   884  1EB9                     	;# 
   885  1EBA                     	;# 
   886  1EBB                     	;# 
   887  1EBC                     	;# 
   888  1EBD                     	;# 
   889  1EBE                     	;# 
   890  1EC3                     	;# 
   891  1EC5                     	;# 
   892  1EC6                     	;# 
   893  1EC7                     	;# 
   894  1EC8                     	;# 
   895  1EC9                     	;# 
   896  1ECA                     	;# 
   897  1ECB                     	;# 
   898  1ECB                     	;# 
   899  1ECB                     	;# 
   900  1ECC                     	;# 
   901  1ECC                     	;# 
   902  1ECC                     	;# 
   903  1F10                     	;# 
   904  1F11                     	;# 
   905  1F12                     	;# 
   906  1F14                     	;# 
   907  1F15                     	;# 
   908  1F1C                     	;# 
   909  1F1D                     	;# 
   910  1F1E                     	;# 
   911  1F1F                     	;# 
   912  1F20                     	;# 
   913  1F21                     	;# 
   914  1F22                     	;# 
   915  1F23                     	;# 
   916  1F24                     	;# 
   917  1F25                     	;# 
   918  1F26                     	;# 
   919  1F27                     	;# 
   920  1F38                     	;# 
   921  1F39                     	;# 
   922  1F3A                     	;# 
   923  1F3B                     	;# 
   924  1F3C                     	;# 
   925  1F3D                     	;# 
   926  1F3E                     	;# 
   927  1F3F                     	;# 
   928  1F43                     	;# 
   929  1F44                     	;# 
   930  1F45                     	;# 
   931  1F46                     	;# 
   932  1F47                     	;# 
   933  1F48                     	;# 
   934  1F49                     	;# 
   935  1F4A                     	;# 
   936  1F4E                     	;# 
   937  1F4F                     	;# 
   938  1F50                     	;# 
   939  1F51                     	;# 
   940  1F52                     	;# 
   941  1F53                     	;# 
   942  1F54                     	;# 
   943  1F55                     	;# 
   944  1FE4                     	;# 
   945  1FE5                     	;# 
   946  1FE6                     	;# 
   947  1FE7                     	;# 
   948  1FE8                     	;# 
   949  1FE8                     	;# 
   950  1FE9                     	;# 
   951  1FEA                     	;# 
   952  1FEB                     	;# 
   953  1FED                     	;# 
   954  1FEE                     	;# 
   955  1FEF                     	;# 
   956  0000                     	;# 
   957  0001                     	;# 
   958  0002                     	;# 
   959  0003                     	;# 
   960  0004                     	;# 
   961  0005                     	;# 
   962  0006                     	;# 
   963  0007                     	;# 
   964  0008                     	;# 
   965  0009                     	;# 
   966  000A                     	;# 
   967  000B                     	;# 
   968  000C                     	;# 
   969  000D                     	;# 
   970  000E                     	;# 
   971  0012                     	;# 
   972  0013                     	;# 
   973  0014                     	;# 
   974  0018                     	;# 
   975  0019                     	;# 
   976  001A                     	;# 
   977  008C                     	;# 
   978  008C                     	;# 
   979  008D                     	;# 
   980  008E                     	;# 
   981  008E                     	;# 
   982  008F                     	;# 
   983  0090                     	;# 
   984  0090                     	;# 
   985  0091                     	;# 
   986  0092                     	;# 
   987  0092                     	;# 
   988  0093                     	;# 
   989  0094                     	;# 
   990  0094                     	;# 
   991  0095                     	;# 
   992  0096                     	;# 
   993  0096                     	;# 
   994  0097                     	;# 
   995  0098                     	;# 
   996  0099                     	;# 
   997  009A                     	;# 
   998  009B                     	;# 
   999  009B                     	;# 
  1000  009C                     	;# 
  1001  009D                     	;# 
  1002  009D                     	;# 
  1003  009E                     	;# 
  1004  009F                     	;# 
  1005  010C                     	;# 
  1006  010C                     	;# 
  1007  010D                     	;# 
  1008  010E                     	;# 
  1009  010F                     	;# 
  1010  010F                     	;# 
  1011  0110                     	;# 
  1012  0111                     	;# 
  1013  0112                     	;# 
  1014  0113                     	;# 
  1015  0114                     	;# 
  1016  0115                     	;# 
  1017  0116                     	;# 
  1018  0117                     	;# 
  1019  0118                     	;# 
  1020  0119                     	;# 
  1021  0119                     	;# 
  1022  0119                     	;# 
  1023  011A                     	;# 
  1024  011A                     	;# 
  1025  011A                     	;# 
  1026  011B                     	;# 
  1027  011B                     	;# 
  1028  011B                     	;# 
  1029  011B                     	;# 
  1030  011B                     	;# 
  1031  011C                     	;# 
  1032  011C                     	;# 
  1033  011C                     	;# 
  1034  011D                     	;# 
  1035  011D                     	;# 
  1036  011D                     	;# 
  1037  011E                     	;# 
  1038  011E                     	;# 
  1039  011E                     	;# 
  1040  011F                     	;# 
  1041  011F                     	;# 
  1042  011F                     	;# 
  1043  011F                     	;# 
  1044  011F                     	;# 
  1045  018C                     	;# 
  1046  018D                     	;# 
  1047  018E                     	;# 
  1048  018F                     	;# 
  1049  0190                     	;# 
  1050  0191                     	;# 
  1051  0192                     	;# 
  1052  0196                     	;# 
  1053  0197                     	;# 
  1054  0198                     	;# 
  1055  0199                     	;# 
  1056  019A                     	;# 
  1057  019B                     	;# 
  1058  019C                     	;# 
  1059  020C                     	;# 
  1060  020D                     	;# 
  1061  020E                     	;# 
  1062  020E                     	;# 
  1063  020F                     	;# 
  1064  020F                     	;# 
  1065  0210                     	;# 
  1066  0210                     	;# 
  1067  0211                     	;# 
  1068  0211                     	;# 
  1069  0212                     	;# 
  1070  0213                     	;# 
  1071  0214                     	;# 
  1072  0214                     	;# 
  1073  0215                     	;# 
  1074  0215                     	;# 
  1075  0216                     	;# 
  1076  0216                     	;# 
  1077  0217                     	;# 
  1078  0217                     	;# 
  1079  0218                     	;# 
  1080  0219                     	;# 
  1081  021A                     	;# 
  1082  021A                     	;# 
  1083  021B                     	;# 
  1084  021B                     	;# 
  1085  021C                     	;# 
  1086  021C                     	;# 
  1087  021D                     	;# 
  1088  021D                     	;# 
  1089  021E                     	;# 
  1090  021F                     	;# 
  1091  028C                     	;# 
  1092  028C                     	;# 
  1093  028D                     	;# 
  1094  028D                     	;# 
  1095  028E                     	;# 
  1096  028F                     	;# 
  1097  0290                     	;# 
  1098  0291                     	;# 
  1099  0292                     	;# 
  1100  0292                     	;# 
  1101  0293                     	;# 
  1102  0293                     	;# 
  1103  0294                     	;# 
  1104  0295                     	;# 
  1105  0296                     	;# 
  1106  0297                     	;# 
  1107  0298                     	;# 
  1108  0298                     	;# 
  1109  0299                     	;# 
  1110  0299                     	;# 
  1111  029A                     	;# 
  1112  029B                     	;# 
  1113  029C                     	;# 
  1114  029D                     	;# 
  1115  029F                     	;# 
  1116  030C                     	;# 
  1117  030C                     	;# 
  1118  030D                     	;# 
  1119  030E                     	;# 
  1120  030F                     	;# 
  1121  0310                     	;# 
  1122  0310                     	;# 
  1123  0311                     	;# 
  1124  0312                     	;# 
  1125  0313                     	;# 
  1126  0314                     	;# 
  1127  0314                     	;# 
  1128  0315                     	;# 
  1129  0316                     	;# 
  1130  0317                     	;# 
  1131  0318                     	;# 
  1132  0318                     	;# 
  1133  0319                     	;# 
  1134  031A                     	;# 
  1135  031B                     	;# 
  1136  038C                     	;# 
  1137  038C                     	;# 
  1138  038D                     	;# 
  1139  038E                     	;# 
  1140  0390                     	;# 
  1141  0390                     	;# 
  1142  0391                     	;# 
  1143  0392                     	;# 
  1144  048C                     	;# 
  1145  048C                     	;# 
  1146  048D                     	;# 
  1147  048E                     	;# 
  1148  048F                     	;# 
  1149  048F                     	;# 
  1150  0490                     	;# 
  1151  0491                     	;# 
  1152  0492                     	;# 
  1153  0492                     	;# 
  1154  0493                     	;# 
  1155  0494                     	;# 
  1156  0495                     	;# 
  1157  0495                     	;# 
  1158  0496                     	;# 
  1159  0497                     	;# 
  1160  0498                     	;# 
  1161  0499                     	;# 
  1162  049A                     	;# 
  1163  049B                     	;# 
  1164  049C                     	;# 
  1165  049D                     	;# 
  1166  058C                     	;# 
  1167  058C                     	;# 
  1168  058D                     	;# 
  1169  058E                     	;# 
  1170  058F                     	;# 
  1171  058F                     	;# 
  1172  0590                     	;# 
  1173  0591                     	;# 
  1174  0592                     	;# 
  1175  0593                     	;# 
  1176  059C                     	;# 
  1177  059C                     	;# 
  1178  059D                     	;# 
  1179  059D                     	;# 
  1180  059E                     	;# 
  1181  059F                     	;# 
  1182  060C                     	;# 
  1183  060C                     	;# 
  1184  060D                     	;# 
  1185  060D                     	;# 
  1186  060E                     	;# 
  1187  060F                     	;# 
  1188  0610                     	;# 
  1189  0611                     	;# 
  1190  0612                     	;# 
  1191  0613                     	;# 
  1192  0614                     	;# 
  1193  0616                     	;# 
  1194  0616                     	;# 
  1195  0617                     	;# 
  1196  0617                     	;# 
  1197  0618                     	;# 
  1198  0619                     	;# 
  1199  061A                     	;# 
  1200  061B                     	;# 
  1201  061C                     	;# 
  1202  061D                     	;# 
  1203  061E                     	;# 
  1204  070C                     	;# 
  1205  070D                     	;# 
  1206  070E                     	;# 
  1207  070F                     	;# 
  1208  0710                     	;# 
  1209  0711                     	;# 
  1210  0712                     	;# 
  1211  0713                     	;# 
  1212  0714                     	;# 
  1213  0716                     	;# 
  1214  0717                     	;# 
  1215  0718                     	;# 
  1216  0719                     	;# 
  1217  071A                     	;# 
  1218  071B                     	;# 
  1219  071C                     	;# 
  1220  071D                     	;# 
  1221  071E                     	;# 
  1222  0796                     	;# 
  1223  0797                     	;# 
  1224  0798                     	;# 
  1225  0799                     	;# 
  1226  079A                     	;# 
  1227  079B                     	;# 
  1228  079C                     	;# 
  1229  079D                     	;# 
  1230  080C                     	;# 
  1231  080D                     	;# 
  1232  080E                     	;# 
  1233  080F                     	;# 
  1234  0810                     	;# 
  1235  0811                     	;# 
  1236  0812                     	;# 
  1237  0813                     	;# 
  1238  0814                     	;# 
  1239  081A                     	;# 
  1240  081A                     	;# 
  1241  081B                     	;# 
  1242  081C                     	;# 
  1243  081C                     	;# 
  1244  081D                     	;# 
  1245  081E                     	;# 
  1246  081F                     	;# 
  1247  088C                     	;# 
  1248  088D                     	;# 
  1249  088E                     	;# 
  1250  088F                     	;# 
  1251  0890                     	;# 
  1252  0891                     	;# 
  1253  0892                     	;# 
  1254  0893                     	;# 
  1255  0895                     	;# 
  1256  0896                     	;# 
  1257  0897                     	;# 
  1258  0898                     	;# 
  1259  0899                     	;# 
  1260  089A                     	;# 
  1261  089B                     	;# 
  1262  090C                     	;# 
  1263  090E                     	;# 
  1264  090F                     	;# 
  1265  091F                     	;# 
  1266  098F                     	;# 
  1267  098F                     	;# 
  1268  0990                     	;# 
  1269  0991                     	;# 
  1270  0992                     	;# 
  1271  0993                     	;# 
  1272  0994                     	;# 
  1273  0995                     	;# 
  1274  0996                     	;# 
  1275  0997                     	;# 
  1276  1E0F                     	;# 
  1277  1E10                     	;# 
  1278  1E11                     	;# 
  1279  1E12                     	;# 
  1280  1E13                     	;# 
  1281  1E14                     	;# 
  1282  1E15                     	;# 
  1283  1E16                     	;# 
  1284  1E17                     	;# 
  1285  1E18                     	;# 
  1286  1E19                     	;# 
  1287  1E1A                     	;# 
  1288  1E1B                     	;# 
  1289  1E1C                     	;# 
  1290  1E1D                     	;# 
  1291  1E1E                     	;# 
  1292  1E1F                     	;# 
  1293  1E20                     	;# 
  1294  1E21                     	;# 
  1295  1E22                     	;# 
  1296  1E23                     	;# 
  1297  1E24                     	;# 
  1298  1E25                     	;# 
  1299  1E26                     	;# 
  1300  1E27                     	;# 
  1301  1E28                     	;# 
  1302  1E29                     	;# 
  1303  1E2A                     	;# 
  1304  1E2B                     	;# 
  1305  1E2C                     	;# 
  1306  1E2D                     	;# 
  1307  1E2E                     	;# 
  1308  1E2F                     	;# 
  1309  1E30                     	;# 
  1310  1E31                     	;# 
  1311  1E32                     	;# 
  1312  1E33                     	;# 
  1313  1E34                     	;# 
  1314  1E35                     	;# 
  1315  1E36                     	;# 
  1316  1E37                     	;# 
  1317  1E8F                     	;# 
  1318  1E90                     	;# 
  1319  1E91                     	;# 
  1320  1E92                     	;# 
  1321  1E93                     	;# 
  1322  1E94                     	;# 
  1323  1E95                     	;# 
  1324  1E96                     	;# 
  1325  1E97                     	;# 
  1326  1E9C                     	;# 
  1327  1E9D                     	;# 
  1328  1E9E                     	;# 
  1329  1EA1                     	;# 
  1330  1EA2                     	;# 
  1331  1EA3                     	;# 
  1332  1EA4                     	;# 
  1333  1EA9                     	;# 
  1334  1EAA                     	;# 
  1335  1EB1                     	;# 
  1336  1EB2                     	;# 
  1337  1EB8                     	;# 
  1338  1EB9                     	;# 
  1339  1EBA                     	;# 
  1340  1EBB                     	;# 
  1341  1EBC                     	;# 
  1342  1EBD                     	;# 
  1343  1EBE                     	;# 
  1344  1EC3                     	;# 
  1345  1EC5                     	;# 
  1346  1EC6                     	;# 
  1347  1EC7                     	;# 
  1348  1EC8                     	;# 
  1349  1EC9                     	;# 
  1350  1ECA                     	;# 
  1351  1ECB                     	;# 
  1352  1ECB                     	;# 
  1353  1ECB                     	;# 
  1354  1ECC                     	;# 
  1355  1ECC                     	;# 
  1356  1ECC                     	;# 
  1357  1F10                     	;# 
  1358  1F11                     	;# 
  1359  1F12                     	;# 
  1360  1F14                     	;# 
  1361  1F15                     	;# 
  1362  1F1C                     	;# 
  1363  1F1D                     	;# 
  1364  1F1E                     	;# 
  1365  1F1F                     	;# 
  1366  1F20                     	;# 
  1367  1F21                     	;# 
  1368  1F22                     	;# 
  1369  1F23                     	;# 
  1370  1F24                     	;# 
  1371  1F25                     	;# 
  1372  1F26                     	;# 
  1373  1F27                     	;# 
  1374  1F38                     	;# 
  1375  1F39                     	;# 
  1376  1F3A                     	;# 
  1377  1F3B                     	;# 
  1378  1F3C                     	;# 
  1379  1F3D                     	;# 
  1380  1F3E                     	;# 
  1381  1F3F                     	;# 
  1382  1F43                     	;# 
  1383  1F44                     	;# 
  1384  1F45                     	;# 
  1385  1F46                     	;# 
  1386  1F47                     	;# 
  1387  1F48                     	;# 
  1388  1F49                     	;# 
  1389  1F4A                     	;# 
  1390  1F4E                     	;# 
  1391  1F4F                     	;# 
  1392  1F50                     	;# 
  1393  1F51                     	;# 
  1394  1F52                     	;# 
  1395  1F53                     	;# 
  1396  1F54                     	;# 
  1397  1F55                     	;# 
  1398  1FE4                     	;# 
  1399  1FE5                     	;# 
  1400  1FE6                     	;# 
  1401  1FE7                     	;# 
  1402  1FE8                     	;# 
  1403  1FE8                     	;# 
  1404  1FE9                     	;# 
  1405  1FEA                     	;# 
  1406  1FEB                     	;# 
  1407  1FED                     	;# 
  1408  1FEE                     	;# 
  1409  1FEF                     	;# 
  1410                           
  1411                           	psect	idataCOMMON
  1412  0548                     __pidataCOMMON:	
  1413                           
  1414                           ;initializer for main@F11215
  1415  0548  3410               	retlw	16
  1416                           
  1417                           ;initializer for main@F11213
  1418  0549  3408               	retlw	8
  1419  001A                     _LATCbits	set	26
  1420  0019                     _LATBbits	set	25
  1421  0018                     _LATAbits	set	24
  1422  000E                     _PORTCbits	set	14
  1423  000D                     _PORTBbits	set	13
  1424  000C                     _PORTAbits	set	12
  1425  0014                     _TRISCbits	set	20
  1426  0013                     _TRISBbits	set	19
  1427  0012                     _TRISAbits	set	18
  1428  1F4F                     _WPUCbits	set	8015
  1429  1F4E                     _ANSELCbits	set	8014
  1430  1F44                     _WPUBbits	set	8004
  1431  1F43                     _ANSELBbits	set	8003
  1432  1F39                     _WPUAbits	set	7993
  1433  1F38                     _ANSELAbits	set	7992
  1434                           
  1435                           	psect	cinit
  1436  07F6                     start_initialization:	
  1437                           ; #config settings
  1438                           
  1439  07F6                     __initialization:	
  1440                           
  1441                           ; Initialize objects allocated to COMMON
  1442  07F6  3185  2548  3187   	fcall	__pidataCOMMON	;fetch initializer
  1443  07F9  00FC               	movwf	__pdataCOMMON& (0+127)
  1444  07FA  3185  2549         	fcall	__pidataCOMMON+1	;fetch initializer
  1445  07FC  00FD               	movwf	(__pdataCOMMON+1)& (0+127)
  1446  07FD                     end_of_initialization:	
  1447                           ;End of C runtime variable initialization code
  1448                           
  1449  07FD                     __end_of__initialization:	
  1450  07FD  0140               	movlb	0
  1451  07FE  3185  2D4A         	ljmp	_main	;jump to C main() function
  1452                           
  1453                           	psect	dataCOMMON
  1454  007C                     __pdataCOMMON:	
  1455  007C                     main@F11215:	
  1456  007C                     	ds	1
  1457  007D                     main@F11213:	
  1458  007D                     	ds	1
  1459                           
  1460                           	psect	cstackCOMMON
  1461  0070                     __pcstackCOMMON:	
  1462  0070                     ?_defineGPIODirection:	
  1463  0070                     ?_readPin:	
  1464                           ; 1 bytes @ 0x0
  1465                           
  1466  0070                     ??_readPin:	
  1467                           ; 1 bytes @ 0x0
  1468                           
  1469  0070                     ?_writePin:	
  1470                           ; 1 bytes @ 0x0
  1471                           
  1472  0070                     ?_main:	
  1473                           ; 1 bytes @ 0x0
  1474                           
  1475  0070                     defineGPIODirection@output:	
  1476                           ; 1 bytes @ 0x0
  1477                           
  1478  0070                     writePin@value:	
  1479                           ; 1 bytes @ 0x0
  1480                           
  1481                           
  1482                           ; 1 bytes @ 0x0
  1483  0070                     	ds	1
  1484  0071                     ??_writePin:	
  1485  0071                     defineGPIODirection@inputLength:	
  1486                           ; 1 bytes @ 0x1
  1487                           
  1488                           
  1489                           ; 1 bytes @ 0x1
  1490  0071                     	ds	1
  1491  0072                     defineGPIODirection@outputLength:	
  1492  0072                     readPin@read:	
  1493                           ; 1 bytes @ 0x2
  1494                           
  1495                           
  1496                           ; 1 bytes @ 0x2
  1497  0072                     	ds	1
  1498  0073                     ??_defineGPIODirection:	
  1499  0073                     writePin@write:	
  1500                           ; 1 bytes @ 0x3
  1501                           
  1502                           
  1503                           ; 1 bytes @ 0x3
  1504  0073                     	ds	3
  1505  0076                     defineGPIODirection@input:	
  1506                           
  1507                           ; 1 bytes @ 0x6
  1508  0076                     	ds	1
  1509  0077                     defineGPIODirection@i:	
  1510                           
  1511                           ; 1 bytes @ 0x7
  1512  0077                     	ds	1
  1513  0078                     ??_main:	
  1514                           
  1515                           ; 1 bytes @ 0x8
  1516  0078                     	ds	1
  1517  0079                     main@input:	
  1518                           
  1519                           ; 1 bytes @ 0x9
  1520  0079                     	ds	1
  1521  007A                     main@output:	
  1522                           
  1523                           ; 1 bytes @ 0xA
  1524  007A                     	ds	1
  1525  007B                     main@led:	
  1526                           
  1527                           ; 1 bytes @ 0xB
  1528  007B                     	ds	1
  1529                           
  1530                           	psect	maintext
  1531  054A                     __pmaintext:	
  1532 ;;
  1533 ;;Main: autosize = 0, tempsize = 1, incstack = 0, save=0
  1534 ;;
  1535 ;; *************** function _main *****************
  1536 ;; Defined at:
  1537 ;;		line 16 in file "main.c"
  1538 ;; Parameters:    Size  Location     Type
  1539 ;;		None
  1540 ;; Auto vars:     Size  Location     Type
  1541 ;;  led             1   11[COMMON] _Bool 
  1542 ;;  output          1   10[COMMON] enum E11183[1]
  1543 ;;  input           1    9[COMMON] enum E11183[1]
  1544 ;; Return value:  Size  Location     Type
  1545 ;;                  1    wreg      void 
  1546 ;; Registers used:
  1547 ;;		wreg, fsr0l, fsr0h, fsr1l, fsr1h, status,2, status,0, pclath, cstack
  1548 ;; Tracked objects:
  1549 ;;		On entry : B3F/0
  1550 ;;		On exit  : 0/0
  1551 ;;		Unchanged: 0/0
  1552 ;; Data sizes:     COMMON   BANK0   BANK1   BANK2   BANK3   BANK4   BANK5   BANK6   BANK7   BANK8   BANK9  BANK10  BANK1
      +1  BANK12  BANK13  BANK14  BANK15  BANK16  BANK17  BANK18  BANK19  BANK20  BANK21  BANK22  BANK23  BANK24  BANK25
  1553 ;;      Params:         0       0       0       0       0       0       0       0       0       0       0       0       
      +0       0       0       0       0       0       0       0       0       0       0       0       0       0       0
  1554 ;;      Locals:         3       0       0       0       0       0       0       0       0       0       0       0       
      +0       0       0       0       0       0       0       0       0       0       0       0       0       0       0
  1555 ;;      Temps:          1       0       0       0       0       0       0       0       0       0       0       0       
      +0       0       0       0       0       0       0       0       0       0       0       0       0       0       0
  1556 ;;      Totals:         4       0       0       0       0       0       0       0       0       0       0       0       
      +0       0       0       0       0       0       0       0       0       0       0       0       0       0       0
  1557 ;;Total ram usage:        4 bytes
  1558 ;; Hardware stack levels required when called:    1
  1559 ;; This function calls:
  1560 ;;		_defineGPIODirection
  1561 ;;		_readPin
  1562 ;;		_writePin
  1563 ;; This function is called by:
  1564 ;;		Startup code after reset
  1565 ;; This function uses a non-reentrant model
  1566 ;;
  1567                           
  1568                           
  1569                           ;psect for function _main
  1570  054A                     _main:	
  1571                           
  1572                           ;main.c: 17:     pins_t input[] = {PINB7};
  1573                           
  1574                           ;incstack = 0
  1575                           ; Regs used in _main: [wreg-fsr1h+status,2+status,0+pclath+cstack]
  1576  054A  087D               	movf	main@F11213,w
  1577  054B  00F8               	movwf	??_main
  1578  054C  0878               	movf	??_main,w
  1579  054D  00F9               	movwf	main@input
  1580                           
  1581                           ;main.c: 18:     pins_t output[] = {PINC7};
  1582  054E  087C               	movf	main@F11215,w
  1583  054F  00F8               	movwf	??_main
  1584  0550  0878               	movf	??_main,w
  1585  0551  00FA               	movwf	main@output
  1586                           
  1587                           ;main.c: 21:     defineGPIODirection(input, output, 1, 1);
  1588  0552  307A               	movlw	(low (main@output| 0))& (0+255)
  1589  0553  00F8               	movwf	??_main
  1590  0554  0878               	movf	??_main,w
  1591  0555  00F0               	movwf	defineGPIODirection@output
  1592  0556  01F1               	clrf	defineGPIODirection@inputLength
  1593  0557  0AF1               	incf	defineGPIODirection@inputLength,f
  1594  0558  01F2               	clrf	defineGPIODirection@outputLength
  1595  0559  0AF2               	incf	defineGPIODirection@outputLength,f
  1596  055A  3079               	movlw	(low (main@input| 0))& (0+255)
  1597  055B  3186  26C2  3185   	fcall	_defineGPIODirection
  1598  055E                     l1075:	
  1599                           
  1600                           ;main.c: 24:         if(readPin(PINB7) == 0) {
  1601  055E  3008               	movlw	8
  1602  055F  3185  2579  3185   	fcall	_readPin
  1603  0562  3A00               	xorlw	0
  1604  0563  1D03               	skipz
  1605  0564  2D68               	goto	l1079
  1606                           
  1607                           ;main.c: 25:             led = 1;
  1608  0565  01FB               	clrf	main@led
  1609  0566  0AFB               	incf	main@led,f
  1610                           
  1611                           ;main.c: 26:         } else {
  1612  0567  2D69               	goto	l1081
  1613  0568                     l1079:	
  1614                           
  1615                           ;main.c: 27:             led = 0;
  1616  0568  01FB               	clrf	main@led
  1617  0569                     l1081:	
  1618                           
  1619                           ;main.c: 29:         if(led) {
  1620  0569  087B               	movf	main@led,w
  1621  056A  1903               	btfsc	3,2
  1622  056B  2D73               	goto	l1085
  1623                           
  1624                           ;main.c: 30:             writePin(PINC7, 1);
  1625  056C  01F0               	clrf	writePin@value
  1626  056D  0AF0               	incf	writePin@value,f
  1627  056E  3010               	movlw	16
  1628  056F  3186  260B  3185   	fcall	_writePin
  1629                           
  1630                           ;main.c: 31:         } else {
  1631  0572  2D5E               	goto	l1075
  1632  0573                     l1085:	
  1633                           
  1634                           ;main.c: 32:             writePin(PINC7, 0);
  1635  0573  01F0               	clrf	writePin@value
  1636  0574  3010               	movlw	16
  1637  0575  3186  260B  3185   	fcall	_writePin
  1638  0578  2D5E               	goto	l1075
  1639  0579                     __end_of_main:	
  1640                           
  1641                           	psect	text1
  1642  060B                     __ptext1:	
  1643 ;; *************** function _writePin *****************
  1644 ;; Defined at:
  1645 ;;		line 203 in file "pins.c"
  1646 ;; Parameters:    Size  Location     Type
  1647 ;;  write           1    wreg     enum E11183
  1648 ;;  value           1    0[COMMON] unsigned char 
  1649 ;; Auto vars:     Size  Location     Type
  1650 ;;  write           1    3[COMMON] enum E11183
  1651 ;; Return value:  Size  Location     Type
  1652 ;;                  1    wreg      void 
  1653 ;; Registers used:
  1654 ;;		wreg, fsr0l, fsr0h, status,2, status,0
  1655 ;; Tracked objects:
  1656 ;;		On entry : 0/0
  1657 ;;		On exit  : 0/0
  1658 ;;		Unchanged: 0/0
  1659 ;; Data sizes:     COMMON   BANK0   BANK1   BANK2   BANK3   BANK4   BANK5   BANK6   BANK7   BANK8   BANK9  BANK10  BANK1
      +1  BANK12  BANK13  BANK14  BANK15  BANK16  BANK17  BANK18  BANK19  BANK20  BANK21  BANK22  BANK23  BANK24  BANK25
  1660 ;;      Params:         1       0       0       0       0       0       0       0       0       0       0       0       
      +0       0       0       0       0       0       0       0       0       0       0       0       0       0       0
  1661 ;;      Locals:         1       0       0       0       0       0       0       0       0       0       0       0       
      +0       0       0       0       0       0       0       0       0       0       0       0       0       0       0
  1662 ;;      Temps:          2       0       0       0       0       0       0       0       0       0       0       0       
      +0       0       0       0       0       0       0       0       0       0       0       0       0       0       0
  1663 ;;      Totals:         4       0       0       0       0       0       0       0       0       0       0       0       
      +0       0       0       0       0       0       0       0       0       0       0       0       0       0       0
  1664 ;;Total ram usage:        4 bytes
  1665 ;; Hardware stack levels used:    1
  1666 ;; This function calls:
  1667 ;;		Nothing
  1668 ;; This function is called by:
  1669 ;;		_main
  1670 ;; This function uses a non-reentrant model
  1671 ;;
  1672                           
  1673                           
  1674                           ;psect for function _writePin
  1675  060B                     _writePin:	
  1676                           
  1677                           ;incstack = 0
  1678                           ; Regs used in _writePin: [wreg-fsr0h+status,2+status,0]
  1679                           ;writePin@write stored from wreg
  1680  060B  00F3               	movwf	writePin@write
  1681                           
  1682                           ;pins.c: 204:     switch(write) {
  1683  060C  2E84               	goto	l1063
  1684  060D                     l1027:	
  1685                           
  1686                           ;pins.c: 206:             LATAbits.LATA0 = value;
  1687  060D  0C70               	rrf	writePin@value,w
  1688  060E  0140               	movlb	0	; select bank0
  1689  060F  1C03               	skipc
  1690  0610  1018               	bcf	24,0	;volatile
  1691  0611  1803               	skipnc
  1692  0612  1418               	bsf	24,0	;volatile
  1693                           
  1694                           ;pins.c: 207:             break;
  1695  0613  0008               	return
  1696  0614                     l1029:	
  1697                           
  1698                           ;pins.c: 209:             LATAbits.LATA1 = value;
  1699  0614  0C70               	rrf	writePin@value,w
  1700  0615  0140               	movlb	0	; select bank0
  1701  0616  1C03               	skipc
  1702  0617  1098               	bcf	24,1	;volatile
  1703  0618  1803               	skipnc
  1704  0619  1498               	bsf	24,1	;volatile
  1705                           
  1706                           ;pins.c: 210:             break;
  1707  061A  0008               	return
  1708  061B                     l1031:	
  1709                           
  1710                           ;pins.c: 212:             LATAbits.LATA2 = value;
  1711  061B  0C70               	rrf	writePin@value,w
  1712  061C  0140               	movlb	0	; select bank0
  1713  061D  1C03               	skipc
  1714  061E  1118               	bcf	24,2	;volatile
  1715  061F  1803               	skipnc
  1716  0620  1518               	bsf	24,2	;volatile
  1717                           
  1718                           ;pins.c: 213:             break;
  1719  0621  0008               	return
  1720  0622                     l1033:	
  1721                           
  1722                           ;pins.c: 215:             LATAbits.LATA4 = value;
  1723  0622  0C70               	rrf	writePin@value,w
  1724  0623  0140               	movlb	0	; select bank0
  1725  0624  1C03               	skipc
  1726  0625  1218               	bcf	24,4	;volatile
  1727  0626  1803               	skipnc
  1728  0627  1618               	bsf	24,4	;volatile
  1729                           
  1730                           ;pins.c: 216:             break;
  1731  0628  0008               	return
  1732  0629                     l1035:	
  1733                           
  1734                           ;pins.c: 218:             LATAbits.LATA5 = value;
  1735  0629  0C70               	rrf	writePin@value,w
  1736  062A  0140               	movlb	0	; select bank0
  1737  062B  1C03               	skipc
  1738  062C  1298               	bcf	24,5	;volatile
  1739  062D  1803               	skipnc
  1740  062E  1698               	bsf	24,5	;volatile
  1741                           
  1742                           ;pins.c: 219:             break;
  1743  062F  0008               	return
  1744  0630                     l1037:	
  1745                           
  1746                           ;pins.c: 221:             LATBbits.LATB4 = value;
  1747  0630  0C70               	rrf	writePin@value,w
  1748  0631  0140               	movlb	0	; select bank0
  1749  0632  1C03               	skipc
  1750  0633  1219               	bcf	25,4	;volatile
  1751  0634  1803               	skipnc
  1752  0635  1619               	bsf	25,4	;volatile
  1753                           
  1754                           ;pins.c: 222:             break;
  1755  0636  0008               	return
  1756  0637                     l1039:	
  1757                           
  1758                           ;pins.c: 224:             LATBbits.LATB5 = value;
  1759  0637  0C70               	rrf	writePin@value,w
  1760  0638  0140               	movlb	0	; select bank0
  1761  0639  1C03               	skipc
  1762  063A  1299               	bcf	25,5	;volatile
  1763  063B  1803               	skipnc
  1764  063C  1699               	bsf	25,5	;volatile
  1765                           
  1766                           ;pins.c: 225:             break;
  1767  063D  0008               	return
  1768  063E                     l1041:	
  1769                           
  1770                           ;pins.c: 227:             LATBbits.LATB6 = value;
  1771  063E  0C70               	rrf	writePin@value,w
  1772  063F  0140               	movlb	0	; select bank0
  1773  0640  1C03               	skipc
  1774  0641  1319               	bcf	25,6	;volatile
  1775  0642  1803               	skipnc
  1776  0643  1719               	bsf	25,6	;volatile
  1777                           
  1778                           ;pins.c: 228:             break;
  1779  0644  0008               	return
  1780  0645                     l1043:	
  1781                           
  1782                           ;pins.c: 230:             LATBbits.LATB7 = value;
  1783  0645  0C70               	rrf	writePin@value,w
  1784  0646  0140               	movlb	0	; select bank0
  1785  0647  1C03               	skipc
  1786  0648  1399               	bcf	25,7	;volatile
  1787  0649  1803               	skipnc
  1788  064A  1799               	bsf	25,7	;volatile
  1789                           
  1790                           ;pins.c: 231:             break;
  1791  064B  0008               	return
  1792  064C                     l1045:	
  1793                           
  1794                           ;pins.c: 233:             LATCbits.LATC0 = value;
  1795  064C  0C70               	rrf	writePin@value,w
  1796  064D  0140               	movlb	0	; select bank0
  1797  064E  1C03               	skipc
  1798  064F  101A               	bcf	26,0	;volatile
  1799  0650  1803               	skipnc
  1800  0651  141A               	bsf	26,0	;volatile
  1801                           
  1802                           ;pins.c: 234:             break;
  1803  0652  0008               	return
  1804  0653                     l1047:	
  1805                           
  1806                           ;pins.c: 236:             LATCbits.LATC1 = value;
  1807  0653  0C70               	rrf	writePin@value,w
  1808  0654  0140               	movlb	0	; select bank0
  1809  0655  1C03               	skipc
  1810  0656  109A               	bcf	26,1	;volatile
  1811  0657  1803               	skipnc
  1812  0658  149A               	bsf	26,1	;volatile
  1813                           
  1814                           ;pins.c: 237:             break;
  1815  0659  0008               	return
  1816  065A                     l1049:	
  1817                           
  1818                           ;pins.c: 239:             LATCbits.LATC2 = value;
  1819  065A  0C70               	rrf	writePin@value,w
  1820  065B  0140               	movlb	0	; select bank0
  1821  065C  1C03               	skipc
  1822  065D  111A               	bcf	26,2	;volatile
  1823  065E  1803               	skipnc
  1824  065F  151A               	bsf	26,2	;volatile
  1825                           
  1826                           ;pins.c: 240:             break;
  1827  0660  0008               	return
  1828  0661                     l1051:	
  1829                           
  1830                           ;pins.c: 242:             LATCbits.LATC3 = value;
  1831  0661  0C70               	rrf	writePin@value,w
  1832  0662  0140               	movlb	0	; select bank0
  1833  0663  1C03               	skipc
  1834  0664  119A               	bcf	26,3	;volatile
  1835  0665  1803               	skipnc
  1836  0666  159A               	bsf	26,3	;volatile
  1837                           
  1838                           ;pins.c: 243:             break;
  1839  0667  0008               	return
  1840  0668                     l1053:	
  1841                           
  1842                           ;pins.c: 245:             LATCbits.LATC4 = value;
  1843  0668  0C70               	rrf	writePin@value,w
  1844  0669  0140               	movlb	0	; select bank0
  1845  066A  1C03               	skipc
  1846  066B  121A               	bcf	26,4	;volatile
  1847  066C  1803               	skipnc
  1848  066D  161A               	bsf	26,4	;volatile
  1849                           
  1850                           ;pins.c: 246:             break;
  1851  066E  0008               	return
  1852  066F                     l1055:	
  1853                           
  1854                           ;pins.c: 248:             LATCbits.LATC5 = value;
  1855  066F  0C70               	rrf	writePin@value,w
  1856  0670  0140               	movlb	0	; select bank0
  1857  0671  1C03               	skipc
  1858  0672  129A               	bcf	26,5	;volatile
  1859  0673  1803               	skipnc
  1860  0674  169A               	bsf	26,5	;volatile
  1861                           
  1862                           ;pins.c: 249:             break;
  1863  0675  0008               	return
  1864  0676                     l1057:	
  1865                           
  1866                           ;pins.c: 251:             LATCbits.LATC6 = value;
  1867  0676  0C70               	rrf	writePin@value,w
  1868  0677  0140               	movlb	0	; select bank0
  1869  0678  1C03               	skipc
  1870  0679  131A               	bcf	26,6	;volatile
  1871  067A  1803               	skipnc
  1872  067B  171A               	bsf	26,6	;volatile
  1873                           
  1874                           ;pins.c: 252:             break;
  1875  067C  0008               	return
  1876  067D                     l1059:	
  1877                           
  1878                           ;pins.c: 254:             LATCbits.LATC7 = value;
  1879  067D  0C70               	rrf	writePin@value,w
  1880  067E  0140               	movlb	0	; select bank0
  1881  067F  1C03               	skipc
  1882  0680  139A               	bcf	26,7	;volatile
  1883  0681  1803               	skipnc
  1884  0682  179A               	bsf	26,7	;volatile
  1885                           
  1886                           ;pins.c: 255:             break;
  1887  0683  0008               	return
  1888  0684                     l1063:	
  1889  0684  0873               	movf	writePin@write,w
  1890  0685  00F1               	movwf	??_writePin
  1891  0686  01F2               	clrf	??_writePin+1
  1892                           
  1893                           ; Switch on 2 bytes has been partitioned into a top level switch of size 1, and 1 sub-sw
      +                          itches
  1894                           ; Switch size 1, requested type "simple"
  1895                           ; Number of cases is 1, Range of values is 0 to 0
  1896                           ; switch strategies available:
  1897                           ; Name         Instructions Cycles
  1898                           ; simple_byte            4     3 (average)
  1899                           ; direct_byte            8     6 (fixed)
  1900                           ; jumptable            260     6 (fixed)
  1901                           ;	Chosen strategy is simple_byte
  1902  0687  0872               	movf	??_writePin+1,w
  1903  0688  3A00               	xorlw	0	; case 0
  1904  0689  1903               	skipnz
  1905  068A  2E8C               	goto	l1167
  1906  068B  2EC1               	goto	l143
  1907  068C                     l1167:	
  1908                           
  1909                           ; Switch size 1, requested type "simple"
  1910                           ; Number of cases is 17, Range of values is 0 to 16
  1911                           ; switch strategies available:
  1912                           ; Name         Instructions Cycles
  1913                           ; direct_byte           40     6 (fixed)
  1914                           ; simple_byte           52    27 (average)
  1915                           ; jumptable            260     6 (fixed)
  1916                           ;	Chosen strategy is simple_byte
  1917  068C  0871               	movf	??_writePin,w
  1918  068D  3A00               	xorlw	0	; case 0
  1919  068E  1903               	skipnz
  1920  068F  2E0D               	goto	l1027
  1921  0690  3A01               	xorlw	1	; case 1
  1922  0691  1903               	skipnz
  1923  0692  2E14               	goto	l1029
  1924  0693  3A03               	xorlw	3	; case 2
  1925  0694  1903               	skipnz
  1926  0695  2E1B               	goto	l1031
  1927  0696  3A01               	xorlw	1	; case 3
  1928  0697  1903               	skipnz
  1929  0698  2E22               	goto	l1033
  1930  0699  3A07               	xorlw	7	; case 4
  1931  069A  1903               	skipnz
  1932  069B  2E29               	goto	l1035
  1933  069C  3A01               	xorlw	1	; case 5
  1934  069D  1903               	skipnz
  1935  069E  2E30               	goto	l1037
  1936  069F  3A03               	xorlw	3	; case 6
  1937  06A0  1903               	skipnz
  1938  06A1  2E37               	goto	l1039
  1939  06A2  3A01               	xorlw	1	; case 7
  1940  06A3  1903               	skipnz
  1941  06A4  2E3E               	goto	l1041
  1942  06A5  3A0F               	xorlw	15	; case 8
  1943  06A6  1903               	skipnz
  1944  06A7  2E45               	goto	l1043
  1945  06A8  3A01               	xorlw	1	; case 9
  1946  06A9  1903               	skipnz
  1947  06AA  2E4C               	goto	l1045
  1948  06AB  3A03               	xorlw	3	; case 10
  1949  06AC  1903               	skipnz
  1950  06AD  2E53               	goto	l1047
  1951  06AE  3A01               	xorlw	1	; case 11
  1952  06AF  1903               	skipnz
  1953  06B0  2E5A               	goto	l1049
  1954  06B1  3A07               	xorlw	7	; case 12
  1955  06B2  1903               	skipnz
  1956  06B3  2E61               	goto	l1051
  1957  06B4  3A01               	xorlw	1	; case 13
  1958  06B5  1903               	skipnz
  1959  06B6  2E68               	goto	l1053
  1960  06B7  3A03               	xorlw	3	; case 14
  1961  06B8  1903               	skipnz
  1962  06B9  2E6F               	goto	l1055
  1963  06BA  3A01               	xorlw	1	; case 15
  1964  06BB  1903               	skipnz
  1965  06BC  2E76               	goto	l1057
  1966  06BD  3A1F               	xorlw	31	; case 16
  1967  06BE  1903               	skipnz
  1968  06BF  2E7D               	goto	l1059
  1969  06C0  2EC1               	goto	l143
  1970  06C1                     l143:	
  1971  06C1  0008               	return
  1972  06C2                     __end_of_writePin:	
  1973                           
  1974                           	psect	text2
  1975  0579                     __ptext2:	
  1976 ;; *************** function _readPin *****************
  1977 ;; Defined at:
  1978 ;;		line 164 in file "pins.c"
  1979 ;; Parameters:    Size  Location     Type
  1980 ;;  read            1    wreg     enum E11183
  1981 ;; Auto vars:     Size  Location     Type
  1982 ;;  read            1    2[COMMON] enum E11183
  1983 ;; Return value:  Size  Location     Type
  1984 ;;                  1    wreg      unsigned char 
  1985 ;; Registers used:
  1986 ;;		wreg, fsr0l, fsr0h, status,2, status,0
  1987 ;; Tracked objects:
  1988 ;;		On entry : 0/0
  1989 ;;		On exit  : 0/0
  1990 ;;		Unchanged: 0/0
  1991 ;; Data sizes:     COMMON   BANK0   BANK1   BANK2   BANK3   BANK4   BANK5   BANK6   BANK7   BANK8   BANK9  BANK10  BANK1
      +1  BANK12  BANK13  BANK14  BANK15  BANK16  BANK17  BANK18  BANK19  BANK20  BANK21  BANK22  BANK23  BANK24  BANK25
  1992 ;;      Params:         0       0       0       0       0       0       0       0       0       0       0       0       
      +0       0       0       0       0       0       0       0       0       0       0       0       0       0       0
  1993 ;;      Locals:         1       0       0       0       0       0       0       0       0       0       0       0       
      +0       0       0       0       0       0       0       0       0       0       0       0       0       0       0
  1994 ;;      Temps:          2       0       0       0       0       0       0       0       0       0       0       0       
      +0       0       0       0       0       0       0       0       0       0       0       0       0       0       0
  1995 ;;      Totals:         3       0       0       0       0       0       0       0       0       0       0       0       
      +0       0       0       0       0       0       0       0       0       0       0       0       0       0       0
  1996 ;;Total ram usage:        3 bytes
  1997 ;; Hardware stack levels used:    1
  1998 ;; This function calls:
  1999 ;;		Nothing
  2000 ;; This function is called by:
  2001 ;;		_main
  2002 ;; This function uses a non-reentrant model
  2003 ;;
  2004                           
  2005                           
  2006                           ;psect for function _readPin
  2007  0579                     _readPin:	
  2008                           
  2009                           ;incstack = 0
  2010                           ; Regs used in _readPin: [wreg-fsr0h+status,2+status,0]
  2011                           ;readPin@read stored from wreg
  2012  0579  00F2               	movwf	readPin@read
  2013                           
  2014                           ;pins.c: 165:     switch (read) {
  2015  057A  2DCD               	goto	l851
  2016  057B                     l781:	
  2017                           
  2018                           ;pins.c: 167:             return PORTAbits.RA0;
  2019  057B  0140               	movlb	0	; select bank0
  2020  057C  080C               	movf	12,w	;volatile
  2021  057D  3901               	andlw	1
  2022  057E  0008               	return
  2023  057F                     l785:	
  2024                           
  2025                           ;pins.c: 169:             return PORTAbits.RA1;
  2026  057F  0140               	movlb	0	; select bank0
  2027  0580  0C0C               	rrf	12,w	;volatile
  2028  0581  3901               	andlw	1
  2029  0582  0008               	return
  2030  0583                     l789:	
  2031                           
  2032                           ;pins.c: 171:             return PORTAbits.RA2;
  2033  0583  0140               	movlb	0	; select bank0
  2034  0584  0C0C               	rrf	12,w	;volatile
  2035  0585  0C89               	rrf	9,f
  2036  0586  3901               	andlw	1
  2037  0587  0008               	return
  2038  0588                     l793:	
  2039                           
  2040                           ;pins.c: 173:             return PORTAbits.RA4;
  2041  0588  0140               	movlb	0	; select bank0
  2042  0589  0E0C               	swapf	12,w	;volatile
  2043  058A  3901               	andlw	1
  2044  058B  0008               	return
  2045  058C                     l797:	
  2046                           
  2047                           ;pins.c: 175:             return PORTAbits.RA5;
  2048  058C  0140               	movlb	0	; select bank0
  2049  058D  0E0C               	swapf	12,w	;volatile
  2050  058E  0C89               	rrf	9,f
  2051  058F  3901               	andlw	1
  2052  0590  0008               	return
  2053  0591                     l801:	
  2054                           
  2055                           ;pins.c: 177:             return PORTBbits.RB4;
  2056  0591  0140               	movlb	0	; select bank0
  2057  0592  0E0D               	swapf	13,w	;volatile
  2058  0593  3901               	andlw	1
  2059  0594  0008               	return
  2060  0595                     l805:	
  2061                           
  2062                           ;pins.c: 179:             return PORTBbits.RB5;
  2063  0595  0140               	movlb	0	; select bank0
  2064  0596  0E0D               	swapf	13,w	;volatile
  2065  0597  0C89               	rrf	9,f
  2066  0598  3901               	andlw	1
  2067  0599  0008               	return
  2068  059A                     l809:	
  2069                           
  2070                           ;pins.c: 181:             return PORTBbits.RB6;
  2071  059A  0140               	movlb	0	; select bank0
  2072  059B  0E0D               	swapf	13,w	;volatile
  2073  059C  0C89               	rrf	9,f
  2074  059D  0C89               	rrf	9,f
  2075  059E  3901               	andlw	1
  2076  059F  0008               	return
  2077  05A0                     l813:	
  2078                           
  2079                           ;pins.c: 183:             return PORTBbits.RB7;
  2080  05A0  0140               	movlb	0	; select bank0
  2081  05A1  0D0D               	rlf	13,w	;volatile
  2082  05A2  0D0D               	rlf	13,w	;volatile
  2083  05A3  3901               	andlw	1
  2084  05A4  0008               	return
  2085  05A5                     l817:	
  2086                           
  2087                           ;pins.c: 185:             return PORTCbits.RC0;
  2088  05A5  0140               	movlb	0	; select bank0
  2089  05A6  080E               	movf	14,w	;volatile
  2090  05A7  3901               	andlw	1
  2091  05A8  0008               	return
  2092  05A9                     l821:	
  2093                           
  2094                           ;pins.c: 187:             return PORTCbits.RC1;
  2095  05A9  0140               	movlb	0	; select bank0
  2096  05AA  0C0E               	rrf	14,w	;volatile
  2097  05AB  3901               	andlw	1
  2098  05AC  0008               	return
  2099  05AD                     l825:	
  2100                           
  2101                           ;pins.c: 189:             return PORTCbits.RC2;
  2102  05AD  0140               	movlb	0	; select bank0
  2103  05AE  0C0E               	rrf	14,w	;volatile
  2104  05AF  0C89               	rrf	9,f
  2105  05B0  3901               	andlw	1
  2106  05B1  0008               	return
  2107  05B2                     l829:	
  2108                           
  2109                           ;pins.c: 191:             return PORTCbits.RC3;
  2110  05B2  0140               	movlb	0	; select bank0
  2111  05B3  0C0E               	rrf	14,w	;volatile
  2112  05B4  00F0               	movwf	??_readPin
  2113  05B5  0CF0               	rrf	??_readPin,f
  2114  05B6  0C70               	rrf	??_readPin,w
  2115  05B7  3901               	andlw	1
  2116  05B8  0008               	return
  2117  05B9                     l833:	
  2118                           
  2119                           ;pins.c: 193:             return PORTCbits.RC4;
  2120  05B9  0140               	movlb	0	; select bank0
  2121  05BA  0E0E               	swapf	14,w	;volatile
  2122  05BB  3901               	andlw	1
  2123  05BC  0008               	return
  2124  05BD                     l837:	
  2125                           
  2126                           ;pins.c: 195:             return PORTCbits.RC5;
  2127  05BD  0140               	movlb	0	; select bank0
  2128  05BE  0E0E               	swapf	14,w	;volatile
  2129  05BF  0C89               	rrf	9,f
  2130  05C0  3901               	andlw	1
  2131  05C1  0008               	return
  2132  05C2                     l841:	
  2133                           
  2134                           ;pins.c: 197:             return PORTCbits.RC6;
  2135  05C2  0140               	movlb	0	; select bank0
  2136  05C3  0E0E               	swapf	14,w	;volatile
  2137  05C4  0C89               	rrf	9,f
  2138  05C5  0C89               	rrf	9,f
  2139  05C6  3901               	andlw	1
  2140  05C7  0008               	return
  2141  05C8                     l845:	
  2142                           
  2143                           ;pins.c: 199:             return PORTCbits.RC7;
  2144  05C8  0140               	movlb	0	; select bank0
  2145  05C9  0D0E               	rlf	14,w	;volatile
  2146  05CA  0D0E               	rlf	14,w	;volatile
  2147  05CB  3901               	andlw	1
  2148  05CC  0008               	return
  2149  05CD                     l851:	
  2150  05CD  0872               	movf	readPin@read,w
  2151  05CE  00F0               	movwf	??_readPin
  2152  05CF  01F1               	clrf	??_readPin+1
  2153                           
  2154                           ; Switch on 2 bytes has been partitioned into a top level switch of size 1, and 1 sub-sw
      +                          itches
  2155                           ; Switch size 1, requested type "simple"
  2156                           ; Number of cases is 1, Range of values is 0 to 0
  2157                           ; switch strategies available:
  2158                           ; Name         Instructions Cycles
  2159                           ; simple_byte            4     3 (average)
  2160                           ; direct_byte            8     6 (fixed)
  2161                           ; jumptable            260     6 (fixed)
  2162                           ;	Chosen strategy is simple_byte
  2163  05D0  0871               	movf	??_readPin+1,w
  2164  05D1  3A00               	xorlw	0	; case 0
  2165  05D2  1903               	skipnz
  2166  05D3  2DD5               	goto	l1169
  2167  05D4  2E0A               	goto	l104
  2168  05D5                     l1169:	
  2169                           
  2170                           ; Switch size 1, requested type "simple"
  2171                           ; Number of cases is 17, Range of values is 0 to 16
  2172                           ; switch strategies available:
  2173                           ; Name         Instructions Cycles
  2174                           ; direct_byte           40     6 (fixed)
  2175                           ; simple_byte           52    27 (average)
  2176                           ; jumptable            260     6 (fixed)
  2177                           ;	Chosen strategy is simple_byte
  2178  05D5  0870               	movf	??_readPin,w
  2179  05D6  3A00               	xorlw	0	; case 0
  2180  05D7  1903               	skipnz
  2181  05D8  2D7B               	goto	l781
  2182  05D9  3A01               	xorlw	1	; case 1
  2183  05DA  1903               	skipnz
  2184  05DB  2D7F               	goto	l785
  2185  05DC  3A03               	xorlw	3	; case 2
  2186  05DD  1903               	skipnz
  2187  05DE  2D83               	goto	l789
  2188  05DF  3A01               	xorlw	1	; case 3
  2189  05E0  1903               	skipnz
  2190  05E1  2D88               	goto	l793
  2191  05E2  3A07               	xorlw	7	; case 4
  2192  05E3  1903               	skipnz
  2193  05E4  2D8C               	goto	l797
  2194  05E5  3A01               	xorlw	1	; case 5
  2195  05E6  1903               	skipnz
  2196  05E7  2D91               	goto	l801
  2197  05E8  3A03               	xorlw	3	; case 6
  2198  05E9  1903               	skipnz
  2199  05EA  2D95               	goto	l805
  2200  05EB  3A01               	xorlw	1	; case 7
  2201  05EC  1903               	skipnz
  2202  05ED  2D9A               	goto	l809
  2203  05EE  3A0F               	xorlw	15	; case 8
  2204  05EF  1903               	skipnz
  2205  05F0  2DA0               	goto	l813
  2206  05F1  3A01               	xorlw	1	; case 9
  2207  05F2  1903               	skipnz
  2208  05F3  2DA5               	goto	l817
  2209  05F4  3A03               	xorlw	3	; case 10
  2210  05F5  1903               	skipnz
  2211  05F6  2DA9               	goto	l821
  2212  05F7  3A01               	xorlw	1	; case 11
  2213  05F8  1903               	skipnz
  2214  05F9  2DAD               	goto	l825
  2215  05FA  3A07               	xorlw	7	; case 12
  2216  05FB  1903               	skipnz
  2217  05FC  2DB2               	goto	l829
  2218  05FD  3A01               	xorlw	1	; case 13
  2219  05FE  1903               	skipnz
  2220  05FF  2DB9               	goto	l833
  2221  0600  3A03               	xorlw	3	; case 14
  2222  0601  1903               	skipnz
  2223  0602  2DBD               	goto	l837
  2224  0603  3A01               	xorlw	1	; case 15
  2225  0604  1903               	skipnz
  2226  0605  2DC2               	goto	l841
  2227  0606  3A1F               	xorlw	31	; case 16
  2228  0607  1903               	skipnz
  2229  0608  2DC8               	goto	l845
  2230  0609  2E0A               	goto	l104
  2231  060A                     l104:	
  2232  060A  0008               	return
  2233  060B                     __end_of_readPin:	
  2234                           
  2235                           	psect	text3
  2236  06C2                     __ptext3:	
  2237 ;; *************** function _defineGPIODirection *****************
  2238 ;; Defined at:
  2239 ;;		line 16 in file "pins.c"
  2240 ;; Parameters:    Size  Location     Type
  2241 ;;  input           1    wreg     PTR enum E11183
  2242 ;;		 -> main@input(1), 
  2243 ;;  output          1    0[COMMON] PTR enum E11183
  2244 ;;		 -> main@output(1), 
  2245 ;;  inputLength     1    1[COMMON] unsigned char 
  2246 ;;  outputLength    1    2[COMMON] unsigned char 
  2247 ;; Auto vars:     Size  Location     Type
  2248 ;;  input           1    6[COMMON] PTR enum E11183
  2249 ;;		 -> main@input(1), 
  2250 ;;  i               1    7[COMMON] unsigned char 
  2251 ;; Return value:  Size  Location     Type
  2252 ;;                  1    wreg      void 
  2253 ;; Registers used:
  2254 ;;		wreg, fsr0l, fsr0h, fsr1l, fsr1h, status,2, status,0
  2255 ;; Tracked objects:
  2256 ;;		On entry : 0/0
  2257 ;;		On exit  : 0/0
  2258 ;;		Unchanged: 0/0
  2259 ;; Data sizes:     COMMON   BANK0   BANK1   BANK2   BANK3   BANK4   BANK5   BANK6   BANK7   BANK8   BANK9  BANK10  BANK1
      +1  BANK12  BANK13  BANK14  BANK15  BANK16  BANK17  BANK18  BANK19  BANK20  BANK21  BANK22  BANK23  BANK24  BANK25
  2260 ;;      Params:         3       0       0       0       0       0       0       0       0       0       0       0       
      +0       0       0       0       0       0       0       0       0       0       0       0       0       0       0
  2261 ;;      Locals:         2       0       0       0       0       0       0       0       0       0       0       0       
      +0       0       0       0       0       0       0       0       0       0       0       0       0       0       0
  2262 ;;      Temps:          3       0       0       0       0       0       0       0       0       0       0       0       
      +0       0       0       0       0       0       0       0       0       0       0       0       0       0       0
  2263 ;;      Totals:         8       0       0       0       0       0       0       0       0       0       0       0       
      +0       0       0       0       0       0       0       0       0       0       0       0       0       0       0
  2264 ;;Total ram usage:        8 bytes
  2265 ;; Hardware stack levels used:    1
  2266 ;; This function calls:
  2267 ;;		Nothing
  2268 ;; This function is called by:
  2269 ;;		_main
  2270 ;; This function uses a non-reentrant model
  2271 ;;
  2272                           
  2273                           
  2274                           ;psect for function _defineGPIODirection
  2275  06C2                     _defineGPIODirection:	
  2276                           
  2277                           ;incstack = 0
  2278                           ; Regs used in _defineGPIODirection: [wreg-fsr1h+status,2+status,0]
  2279                           ;defineGPIODirection@input stored from wreg
  2280  06C2  00F6               	movwf	defineGPIODirection@input
  2281                           
  2282                           ;pins.c: 17:     uint8_t i;;pins.c: 18:     for(i = 0; i < inputLength; i++) {
  2283  06C3  01F7               	clrf	defineGPIODirection@i
  2284  06C4  2F2E               	goto	l1007
  2285  06C5                     l58:	
  2286                           ;pins.c: 20:             case PINA0 :
  2287                           
  2288                           
  2289                           ;pins.c: 21:                 TRISAbits.TRISA0 = 1;
  2290  06C5  0140               	movlb	0	; select bank0
  2291  06C6  1412               	bsf	18,0	;volatile
  2292                           
  2293                           ;pins.c: 22:                 ANSELAbits.ANSA0 = 0;
  2294  06C7  017E               	movlb	62	; select bank62
  2295  06C8  1038               	bcf	56,0	;volatile
  2296                           
  2297                           ;pins.c: 23:                 WPUAbits.WPUA0 = 1;
  2298  06C9  1439               	bsf	57,0	;volatile
  2299                           
  2300                           ;pins.c: 24:                 break;
  2301  06CA  2F2A               	goto	l1005
  2302  06CB                     l60:	
  2303                           ;pins.c: 25:             case PINA1 :
  2304                           
  2305                           
  2306                           ;pins.c: 26:                 TRISAbits.TRISA1 = 1;
  2307  06CB  0140               	movlb	0	; select bank0
  2308  06CC  1492               	bsf	18,1	;volatile
  2309                           
  2310                           ;pins.c: 27:                 ANSELAbits.ANSA1 = 0;
  2311  06CD  017E               	movlb	62	; select bank62
  2312  06CE  10B8               	bcf	56,1	;volatile
  2313                           
  2314                           ;pins.c: 28:                 WPUAbits.WPUA1 = 1;
  2315  06CF  14B9               	bsf	57,1	;volatile
  2316                           
  2317                           ;pins.c: 29:                 break;
  2318  06D0  2F2A               	goto	l1005
  2319  06D1                     l61:	
  2320                           ;pins.c: 30:             case PINA2 :
  2321                           
  2322                           
  2323                           ;pins.c: 31:                 TRISAbits.TRISA2 = 1;
  2324  06D1  0140               	movlb	0	; select bank0
  2325  06D2  1512               	bsf	18,2	;volatile
  2326                           
  2327                           ;pins.c: 32:                 ANSELAbits.ANSA2 = 0;
  2328  06D3  017E               	movlb	62	; select bank62
  2329  06D4  1138               	bcf	56,2	;volatile
  2330                           
  2331                           ;pins.c: 33:                 WPUAbits.WPUA2 = 1;
  2332  06D5  1539               	bsf	57,2	;volatile
  2333                           
  2334                           ;pins.c: 34:                 break;
  2335  06D6  2F2A               	goto	l1005
  2336  06D7                     l62:	
  2337                           ;pins.c: 35:             case PINA4 :
  2338                           
  2339                           
  2340                           ;pins.c: 36:                 TRISAbits.TRISA4 = 1;
  2341  06D7  0140               	movlb	0	; select bank0
  2342  06D8  1612               	bsf	18,4	;volatile
  2343                           
  2344                           ;pins.c: 37:                 ANSELAbits.ANSA4 = 0;
  2345  06D9  017E               	movlb	62	; select bank62
  2346  06DA  1238               	bcf	56,4	;volatile
  2347                           
  2348                           ;pins.c: 38:                 WPUAbits.WPUA4 = 1;
  2349  06DB  1639               	bsf	57,4	;volatile
  2350                           
  2351                           ;pins.c: 39:                 break;
  2352  06DC  2F2A               	goto	l1005
  2353  06DD                     l63:	
  2354                           ;pins.c: 40:             case PINA5 :
  2355                           
  2356                           
  2357                           ;pins.c: 41:                 TRISAbits.TRISA5 = 1;
  2358  06DD  0140               	movlb	0	; select bank0
  2359  06DE  1692               	bsf	18,5	;volatile
  2360                           
  2361                           ;pins.c: 42:                 ANSELAbits.ANSA5 = 0;
  2362  06DF  017E               	movlb	62	; select bank62
  2363  06E0  12B8               	bcf	56,5	;volatile
  2364                           
  2365                           ;pins.c: 43:                 WPUAbits.WPUA5 = 1;
  2366  06E1  16B9               	bsf	57,5	;volatile
  2367                           
  2368                           ;pins.c: 44:                 break;
  2369  06E2  2F2A               	goto	l1005
  2370  06E3                     l64:	
  2371                           ;pins.c: 45:             case PINB4 :
  2372                           
  2373                           
  2374                           ;pins.c: 46:                 TRISBbits.TRISB4 = 1;
  2375  06E3  0140               	movlb	0	; select bank0
  2376  06E4  1613               	bsf	19,4	;volatile
  2377                           
  2378                           ;pins.c: 47:                 ANSELBbits.ANSB4 = 0;
  2379  06E5  017E               	movlb	62	; select bank62
  2380  06E6  1243               	bcf	67,4	;volatile
  2381                           
  2382                           ;pins.c: 48:                 WPUBbits.WPUB4 = 1;
  2383  06E7  1644               	bsf	68,4	;volatile
  2384                           
  2385                           ;pins.c: 49:                 break;
  2386  06E8  2F2A               	goto	l1005
  2387  06E9                     l65:	
  2388                           ;pins.c: 50:             case PINB5 :
  2389                           
  2390                           
  2391                           ;pins.c: 51:                 TRISBbits.TRISB5 = 1;
  2392  06E9  0140               	movlb	0	; select bank0
  2393  06EA  1693               	bsf	19,5	;volatile
  2394                           
  2395                           ;pins.c: 52:                 ANSELBbits.ANSB5 = 0;
  2396  06EB  017E               	movlb	62	; select bank62
  2397  06EC  12C3               	bcf	67,5	;volatile
  2398                           
  2399                           ;pins.c: 53:                 WPUBbits.WPUB5 = 1;
  2400  06ED  16C4               	bsf	68,5	;volatile
  2401                           
  2402                           ;pins.c: 54:                 break;
  2403  06EE  2F2A               	goto	l1005
  2404  06EF                     l66:	
  2405                           ;pins.c: 55:             case PINB6 :
  2406                           
  2407                           
  2408                           ;pins.c: 56:                 TRISBbits.TRISB6 = 1;
  2409  06EF  0140               	movlb	0	; select bank0
  2410  06F0  1713               	bsf	19,6	;volatile
  2411                           
  2412                           ;pins.c: 57:                 ANSELBbits.ANSB6 = 0;
  2413  06F1  017E               	movlb	62	; select bank62
  2414  06F2  1343               	bcf	67,6	;volatile
  2415                           
  2416                           ;pins.c: 58:                 WPUBbits.WPUB6 = 1;
  2417  06F3  1744               	bsf	68,6	;volatile
  2418                           
  2419                           ;pins.c: 59:                 break;
  2420  06F4  2F2A               	goto	l1005
  2421  06F5                     l67:	
  2422                           ;pins.c: 60:             case PINB7 :
  2423                           
  2424                           
  2425                           ;pins.c: 61:                 TRISBbits.TRISB7 = 1;
  2426  06F5  0140               	movlb	0	; select bank0
  2427  06F6  1793               	bsf	19,7	;volatile
  2428                           
  2429                           ;pins.c: 62:                 ANSELBbits.ANSB7 = 0;
  2430  06F7  017E               	movlb	62	; select bank62
  2431  06F8  13C3               	bcf	67,7	;volatile
  2432                           
  2433                           ;pins.c: 63:                 WPUBbits.WPUB7 = 1;
  2434  06F9  17C4               	bsf	68,7	;volatile
  2435                           
  2436                           ;pins.c: 64:                 break;
  2437  06FA  2F2A               	goto	l1005
  2438  06FB                     l68:	
  2439                           ;pins.c: 65:             case PINC0 :
  2440                           
  2441                           
  2442                           ;pins.c: 66:                 TRISCbits.TRISC0 = 1;
  2443  06FB  0140               	movlb	0	; select bank0
  2444  06FC  1414               	bsf	20,0	;volatile
  2445                           
  2446                           ;pins.c: 67:                 ANSELCbits.ANSC0 = 0;
  2447  06FD  017E               	movlb	62	; select bank62
  2448  06FE  104E               	bcf	78,0	;volatile
  2449                           
  2450                           ;pins.c: 68:                 WPUCbits.WPUC0 = 1;
  2451  06FF  144F               	bsf	79,0	;volatile
  2452                           
  2453                           ;pins.c: 69:                 break;
  2454  0700  2F2A               	goto	l1005
  2455  0701                     l69:	
  2456                           ;pins.c: 70:             case PINC1 :
  2457                           
  2458                           
  2459                           ;pins.c: 71:                 TRISCbits.TRISC1 = 1;
  2460  0701  0140               	movlb	0	; select bank0
  2461  0702  1494               	bsf	20,1	;volatile
  2462                           
  2463                           ;pins.c: 72:                 ANSELCbits.ANSC1 = 0;
  2464  0703  017E               	movlb	62	; select bank62
  2465  0704  10CE               	bcf	78,1	;volatile
  2466                           
  2467                           ;pins.c: 73:                 WPUCbits.WPUC1 = 1;
  2468  0705  14CF               	bsf	79,1	;volatile
  2469                           
  2470                           ;pins.c: 74:                 break;
  2471  0706  2F2A               	goto	l1005
  2472  0707                     l70:	
  2473                           ;pins.c: 75:             case PINC2 :
  2474                           
  2475                           
  2476                           ;pins.c: 76:                 TRISCbits.TRISC2 = 1;
  2477  0707  0140               	movlb	0	; select bank0
  2478  0708  1514               	bsf	20,2	;volatile
  2479                           
  2480                           ;pins.c: 77:                 ANSELCbits.ANSC2 = 0;
  2481  0709  017E               	movlb	62	; select bank62
  2482  070A  114E               	bcf	78,2	;volatile
  2483                           
  2484                           ;pins.c: 78:                 WPUCbits.WPUC2 = 1;
  2485  070B  154F               	bsf	79,2	;volatile
  2486                           
  2487                           ;pins.c: 79:                 break;
  2488  070C  2F2A               	goto	l1005
  2489  070D                     l71:	
  2490                           ;pins.c: 80:             case PINC3 :
  2491                           
  2492                           
  2493                           ;pins.c: 81:                 TRISCbits.TRISC3 = 1;
  2494  070D  0140               	movlb	0	; select bank0
  2495  070E  1594               	bsf	20,3	;volatile
  2496                           
  2497                           ;pins.c: 82:                 ANSELCbits.ANSC3 = 0;
  2498  070F  017E               	movlb	62	; select bank62
  2499  0710  11CE               	bcf	78,3	;volatile
  2500                           
  2501                           ;pins.c: 83:                 WPUCbits.WPUC3 = 1;
  2502  0711  15CF               	bsf	79,3	;volatile
  2503                           
  2504                           ;pins.c: 84:                 break;
  2505  0712  2F2A               	goto	l1005
  2506  0713                     l72:	
  2507                           ;pins.c: 85:             case PINC4 :
  2508                           
  2509                           
  2510                           ;pins.c: 86:                 TRISCbits.TRISC4 = 1;
  2511  0713  0140               	movlb	0	; select bank0
  2512  0714  1614               	bsf	20,4	;volatile
  2513                           
  2514                           ;pins.c: 87:                 ANSELCbits.ANSC4 = 0;
  2515  0715  017E               	movlb	62	; select bank62
  2516  0716  124E               	bcf	78,4	;volatile
  2517                           
  2518                           ;pins.c: 88:                 WPUCbits.WPUC4 = 1;
  2519  0717  164F               	bsf	79,4	;volatile
  2520                           
  2521                           ;pins.c: 89:                 break;
  2522  0718  2F2A               	goto	l1005
  2523  0719                     l73:	
  2524                           ;pins.c: 90:             case PINC5 :
  2525                           
  2526                           
  2527                           ;pins.c: 91:                 TRISCbits.TRISC5 = 1;
  2528  0719  0140               	movlb	0	; select bank0
  2529  071A  1694               	bsf	20,5	;volatile
  2530                           
  2531                           ;pins.c: 92:                 ANSELCbits.ANSC5 = 0;
  2532  071B  017E               	movlb	62	; select bank62
  2533  071C  12CE               	bcf	78,5	;volatile
  2534                           
  2535                           ;pins.c: 93:                 WPUCbits.WPUC5 = 1;
  2536  071D  16CF               	bsf	79,5	;volatile
  2537                           
  2538                           ;pins.c: 94:                 break;
  2539  071E  2F2A               	goto	l1005
  2540  071F                     l74:	
  2541                           ;pins.c: 95:             case PINC6 :
  2542                           
  2543                           
  2544                           ;pins.c: 96:                 TRISCbits.TRISC6 = 1;
  2545  071F  0140               	movlb	0	; select bank0
  2546  0720  1714               	bsf	20,6	;volatile
  2547                           
  2548                           ;pins.c: 97:                 ANSELCbits.ANSC6 = 0;
  2549  0721  017E               	movlb	62	; select bank62
  2550  0722  134E               	bcf	78,6	;volatile
  2551                           
  2552                           ;pins.c: 98:                 WPUCbits.WPUC6 = 1;
  2553  0723  174F               	bsf	79,6	;volatile
  2554                           
  2555                           ;pins.c: 99:                 break;
  2556  0724  2F2A               	goto	l1005
  2557  0725                     l75:	
  2558                           ;pins.c: 100:             case PINC7 :
  2559                           
  2560                           
  2561                           ;pins.c: 101:                 TRISCbits.TRISC7 = 1;
  2562  0725  0140               	movlb	0	; select bank0
  2563  0726  1794               	bsf	20,7	;volatile
  2564                           
  2565                           ;pins.c: 102:                 ANSELCbits.ANSC7 = 0;
  2566  0727  017E               	movlb	62	; select bank62
  2567  0728  13CE               	bcf	78,7	;volatile
  2568                           
  2569                           ;pins.c: 103:                 WPUCbits.WPUC7 = 1;
  2570  0729  17CF               	bsf	79,7	;volatile
  2571  072A                     l1005:	
  2572                           ;pins.c: 104:                 break;
  2573                           
  2574                           
  2575                           ;pins.c: 106:     }
  2576  072A  3001               	movlw	1
  2577  072B  00F3               	movwf	??_defineGPIODirection
  2578  072C  0873               	movf	??_defineGPIODirection,w
  2579  072D  07F7               	addwf	defineGPIODirection@i,f
  2580  072E                     l1007:	
  2581  072E  0871               	movf	defineGPIODirection@inputLength,w
  2582  072F  0277               	subwf	defineGPIODirection@i,w
  2583  0730  1803               	btfsc	3,0
  2584  0731  2F76               	goto	l1009
  2585  0732  0877               	movf	defineGPIODirection@i,w
  2586  0733  0776               	addwf	defineGPIODirection@input,w
  2587  0734  00F3               	movwf	??_defineGPIODirection
  2588  0735  0873               	movf	??_defineGPIODirection,w
  2589  0736  0086               	movwf	6
  2590  0737  0187               	clrf	7
  2591  0738  0801               	movf	1,w
  2592  0739  00F4               	movwf	??_defineGPIODirection+1
  2593  073A  01F5               	clrf	??_defineGPIODirection+2
  2594                           
  2595                           ; Switch on 2 bytes has been partitioned into a top level switch of size 1, and 1 sub-sw
      +                          itches
  2596                           ; Switch size 1, requested type "simple"
  2597                           ; Number of cases is 1, Range of values is 0 to 0
  2598                           ; switch strategies available:
  2599                           ; Name         Instructions Cycles
  2600                           ; simple_byte            4     3 (average)
  2601                           ; direct_byte            8     6 (fixed)
  2602                           ; jumptable            260     6 (fixed)
  2603                           ;	Chosen strategy is simple_byte
  2604  073B  0875               	movf	??_defineGPIODirection+2,w
  2605  073C  3A00               	xorlw	0	; case 0
  2606  073D  1903               	skipnz
  2607  073E  2F40               	goto	l1171
  2608  073F  2F2A               	goto	l1005
  2609  0740                     l1171:	
  2610                           
  2611                           ; Switch size 1, requested type "simple"
  2612                           ; Number of cases is 17, Range of values is 0 to 16
  2613                           ; switch strategies available:
  2614                           ; Name         Instructions Cycles
  2615                           ; direct_byte           40     6 (fixed)
  2616                           ; simple_byte           52    27 (average)
  2617                           ; jumptable            260     6 (fixed)
  2618                           ;	Chosen strategy is simple_byte
  2619  0740  0874               	movf	??_defineGPIODirection+1,w
  2620  0741  3A00               	xorlw	0	; case 0
  2621  0742  1903               	skipnz
  2622  0743  2EC5               	goto	l58
  2623  0744  3A01               	xorlw	1	; case 1
  2624  0745  1903               	skipnz
  2625  0746  2ECB               	goto	l60
  2626  0747  3A03               	xorlw	3	; case 2
  2627  0748  1903               	skipnz
  2628  0749  2ED1               	goto	l61
  2629  074A  3A01               	xorlw	1	; case 3
  2630  074B  1903               	skipnz
  2631  074C  2ED7               	goto	l62
  2632  074D  3A07               	xorlw	7	; case 4
  2633  074E  1903               	skipnz
  2634  074F  2EDD               	goto	l63
  2635  0750  3A01               	xorlw	1	; case 5
  2636  0751  1903               	skipnz
  2637  0752  2EE3               	goto	l64
  2638  0753  3A03               	xorlw	3	; case 6
  2639  0754  1903               	skipnz
  2640  0755  2EE9               	goto	l65
  2641  0756  3A01               	xorlw	1	; case 7
  2642  0757  1903               	skipnz
  2643  0758  2EEF               	goto	l66
  2644  0759  3A0F               	xorlw	15	; case 8
  2645  075A  1903               	skipnz
  2646  075B  2EF5               	goto	l67
  2647  075C  3A01               	xorlw	1	; case 9
  2648  075D  1903               	skipnz
  2649  075E  2EFB               	goto	l68
  2650  075F  3A03               	xorlw	3	; case 10
  2651  0760  1903               	skipnz
  2652  0761  2F01               	goto	l69
  2653  0762  3A01               	xorlw	1	; case 11
  2654  0763  1903               	skipnz
  2655  0764  2F07               	goto	l70
  2656  0765  3A07               	xorlw	7	; case 12
  2657  0766  1903               	skipnz
  2658  0767  2F0D               	goto	l71
  2659  0768  3A01               	xorlw	1	; case 13
  2660  0769  1903               	skipnz
  2661  076A  2F13               	goto	l72
  2662  076B  3A03               	xorlw	3	; case 14
  2663  076C  1903               	skipnz
  2664  076D  2F19               	goto	l73
  2665  076E  3A01               	xorlw	1	; case 15
  2666  076F  1903               	skipnz
  2667  0770  2F1F               	goto	l74
  2668  0771  3A1F               	xorlw	31	; case 16
  2669  0772  1903               	skipnz
  2670  0773  2F25               	goto	l75
  2671  0774  2F2A               	goto	l1005
  2672  0775  2F2A               	goto	l1005
  2673  0776                     l1009:	
  2674                           
  2675                           ;pins.c: 108:     for(i = 0; i < outputLength; i++) {
  2676  0776  01F7               	clrf	defineGPIODirection@i
  2677  0777  2FAE               	goto	l1015
  2678  0778                     l80:	
  2679                           ;pins.c: 110:             case PINA0 :
  2680                           
  2681                           
  2682                           ;pins.c: 111:                 TRISAbits.TRISA0 = 0;
  2683  0778  0140               	movlb	0	; select bank0
  2684  0779  1012               	bcf	18,0	;volatile
  2685                           
  2686                           ;pins.c: 112:                 break;
  2687  077A  2FAA               	goto	l1013
  2688  077B                     l82:	
  2689                           ;pins.c: 113:             case PINA1 :
  2690                           
  2691                           
  2692                           ;pins.c: 114:                 TRISAbits.TRISA1 = 0;
  2693  077B  0140               	movlb	0	; select bank0
  2694  077C  1092               	bcf	18,1	;volatile
  2695                           
  2696                           ;pins.c: 115:                 break;
  2697  077D  2FAA               	goto	l1013
  2698  077E                     l83:	
  2699                           ;pins.c: 116:             case PINA2 :
  2700                           
  2701                           
  2702                           ;pins.c: 117:                 TRISAbits.TRISA2 = 0;
  2703  077E  0140               	movlb	0	; select bank0
  2704  077F  1112               	bcf	18,2	;volatile
  2705                           
  2706                           ;pins.c: 118:                 break;
  2707  0780  2FAA               	goto	l1013
  2708  0781                     l84:	
  2709                           ;pins.c: 119:             case PINA4 :
  2710                           
  2711                           
  2712                           ;pins.c: 120:                 TRISAbits.TRISA4 = 0;
  2713  0781  0140               	movlb	0	; select bank0
  2714  0782  1212               	bcf	18,4	;volatile
  2715                           
  2716                           ;pins.c: 121:                 break;
  2717  0783  2FAA               	goto	l1013
  2718  0784                     l85:	
  2719                           ;pins.c: 122:             case PINA5 :
  2720                           
  2721                           
  2722                           ;pins.c: 123:                 TRISAbits.TRISA5 = 0;
  2723  0784  0140               	movlb	0	; select bank0
  2724  0785  1292               	bcf	18,5	;volatile
  2725                           
  2726                           ;pins.c: 124:                 break;
  2727  0786  2FAA               	goto	l1013
  2728  0787                     l86:	
  2729                           ;pins.c: 125:             case PINB4 :
  2730                           
  2731                           
  2732                           ;pins.c: 126:                 TRISBbits.TRISB4 = 0;
  2733  0787  0140               	movlb	0	; select bank0
  2734  0788  1213               	bcf	19,4	;volatile
  2735                           
  2736                           ;pins.c: 127:                 break;
  2737  0789  2FAA               	goto	l1013
  2738  078A                     l87:	
  2739                           ;pins.c: 128:             case PINB5 :
  2740                           
  2741                           
  2742                           ;pins.c: 129:                 TRISBbits.TRISB5 = 0;
  2743  078A  0140               	movlb	0	; select bank0
  2744  078B  1293               	bcf	19,5	;volatile
  2745                           
  2746                           ;pins.c: 130:                 break;
  2747  078C  2FAA               	goto	l1013
  2748  078D                     l88:	
  2749                           ;pins.c: 131:             case PINB6 :
  2750                           
  2751                           
  2752                           ;pins.c: 132:                 TRISBbits.TRISB6 = 0;
  2753  078D  0140               	movlb	0	; select bank0
  2754  078E  1313               	bcf	19,6	;volatile
  2755                           
  2756                           ;pins.c: 133:                 break;
  2757  078F  2FAA               	goto	l1013
  2758  0790                     l89:	
  2759                           ;pins.c: 134:             case PINB7 :
  2760                           
  2761                           
  2762                           ;pins.c: 135:                 TRISBbits.TRISB7 = 0;
  2763  0790  0140               	movlb	0	; select bank0
  2764  0791  1393               	bcf	19,7	;volatile
  2765                           
  2766                           ;pins.c: 136:                 break;
  2767  0792  2FAA               	goto	l1013
  2768  0793                     l90:	
  2769                           ;pins.c: 137:             case PINC0 :
  2770                           
  2771                           
  2772                           ;pins.c: 138:                 TRISCbits.TRISC0 = 0;
  2773  0793  0140               	movlb	0	; select bank0
  2774  0794  1014               	bcf	20,0	;volatile
  2775                           
  2776                           ;pins.c: 139:                 break;
  2777  0795  2FAA               	goto	l1013
  2778  0796                     l91:	
  2779                           ;pins.c: 140:             case PINC1 :
  2780                           
  2781                           
  2782                           ;pins.c: 141:                 TRISCbits.TRISC1 = 0;
  2783  0796  0140               	movlb	0	; select bank0
  2784  0797  1094               	bcf	20,1	;volatile
  2785                           
  2786                           ;pins.c: 142:                 break;
  2787  0798  2FAA               	goto	l1013
  2788  0799                     l92:	
  2789                           ;pins.c: 143:             case PINC2 :
  2790                           
  2791                           
  2792                           ;pins.c: 144:                 TRISCbits.TRISC2 = 0;
  2793  0799  0140               	movlb	0	; select bank0
  2794  079A  1114               	bcf	20,2	;volatile
  2795                           
  2796                           ;pins.c: 145:                 break;
  2797  079B  2FAA               	goto	l1013
  2798  079C                     l93:	
  2799                           ;pins.c: 146:             case PINC3 :
  2800                           
  2801                           
  2802                           ;pins.c: 147:                 TRISCbits.TRISC3 = 0;
  2803  079C  0140               	movlb	0	; select bank0
  2804  079D  1194               	bcf	20,3	;volatile
  2805                           
  2806                           ;pins.c: 148:                 break;
  2807  079E  2FAA               	goto	l1013
  2808  079F                     l94:	
  2809                           ;pins.c: 149:             case PINC4 :
  2810                           
  2811                           
  2812                           ;pins.c: 150:                 TRISCbits.TRISC4 = 0;
  2813  079F  0140               	movlb	0	; select bank0
  2814  07A0  1214               	bcf	20,4	;volatile
  2815                           
  2816                           ;pins.c: 151:                 break;
  2817  07A1  2FAA               	goto	l1013
  2818  07A2                     l95:	
  2819                           ;pins.c: 152:             case PINC5 :
  2820                           
  2821                           
  2822                           ;pins.c: 153:                 TRISCbits.TRISC5 = 0;
  2823  07A2  0140               	movlb	0	; select bank0
  2824  07A3  1294               	bcf	20,5	;volatile
  2825                           
  2826                           ;pins.c: 154:                 break;
  2827  07A4  2FAA               	goto	l1013
  2828  07A5                     l96:	
  2829                           ;pins.c: 155:             case PINC6 :
  2830                           
  2831                           
  2832                           ;pins.c: 156:                 TRISCbits.TRISC6 = 0;
  2833  07A5  0140               	movlb	0	; select bank0
  2834  07A6  1314               	bcf	20,6	;volatile
  2835                           
  2836                           ;pins.c: 157:                 break;
  2837  07A7  2FAA               	goto	l1013
  2838  07A8                     l97:	
  2839                           ;pins.c: 158:             case PINC7 :
  2840                           
  2841                           
  2842                           ;pins.c: 159:                 TRISCbits.TRISC7 = 0;
  2843  07A8  0140               	movlb	0	; select bank0
  2844  07A9  1394               	bcf	20,7	;volatile
  2845  07AA                     l1013:	
  2846                           ;pins.c: 160:         }
  2847                           
  2848                           
  2849                           ;pins.c: 161:     }
  2850  07AA  3001               	movlw	1
  2851  07AB  00F3               	movwf	??_defineGPIODirection
  2852  07AC  0873               	movf	??_defineGPIODirection,w
  2853  07AD  07F7               	addwf	defineGPIODirection@i,f
  2854  07AE                     l1015:	
  2855  07AE  0872               	movf	defineGPIODirection@outputLength,w
  2856  07AF  0277               	subwf	defineGPIODirection@i,w
  2857  07B0  1803               	btfsc	3,0
  2858  07B1  0008               	return
  2859  07B2  0877               	movf	defineGPIODirection@i,w
  2860  07B3  0770               	addwf	defineGPIODirection@output,w
  2861  07B4  00F3               	movwf	??_defineGPIODirection
  2862  07B5  0873               	movf	??_defineGPIODirection,w
  2863  07B6  0086               	movwf	6
  2864  07B7  0187               	clrf	7
  2865  07B8  0801               	movf	1,w
  2866  07B9  00F4               	movwf	??_defineGPIODirection+1
  2867  07BA  01F5               	clrf	??_defineGPIODirection+2
  2868                           
  2869                           ; Switch on 2 bytes has been partitioned into a top level switch of size 1, and 1 sub-sw
      +                          itches
  2870                           ; Switch size 1, requested type "simple"
  2871                           ; Number of cases is 1, Range of values is 0 to 0
  2872                           ; switch strategies available:
  2873                           ; Name         Instructions Cycles
  2874                           ; simple_byte            4     3 (average)
  2875                           ; direct_byte            8     6 (fixed)
  2876                           ; jumptable            260     6 (fixed)
  2877                           ;	Chosen strategy is simple_byte
  2878  07BB  0875               	movf	??_defineGPIODirection+2,w
  2879  07BC  3A00               	xorlw	0	; case 0
  2880  07BD  1903               	skipnz
  2881  07BE  2FC0               	goto	l1173
  2882  07BF  2FAA               	goto	l1013
  2883  07C0                     l1173:	
  2884                           
  2885                           ; Switch size 1, requested type "simple"
  2886                           ; Number of cases is 17, Range of values is 0 to 16
  2887                           ; switch strategies available:
  2888                           ; Name         Instructions Cycles
  2889                           ; direct_byte           40     6 (fixed)
  2890                           ; simple_byte           52    27 (average)
  2891                           ; jumptable            260     6 (fixed)
  2892                           ;	Chosen strategy is simple_byte
  2893  07C0  0874               	movf	??_defineGPIODirection+1,w
  2894  07C1  3A00               	xorlw	0	; case 0
  2895  07C2  1903               	skipnz
  2896  07C3  2F78               	goto	l80
  2897  07C4  3A01               	xorlw	1	; case 1
  2898  07C5  1903               	skipnz
  2899  07C6  2F7B               	goto	l82
  2900  07C7  3A03               	xorlw	3	; case 2
  2901  07C8  1903               	skipnz
  2902  07C9  2F7E               	goto	l83
  2903  07CA  3A01               	xorlw	1	; case 3
  2904  07CB  1903               	skipnz
  2905  07CC  2F81               	goto	l84
  2906  07CD  3A07               	xorlw	7	; case 4
  2907  07CE  1903               	skipnz
  2908  07CF  2F84               	goto	l85
  2909  07D0  3A01               	xorlw	1	; case 5
  2910  07D1  1903               	skipnz
  2911  07D2  2F87               	goto	l86
  2912  07D3  3A03               	xorlw	3	; case 6
  2913  07D4  1903               	skipnz
  2914  07D5  2F8A               	goto	l87
  2915  07D6  3A01               	xorlw	1	; case 7
  2916  07D7  1903               	skipnz
  2917  07D8  2F8D               	goto	l88
  2918  07D9  3A0F               	xorlw	15	; case 8
  2919  07DA  1903               	skipnz
  2920  07DB  2F90               	goto	l89
  2921  07DC  3A01               	xorlw	1	; case 9
  2922  07DD  1903               	skipnz
  2923  07DE  2F93               	goto	l90
  2924  07DF  3A03               	xorlw	3	; case 10
  2925  07E0  1903               	skipnz
  2926  07E1  2F96               	goto	l91
  2927  07E2  3A01               	xorlw	1	; case 11
  2928  07E3  1903               	skipnz
  2929  07E4  2F99               	goto	l92
  2930  07E5  3A07               	xorlw	7	; case 12
  2931  07E6  1903               	skipnz
  2932  07E7  2F9C               	goto	l93
  2933  07E8  3A01               	xorlw	1	; case 13
  2934  07E9  1903               	skipnz
  2935  07EA  2F9F               	goto	l94
  2936  07EB  3A03               	xorlw	3	; case 14
  2937  07EC  1903               	skipnz
  2938  07ED  2FA2               	goto	l95
  2939  07EE  3A01               	xorlw	1	; case 15
  2940  07EF  1903               	skipnz
  2941  07F0  2FA5               	goto	l96
  2942  07F1  3A1F               	xorlw	31	; case 16
  2943  07F2  1903               	skipnz
  2944  07F3  2FA8               	goto	l97
  2945  07F4  2FAA               	goto	l1013
  2946  07F5  2FAA               	goto	l1013
  2947  07F6                     __end_of_defineGPIODirection:	
  2948  007E                     btemp	set	126	;btemp
  2949  007E                     wtemp0	set	126


Data Sizes:
    Strings     0
    Constant    0
    Data        2
    BSS         0
    Persistent  32
    Stack       0

Auto Spaces:
    Space          Size  Autos    Used
    COMMON           14     12      14
    BANK0            80      0       0
    BANK1            80      0       0
    BANK2            80      0       0
    BANK3            80      0       0
    BANK4            80      0       0
    BANK5            80      0       0
    BANK6            80      0       0
    BANK7            80      0       0
    BANK8            80      0       0
    BANK9            80      0       0
    BANK10           80      0       0
    BANK11           80      0       0
    BANK12           80      0       0
    BANK13           80      0       0
    BANK14           80      0       0
    BANK15           80      0       0
    BANK16           80      0       0
    BANK17           80      0       0
    BANK18           80      0       0
    BANK19           80      0       0
    BANK20           80      0       0
    BANK21           80      0       0
    BANK22           80      0       0
    BANK23           80      0       0
    BANK24           80      0       0
    BANK25           32      0       0

Pointer List with Targets:

    defineGPIODirection@output	PTR enum E11183 size(1) Largest target is 1
		 -> main@output(COMMON[1]), 

    defineGPIODirection@input	PTR enum E11183 size(1) Largest target is 1
		 -> main@input(COMMON[1]), 


Critical Paths under _main in COMMON

    _main->_defineGPIODirection

Critical Paths under _main in BANK0

    None.

Critical Paths under _main in BANK1

    None.

Critical Paths under _main in BANK2

    None.

Critical Paths under _main in BANK3

    None.

Critical Paths under _main in BANK4

    None.

Critical Paths under _main in BANK5

    None.

Critical Paths under _main in BANK6

    None.

Critical Paths under _main in BANK7

    None.

Critical Paths under _main in BANK8

    None.

Critical Paths under _main in BANK9

    None.

Critical Paths under _main in BANK10

    None.

Critical Paths under _main in BANK11

    None.

Critical Paths under _main in BANK12

    None.

Critical Paths under _main in BANK13

    None.

Critical Paths under _main in BANK14

    None.

Critical Paths under _main in BANK15

    None.

Critical Paths under _main in BANK16

    None.

Critical Paths under _main in BANK17

    None.

Critical Paths under _main in BANK18

    None.

Critical Paths under _main in BANK19

    None.

Critical Paths under _main in BANK20

    None.

Critical Paths under _main in BANK21

    None.

Critical Paths under _main in BANK22

    None.

Critical Paths under _main in BANK23

    None.

Critical Paths under _main in BANK24

    None.

Critical Paths under _main in BANK25

    None.

Call Graph Tables:

 ---------------------------------------------------------------------------------
 (Depth) Function   	        Calls       Base Space   Used Autos Params    Refs
 ---------------------------------------------------------------------------------
 (0) _main                                                 4     4      0    1077
                                              8 COMMON     4     4      0
                _defineGPIODirection
                            _readPin
                           _writePin
 ---------------------------------------------------------------------------------
 (1) _writePin                                             4     3      1     548
                                              0 COMMON     4     3      1
 ---------------------------------------------------------------------------------
 (1) _readPin                                              3     3      0      15
                                              0 COMMON     3     3      0
 ---------------------------------------------------------------------------------
 (1) _defineGPIODirection                                  8     5      3     441
                                              0 COMMON     8     5      3
 ---------------------------------------------------------------------------------
 Estimated maximum stack depth 1
 ---------------------------------------------------------------------------------

 Call Graph Graphs:

 _main (ROOT)
   _defineGPIODirection
   _readPin
   _writePin

 Address spaces:
Name               Size   Autos  Total    Cost      Usage
BIGRAM             7F0      0       0       0        0.0%
EEDATA             100      0       0       0        0.0%
NULL                 0      0       0       0        0.0%
CODE                 0      0       0       0        0.0%
BITCOMMON            E      0       0       1        0.0%
BITSFR0              0      0       0       1        0.0%
SFR0                 0      0       0       1        0.0%
COMMON               E      C       E       2      100.0%
BITSFR1              0      0       0       2        0.0%
SFR1                 0      0       0       2        0.0%
BITSFR2              0      0       0       3        0.0%
SFR2                 0      0       0       3        0.0%
STACK                0      0       0       3        0.0%
BITBANK0            50      0       0       4        0.0%
BITSFR3              0      0       0       4        0.0%
SFR3                 0      0       0       4        0.0%
BANK0               50      0       0       5        0.0%
BITSFR4              0      0       0       5        0.0%
SFR4                 0      0       0       5        0.0%
BITSFR5              0      0       0       6        0.0%
SFR5                 0      0       0       6        0.0%
ABS                  0      0       E       6        0.0%
BITBANK1            50      0       0       7        0.0%
BITSFR6              0      0       0       7        0.0%
SFR6                 0      0       0       7        0.0%
BANK1               50      0       0       8        0.0%
BITSFR7              0      0       0       8        0.0%
SFR7                 0      0       0       8        0.0%
BITBANK2            50      0       0       9        0.0%
BITSFR8              0      0       0       9        0.0%
SFR8                 0      0       0       9        0.0%
BANK2               50      0       0      10        0.0%
BITSFR9              0      0       0      10        0.0%
SFR9                 0      0       0      10        0.0%
BITBANK3            50      0       0      11        0.0%
BITSFR10             0      0       0      11        0.0%
SFR10                0      0       0      11        0.0%
BANK3               50      0       0      12        0.0%
BITSFR11             0      0       0      12        0.0%
SFR11                0      0       0      12        0.0%
BITBANK4            50      0       0      13        0.0%
BITSFR12             0      0       0      13        0.0%
SFR12                0      0       0      13        0.0%
BANK4               50      0       0      14        0.0%
BITSFR13             0      0       0      14        0.0%
SFR13                0      0       0      14        0.0%
BITBANK5            50      0       0      15        0.0%
BITSFR14             0      0       0      15        0.0%
SFR14                0      0       0      15        0.0%
BANK5               50      0       0      16        0.0%
BITSFR15             0      0       0      16        0.0%
SFR15                0      0       0      16        0.0%
BITBANK6            50      0       0      17        0.0%
BITSFR16             0      0       0      17        0.0%
SFR16                0      0       0      17        0.0%
BANK6               50      0       0      18        0.0%
BITSFR17             0      0       0      18        0.0%
SFR17                0      0       0      18        0.0%
BITBANK7            50      0       0      19        0.0%
BITSFR18             0      0       0      19        0.0%
SFR18                0      0       0      19        0.0%
BANK7               50      0       0      20        0.0%
BITSFR19             0      0       0      20        0.0%
SFR19                0      0       0      20        0.0%
BITBANK8            50      0       0      21        0.0%
BITSFR20             0      0       0      21        0.0%
SFR20                0      0       0      21        0.0%
BANK8               50      0       0      22        0.0%
BITSFR21             0      0       0      22        0.0%
SFR21                0      0       0      22        0.0%
BITBANK9            50      0       0      23        0.0%
BITSFR22             0      0       0      23        0.0%
SFR22                0      0       0      23        0.0%
BANK9               50      0       0      24        0.0%
BITSFR23             0      0       0      24        0.0%
SFR23                0      0       0      24        0.0%
BITBANK10           50      0       0      25        0.0%
BITSFR24             0      0       0      25        0.0%
SFR24                0      0       0      25        0.0%
BANK10              50      0       0      26        0.0%
BITSFR25             0      0       0      26        0.0%
SFR25                0      0       0      26        0.0%
BITBANK11           50      0       0      27        0.0%
BITSFR26             0      0       0      27        0.0%
SFR26                0      0       0      27        0.0%
BANK11              50      0       0      28        0.0%
BITSFR27             0      0       0      28        0.0%
SFR27                0      0       0      28        0.0%
BITBANK12           50      0       0      29        0.0%
BITSFR28             0      0       0      29        0.0%
SFR28                0      0       0      29        0.0%
BANK12              50      0       0      30        0.0%
BITSFR29             0      0       0      30        0.0%
SFR29                0      0       0      30        0.0%
BITBANK13           50      0       0      31        0.0%
BITSFR30             0      0       0      31        0.0%
SFR30                0      0       0      31        0.0%
BANK13              50      0       0      32        0.0%
BITSFR31             0      0       0      32        0.0%
SFR31                0      0       0      32        0.0%
BITBANK14           50      0       0      33        0.0%
BITSFR32             0      0       0      33        0.0%
SFR32                0      0       0      33        0.0%
BANK14              50      0       0      34        0.0%
BITSFR33             0      0       0      34        0.0%
SFR33                0      0       0      34        0.0%
BITBANK15           50      0       0      35        0.0%
BITSFR34             0      0       0      35        0.0%
SFR34                0      0       0      35        0.0%
BANK15              50      0       0      36        0.0%
BITSFR35             0      0       0      36        0.0%
SFR35                0      0       0      36        0.0%
BITBANK16           50      0       0      37        0.0%
BITSFR36             0      0       0      37        0.0%
SFR36                0      0       0      37        0.0%
BANK16              50      0       0      38        0.0%
BITSFR37             0      0       0      38        0.0%
SFR37                0      0       0      38        0.0%
BITBANK17           50      0       0      39        0.0%
BITSFR38             0      0       0      39        0.0%
SFR38                0      0       0      39        0.0%
BANK17              50      0       0      40        0.0%
BITSFR39             0      0       0      40        0.0%
SFR39                0      0       0      40        0.0%
BITBANK18           50      0       0      41        0.0%
BITSFR40             0      0       0      41        0.0%
SFR40                0      0       0      41        0.0%
BANK18              50      0       0      42        0.0%
BITSFR41             0      0       0      42        0.0%
SFR41                0      0       0      42        0.0%
BITBANK19           50      0       0      43        0.0%
BITSFR42             0      0       0      43        0.0%
SFR42                0      0       0      43        0.0%
BANK19              50      0       0      44        0.0%
BITSFR43             0      0       0      44        0.0%
SFR43                0      0       0      44        0.0%
BITBANK20           50      0       0      45        0.0%
BITSFR44             0      0       0      45        0.0%
SFR44                0      0       0      45        0.0%
BANK20              50      0       0      46        0.0%
BITSFR45             0      0       0      46        0.0%
SFR45                0      0       0      46        0.0%
BITBANK21           50      0       0      47        0.0%
BITSFR46             0      0       0      47        0.0%
SFR46                0      0       0      47        0.0%
BANK21              50      0       0      48        0.0%
BITSFR47             0      0       0      48        0.0%
SFR47                0      0       0      48        0.0%
BITBANK22           50      0       0      49        0.0%
BITSFR48             0      0       0      49        0.0%
SFR48                0      0       0      49        0.0%
BANK22              50      0       0      50        0.0%
BITSFR49             0      0       0      50        0.0%
SFR49                0      0       0      50        0.0%
BITBANK23           50      0       0      51        0.0%
BITSFR50             0      0       0      51        0.0%
SFR50                0      0       0      51        0.0%
BANK23              50      0       0      52        0.0%
BITSFR51             0      0       0      52        0.0%
SFR51                0      0       0      52        0.0%
BITBANK24           50      0       0      53        0.0%
BITSFR52             0      0       0      53        0.0%
SFR52                0      0       0      53        0.0%
BANK24              50      0       0      54        0.0%
BITSFR53             0      0       0      54        0.0%
SFR53                0      0       0      54        0.0%
BITBANK25           20      0       0      55        0.0%
BITSFR54             0      0       0      55        0.0%
SFR54                0      0       0      55        0.0%
BANK25              20      0       0      56        0.0%
BITSFR55             0      0       0      56        0.0%
SFR55                0      0       0      56        0.0%
BITSFR56             0      0       0      57        0.0%
SFR56                0      0       0      57        0.0%
DATA                 0      0       E      57        0.0%
BITSFR57             0      0       0      58        0.0%
SFR57                0      0       0      58        0.0%
BITSFR58             0      0       0      59        0.0%
SFR58                0      0       0      59        0.0%
BITSFR59             0      0       0      60        0.0%
SFR59                0      0       0      60        0.0%
BITSFR60             0      0       0      61        0.0%
SFR60                0      0       0      61        0.0%
BITSFR61             0      0       0      62        0.0%
SFR61                0      0       0      62        0.0%
BITSFR62             0      0       0      63        0.0%
SFR62                0      0       0      63        0.0%
BITSFR63             0      0       0      64        0.0%
SFR63                0      0       0      64        0.0%


Microchip Technology PIC Macro Assembler V2.05 build -831301201 
Symbol Table                                                                                   Fri Mar 27 23:59:57 2020

                             l60 06CB                               l61 06D1                               l70 0707  
                             l62 06D7                               l71 070D                               l63 06DD  
                             l80 0778                               l72 0713                               l64 06E3  
                             l73 0719                               l65 06E9                               l90 0793  
                             l82 077B                               l74 071F                               l66 06EF  
                             l58 06C5                               l91 0796                               l83 077E  
                             l75 0725                               l67 06F5                               l92 0799  
                             l84 0781                               l68 06FB                               l93 079C  
                             l85 0784                               l69 0701                               l94 079F  
                             l86 0787                               l95 07A2                               l87 078A  
                             l96 07A5                               l88 078D                               l97 07A8  
                             l89 0790                              l104 060A                              l143 06C1  
                            l801 0591                              l821 05A9                              l813 05A0  
                            l805 0595                              l841 05C2                              l833 05B9  
                            l825 05AD                              l817 05A5                              l809 059A  
                            l851 05CD                              l845 05C8                              l837 05BD  
                            l829 05B2                              l781 057B                              l793 0588  
                            l785 057F                              l797 058C                              l789 0583  
                            wreg 0009                             l1013 07AA                             l1005 072A  
                           l1015 07AE                             l1007 072E                             l1031 061B  
                           l1009 0776                             l1041 063E                             l1033 0622  
                           l1051 0661                             l1043 0645                             l1035 0629  
                           l1027 060D                             l1053 0668                             l1045 064C  
                           l1037 0630                             l1029 0614                             l1055 066F  
                           l1047 0653                             l1039 0637                             l1063 0684  
                           l1057 0676                             l1049 065A                             l1081 0569  
                           l1171 0740                             l1059 067D                             l1075 055E  
                           l1173 07C0                             l1085 0573                             l1167 068C  
                           l1079 0568                             l1169 05D5                             _main 054A  
                           fsr1h 0007                             indf1 0001                             fsr1l 0006  
                           btemp 007E                             start 0002                            ?_main 0070  
 defineGPIODirection@inputLength 0071                  __end_of_readPin 060B                            status 0003  
                          wtemp0 007E                  __initialization 07F6                     __end_of_main 0579  
                         ??_main 0078                      readPin@read 0072                        ??_readPin 0070  
                   __pdataCOMMON 007C                 __end_of_writePin 06C2          __end_of__initialization 07FD  
                 __pcstackCOMMON 0070     __size_of_defineGPIODirection 0134                       __pmaintext 054A  
                        __ptext1 060B                          __ptext2 0579                          __ptext3 06C2  
                      ?_writePin 0070                          _readPin 0579                          main@led 007B  
           end_of_initialization 07FD                       main@F11213 007D                       main@F11215 007C  
                      _PORTAbits 000C                        _PORTBbits 000D                       ??_writePin 0071  
                      _PORTCbits 000E         defineGPIODirection@input 0076                        _TRISAbits 0012  
                      _TRISBbits 0013                        _TRISCbits 0014                       main@output 007A  
                  __pidataCOMMON 0548  defineGPIODirection@outputLength 0072              _defineGPIODirection 06C2  
            start_initialization 07F6        defineGPIODirection@output 0070             ?_defineGPIODirection 0070  
                      ___latbits 0003            ??_defineGPIODirection 0073                         ?_readPin 0070  
              __size_of_writePin 00B7                         _LATAbits 0018                         _LATBbits 0019  
                       _LATCbits 001A                         _WPUAbits 1F39                         _WPUBbits 1F44  
                       _WPUCbits 1F4F                        main@input 0079             defineGPIODirection@i 0077  
                     _ANSELAbits 1F38                       _ANSELBbits 1F43                       _ANSELCbits 1F4E  
               __size_of_readPin 0092                    __size_of_main 002F                         _writePin 060B  
    __end_of_defineGPIODirection 07F6                    writePin@value 0070                    writePin@write 0073  
