

Microchip MPLAB XC8 Assembler V2.05 build -831301201 
                                                                                               Fri Mar 27 23:31:17 2020

Microchip MPLAB XC8 C Compiler v2.05 (Free license) build 20181220022703 Og1 
     1                           	processor	16F18446
     2                           	opt	pw 120
     3                           	opt	flic
     4                           	psect	idataCOMMON,global,class=CODE,delta=2
     5                           	psect	cinit,global,class=CODE,merge=1,delta=2
     6                           	psect	dataCOMMON,global,class=COMMON,space=1,delta=1
     7                           	psect	cstackCOMMON,global,class=COMMON,space=1,delta=1
     8                           	psect	maintext,global,class=CODE,merge=1,split=1,delta=2
     9                           	psect	text1,local,class=CODE,merge=1,delta=2
    10                           	dabs	1,0x7E,2
    11  0000                     
    12                           ; Version 2.05
    13                           ; Generated 20/12/2018 GMT
    14                           ; 
    15                           ; Copyright © 2018, Microchip Technology Inc. and its subsidiaries ("Microchip")
    16                           ; All rights reserved.
    17                           ; 
    18                           ; This software is developed by Microchip Technology Inc. and its subsidiaries ("Microch
      +                          ip").
    19                           ; 
    20                           ; Redistribution and use in source and binary forms, with or without modification, are
    21                           ; permitted provided that the following conditions are met:
    22                           ; 
    23                           ;     1. Redistributions of source code must retain the above copyright notice, this lis
      +                          t of
    24                           ;        conditions and the following disclaimer.
    25                           ; 
    26                           ;     2. Redistributions in binary form must reproduce the above copyright notice, this 
      +                          list
    27                           ;        of conditions and the following disclaimer in the documentation and/or other
    28                           ;        materials provided with the distribution.
    29                           ; 
    30                           ;     3. Microchip's name may not be used to endorse or promote products derived from th
      +                          is
    31                           ;        software without specific prior written permission.
    32                           ; 
    33                           ; THIS SOFTWARE IS PROVIDED BY MICROCHIP "AS IS" AND ANY EXPRESS OR IMPLIED WARRANTIES,
    34                           ; INCLUDING, BUT NOT LIMITED TO, THE IMPLIED WARRANTIES OF MERCHANTABILITY AND FITNESS F
      +                          OR
    35                           ; PURPOSE ARE DISCLAIMED.  IN NO EVENT SHALL MICROCHIP BE LIABLE FOR ANY DIRECT, INDIREC
      +                          T,
    36                           ; INCIDENTAL, SPECIAL, EXEMPLARY, OR CONSEQUENTIAL DAMAGES (INCLUDING BUT NOT LIMITED TO
    37                           ; PROCUREMENT OF SUBSTITUTE GOODS OR SERVICES; LOSS OF USE, DATA OR PROFITS; OR BUSINESS
    38                           ; INTERRUPTION) HOWSOEVER CAUSED AND ON ANY THEORY OF LIABILITY, WHETHER IN CONTRACT, ST
      +                          RICT
    39                           ; LIABILITY, OR TORT (INCLUDING NEGLIGENCE OR OTHERWISE) ARISING IN ANY WAY OUT OF THE U
      +                          SE OF
    40                           ; THIS SOFTWARE, EVEN IF ADVISED OF THE POSSIBILITY OF SUCH DAMAGE.
    41                           ; 
    42                           ; 
    43                           ; Code-generator required, PIC16F18446 Definitions
    44                           ; 
    45                           ; SFR Addresses
    46  0000                     	;# 
    47  0001                     	;# 
    48  0002                     	;# 
    49  0003                     	;# 
    50  0004                     	;# 
    51  0005                     	;# 
    52  0006                     	;# 
    53  0007                     	;# 
    54  0008                     	;# 
    55  0009                     	;# 
    56  000A                     	;# 
    57  000B                     	;# 
    58  000C                     	;# 
    59  000D                     	;# 
    60  000E                     	;# 
    61  0012                     	;# 
    62  0013                     	;# 
    63  0014                     	;# 
    64  0018                     	;# 
    65  0019                     	;# 
    66  001A                     	;# 
    67  008C                     	;# 
    68  008C                     	;# 
    69  008D                     	;# 
    70  008E                     	;# 
    71  008E                     	;# 
    72  008F                     	;# 
    73  0090                     	;# 
    74  0090                     	;# 
    75  0091                     	;# 
    76  0092                     	;# 
    77  0092                     	;# 
    78  0093                     	;# 
    79  0094                     	;# 
    80  0094                     	;# 
    81  0095                     	;# 
    82  0096                     	;# 
    83  0096                     	;# 
    84  0097                     	;# 
    85  0098                     	;# 
    86  0099                     	;# 
    87  009A                     	;# 
    88  009B                     	;# 
    89  009B                     	;# 
    90  009C                     	;# 
    91  009D                     	;# 
    92  009D                     	;# 
    93  009E                     	;# 
    94  009F                     	;# 
    95  010C                     	;# 
    96  010C                     	;# 
    97  010D                     	;# 
    98  010E                     	;# 
    99  010F                     	;# 
   100  010F                     	;# 
   101  0110                     	;# 
   102  0111                     	;# 
   103  0112                     	;# 
   104  0113                     	;# 
   105  0114                     	;# 
   106  0115                     	;# 
   107  0116                     	;# 
   108  0117                     	;# 
   109  0118                     	;# 
   110  0119                     	;# 
   111  0119                     	;# 
   112  0119                     	;# 
   113  011A                     	;# 
   114  011A                     	;# 
   115  011A                     	;# 
   116  011B                     	;# 
   117  011B                     	;# 
   118  011B                     	;# 
   119  011B                     	;# 
   120  011B                     	;# 
   121  011C                     	;# 
   122  011C                     	;# 
   123  011C                     	;# 
   124  011D                     	;# 
   125  011D                     	;# 
   126  011D                     	;# 
   127  011E                     	;# 
   128  011E                     	;# 
   129  011E                     	;# 
   130  011F                     	;# 
   131  011F                     	;# 
   132  011F                     	;# 
   133  011F                     	;# 
   134  011F                     	;# 
   135  018C                     	;# 
   136  018D                     	;# 
   137  018E                     	;# 
   138  018F                     	;# 
   139  0190                     	;# 
   140  0191                     	;# 
   141  0192                     	;# 
   142  0196                     	;# 
   143  0197                     	;# 
   144  0198                     	;# 
   145  0199                     	;# 
   146  019A                     	;# 
   147  019B                     	;# 
   148  019C                     	;# 
   149  020C                     	;# 
   150  020D                     	;# 
   151  020E                     	;# 
   152  020E                     	;# 
   153  020F                     	;# 
   154  020F                     	;# 
   155  0210                     	;# 
   156  0210                     	;# 
   157  0211                     	;# 
   158  0211                     	;# 
   159  0212                     	;# 
   160  0213                     	;# 
   161  0214                     	;# 
   162  0214                     	;# 
   163  0215                     	;# 
   164  0215                     	;# 
   165  0216                     	;# 
   166  0216                     	;# 
   167  0217                     	;# 
   168  0217                     	;# 
   169  0218                     	;# 
   170  0219                     	;# 
   171  021A                     	;# 
   172  021A                     	;# 
   173  021B                     	;# 
   174  021B                     	;# 
   175  021C                     	;# 
   176  021C                     	;# 
   177  021D                     	;# 
   178  021D                     	;# 
   179  021E                     	;# 
   180  021F                     	;# 
   181  028C                     	;# 
   182  028C                     	;# 
   183  028D                     	;# 
   184  028D                     	;# 
   185  028E                     	;# 
   186  028F                     	;# 
   187  0290                     	;# 
   188  0291                     	;# 
   189  0292                     	;# 
   190  0292                     	;# 
   191  0293                     	;# 
   192  0293                     	;# 
   193  0294                     	;# 
   194  0295                     	;# 
   195  0296                     	;# 
   196  0297                     	;# 
   197  0298                     	;# 
   198  0298                     	;# 
   199  0299                     	;# 
   200  0299                     	;# 
   201  029A                     	;# 
   202  029B                     	;# 
   203  029C                     	;# 
   204  029D                     	;# 
   205  029F                     	;# 
   206  030C                     	;# 
   207  030C                     	;# 
   208  030D                     	;# 
   209  030E                     	;# 
   210  030F                     	;# 
   211  0310                     	;# 
   212  0310                     	;# 
   213  0311                     	;# 
   214  0312                     	;# 
   215  0313                     	;# 
   216  0314                     	;# 
   217  0314                     	;# 
   218  0315                     	;# 
   219  0316                     	;# 
   220  0317                     	;# 
   221  0318                     	;# 
   222  0318                     	;# 
   223  0319                     	;# 
   224  031A                     	;# 
   225  031B                     	;# 
   226  038C                     	;# 
   227  038C                     	;# 
   228  038D                     	;# 
   229  038E                     	;# 
   230  0390                     	;# 
   231  0390                     	;# 
   232  0391                     	;# 
   233  0392                     	;# 
   234  048C                     	;# 
   235  048C                     	;# 
   236  048D                     	;# 
   237  048E                     	;# 
   238  048F                     	;# 
   239  048F                     	;# 
   240  0490                     	;# 
   241  0491                     	;# 
   242  0492                     	;# 
   243  0492                     	;# 
   244  0493                     	;# 
   245  0494                     	;# 
   246  0495                     	;# 
   247  0495                     	;# 
   248  0496                     	;# 
   249  0497                     	;# 
   250  0498                     	;# 
   251  0499                     	;# 
   252  049A                     	;# 
   253  049B                     	;# 
   254  049C                     	;# 
   255  049D                     	;# 
   256  058C                     	;# 
   257  058C                     	;# 
   258  058D                     	;# 
   259  058E                     	;# 
   260  058F                     	;# 
   261  058F                     	;# 
   262  0590                     	;# 
   263  0591                     	;# 
   264  0592                     	;# 
   265  0593                     	;# 
   266  059C                     	;# 
   267  059C                     	;# 
   268  059D                     	;# 
   269  059D                     	;# 
   270  059E                     	;# 
   271  059F                     	;# 
   272  060C                     	;# 
   273  060C                     	;# 
   274  060D                     	;# 
   275  060D                     	;# 
   276  060E                     	;# 
   277  060F                     	;# 
   278  0610                     	;# 
   279  0611                     	;# 
   280  0612                     	;# 
   281  0613                     	;# 
   282  0614                     	;# 
   283  0616                     	;# 
   284  0616                     	;# 
   285  0617                     	;# 
   286  0617                     	;# 
   287  0618                     	;# 
   288  0619                     	;# 
   289  061A                     	;# 
   290  061B                     	;# 
   291  061C                     	;# 
   292  061D                     	;# 
   293  061E                     	;# 
   294  070C                     	;# 
   295  070D                     	;# 
   296  070E                     	;# 
   297  070F                     	;# 
   298  0710                     	;# 
   299  0711                     	;# 
   300  0712                     	;# 
   301  0713                     	;# 
   302  0714                     	;# 
   303  0716                     	;# 
   304  0717                     	;# 
   305  0718                     	;# 
   306  0719                     	;# 
   307  071A                     	;# 
   308  071B                     	;# 
   309  071C                     	;# 
   310  071D                     	;# 
   311  071E                     	;# 
   312  0796                     	;# 
   313  0797                     	;# 
   314  0798                     	;# 
   315  0799                     	;# 
   316  079A                     	;# 
   317  079B                     	;# 
   318  079C                     	;# 
   319  079D                     	;# 
   320  080C                     	;# 
   321  080D                     	;# 
   322  080E                     	;# 
   323  080F                     	;# 
   324  0810                     	;# 
   325  0811                     	;# 
   326  0812                     	;# 
   327  0813                     	;# 
   328  0814                     	;# 
   329  081A                     	;# 
   330  081A                     	;# 
   331  081B                     	;# 
   332  081C                     	;# 
   333  081C                     	;# 
   334  081D                     	;# 
   335  081E                     	;# 
   336  081F                     	;# 
   337  088C                     	;# 
   338  088D                     	;# 
   339  088E                     	;# 
   340  088F                     	;# 
   341  0890                     	;# 
   342  0891                     	;# 
   343  0892                     	;# 
   344  0893                     	;# 
   345  0895                     	;# 
   346  0896                     	;# 
   347  0897                     	;# 
   348  0898                     	;# 
   349  0899                     	;# 
   350  089A                     	;# 
   351  089B                     	;# 
   352  090C                     	;# 
   353  090E                     	;# 
   354  090F                     	;# 
   355  091F                     	;# 
   356  098F                     	;# 
   357  098F                     	;# 
   358  0990                     	;# 
   359  0991                     	;# 
   360  0992                     	;# 
   361  0993                     	;# 
   362  0994                     	;# 
   363  0995                     	;# 
   364  0996                     	;# 
   365  0997                     	;# 
   366  1E0F                     	;# 
   367  1E10                     	;# 
   368  1E11                     	;# 
   369  1E12                     	;# 
   370  1E13                     	;# 
   371  1E14                     	;# 
   372  1E15                     	;# 
   373  1E16                     	;# 
   374  1E17                     	;# 
   375  1E18                     	;# 
   376  1E19                     	;# 
   377  1E1A                     	;# 
   378  1E1B                     	;# 
   379  1E1C                     	;# 
   380  1E1D                     	;# 
   381  1E1E                     	;# 
   382  1E1F                     	;# 
   383  1E20                     	;# 
   384  1E21                     	;# 
   385  1E22                     	;# 
   386  1E23                     	;# 
   387  1E24                     	;# 
   388  1E25                     	;# 
   389  1E26                     	;# 
   390  1E27                     	;# 
   391  1E28                     	;# 
   392  1E29                     	;# 
   393  1E2A                     	;# 
   394  1E2B                     	;# 
   395  1E2C                     	;# 
   396  1E2D                     	;# 
   397  1E2E                     	;# 
   398  1E2F                     	;# 
   399  1E30                     	;# 
   400  1E31                     	;# 
   401  1E32                     	;# 
   402  1E33                     	;# 
   403  1E34                     	;# 
   404  1E35                     	;# 
   405  1E36                     	;# 
   406  1E37                     	;# 
   407  1E8F                     	;# 
   408  1E90                     	;# 
   409  1E91                     	;# 
   410  1E92                     	;# 
   411  1E93                     	;# 
   412  1E94                     	;# 
   413  1E95                     	;# 
   414  1E96                     	;# 
   415  1E97                     	;# 
   416  1E9C                     	;# 
   417  1E9D                     	;# 
   418  1E9E                     	;# 
   419  1EA1                     	;# 
   420  1EA2                     	;# 
   421  1EA3                     	;# 
   422  1EA4                     	;# 
   423  1EA9                     	;# 
   424  1EAA                     	;# 
   425  1EB1                     	;# 
   426  1EB2                     	;# 
   427  1EB8                     	;# 
   428  1EB9                     	;# 
   429  1EBA                     	;# 
   430  1EBB                     	;# 
   431  1EBC                     	;# 
   432  1EBD                     	;# 
   433  1EBE                     	;# 
   434  1EC3                     	;# 
   435  1EC5                     	;# 
   436  1EC6                     	;# 
   437  1EC7                     	;# 
   438  1EC8                     	;# 
   439  1EC9                     	;# 
   440  1ECA                     	;# 
   441  1ECB                     	;# 
   442  1ECB                     	;# 
   443  1ECB                     	;# 
   444  1ECC                     	;# 
   445  1ECC                     	;# 
   446  1ECC                     	;# 
   447  1F10                     	;# 
   448  1F11                     	;# 
   449  1F12                     	;# 
   450  1F14                     	;# 
   451  1F15                     	;# 
   452  1F1C                     	;# 
   453  1F1D                     	;# 
   454  1F1E                     	;# 
   455  1F1F                     	;# 
   456  1F20                     	;# 
   457  1F21                     	;# 
   458  1F22                     	;# 
   459  1F23                     	;# 
   460  1F24                     	;# 
   461  1F25                     	;# 
   462  1F26                     	;# 
   463  1F27                     	;# 
   464  1F38                     	;# 
   465  1F39                     	;# 
   466  1F3A                     	;# 
   467  1F3B                     	;# 
   468  1F3C                     	;# 
   469  1F3D                     	;# 
   470  1F3E                     	;# 
   471  1F3F                     	;# 
   472  1F43                     	;# 
   473  1F44                     	;# 
   474  1F45                     	;# 
   475  1F46                     	;# 
   476  1F47                     	;# 
   477  1F48                     	;# 
   478  1F49                     	;# 
   479  1F4A                     	;# 
   480  1F4E                     	;# 
   481  1F4F                     	;# 
   482  1F50                     	;# 
   483  1F51                     	;# 
   484  1F52                     	;# 
   485  1F53                     	;# 
   486  1F54                     	;# 
   487  1F55                     	;# 
   488  1FE4                     	;# 
   489  1FE5                     	;# 
   490  1FE6                     	;# 
   491  1FE7                     	;# 
   492  1FE8                     	;# 
   493  1FE8                     	;# 
   494  1FE9                     	;# 
   495  1FEA                     	;# 
   496  1FEB                     	;# 
   497  1FED                     	;# 
   498  1FEE                     	;# 
   499  1FEF                     	;# 
   500  0000                     	;# 
   501  0001                     	;# 
   502  0002                     	;# 
   503  0003                     	;# 
   504  0004                     	;# 
   505  0005                     	;# 
   506  0006                     	;# 
   507  0007                     	;# 
   508  0008                     	;# 
   509  0009                     	;# 
   510  000A                     	;# 
   511  000B                     	;# 
   512  000C                     	;# 
   513  000D                     	;# 
   514  000E                     	;# 
   515  0012                     	;# 
   516  0013                     	;# 
   517  0014                     	;# 
   518  0018                     	;# 
   519  0019                     	;# 
   520  001A                     	;# 
   521  008C                     	;# 
   522  008C                     	;# 
   523  008D                     	;# 
   524  008E                     	;# 
   525  008E                     	;# 
   526  008F                     	;# 
   527  0090                     	;# 
   528  0090                     	;# 
   529  0091                     	;# 
   530  0092                     	;# 
   531  0092                     	;# 
   532  0093                     	;# 
   533  0094                     	;# 
   534  0094                     	;# 
   535  0095                     	;# 
   536  0096                     	;# 
   537  0096                     	;# 
   538  0097                     	;# 
   539  0098                     	;# 
   540  0099                     	;# 
   541  009A                     	;# 
   542  009B                     	;# 
   543  009B                     	;# 
   544  009C                     	;# 
   545  009D                     	;# 
   546  009D                     	;# 
   547  009E                     	;# 
   548  009F                     	;# 
   549  010C                     	;# 
   550  010C                     	;# 
   551  010D                     	;# 
   552  010E                     	;# 
   553  010F                     	;# 
   554  010F                     	;# 
   555  0110                     	;# 
   556  0111                     	;# 
   557  0112                     	;# 
   558  0113                     	;# 
   559  0114                     	;# 
   560  0115                     	;# 
   561  0116                     	;# 
   562  0117                     	;# 
   563  0118                     	;# 
   564  0119                     	;# 
   565  0119                     	;# 
   566  0119                     	;# 
   567  011A                     	;# 
   568  011A                     	;# 
   569  011A                     	;# 
   570  011B                     	;# 
   571  011B                     	;# 
   572  011B                     	;# 
   573  011B                     	;# 
   574  011B                     	;# 
   575  011C                     	;# 
   576  011C                     	;# 
   577  011C                     	;# 
   578  011D                     	;# 
   579  011D                     	;# 
   580  011D                     	;# 
   581  011E                     	;# 
   582  011E                     	;# 
   583  011E                     	;# 
   584  011F                     	;# 
   585  011F                     	;# 
   586  011F                     	;# 
   587  011F                     	;# 
   588  011F                     	;# 
   589  018C                     	;# 
   590  018D                     	;# 
   591  018E                     	;# 
   592  018F                     	;# 
   593  0190                     	;# 
   594  0191                     	;# 
   595  0192                     	;# 
   596  0196                     	;# 
   597  0197                     	;# 
   598  0198                     	;# 
   599  0199                     	;# 
   600  019A                     	;# 
   601  019B                     	;# 
   602  019C                     	;# 
   603  020C                     	;# 
   604  020D                     	;# 
   605  020E                     	;# 
   606  020E                     	;# 
   607  020F                     	;# 
   608  020F                     	;# 
   609  0210                     	;# 
   610  0210                     	;# 
   611  0211                     	;# 
   612  0211                     	;# 
   613  0212                     	;# 
   614  0213                     	;# 
   615  0214                     	;# 
   616  0214                     	;# 
   617  0215                     	;# 
   618  0215                     	;# 
   619  0216                     	;# 
   620  0216                     	;# 
   621  0217                     	;# 
   622  0217                     	;# 
   623  0218                     	;# 
   624  0219                     	;# 
   625  021A                     	;# 
   626  021A                     	;# 
   627  021B                     	;# 
   628  021B                     	;# 
   629  021C                     	;# 
   630  021C                     	;# 
   631  021D                     	;# 
   632  021D                     	;# 
   633  021E                     	;# 
   634  021F                     	;# 
   635  028C                     	;# 
   636  028C                     	;# 
   637  028D                     	;# 
   638  028D                     	;# 
   639  028E                     	;# 
   640  028F                     	;# 
   641  0290                     	;# 
   642  0291                     	;# 
   643  0292                     	;# 
   644  0292                     	;# 
   645  0293                     	;# 
   646  0293                     	;# 
   647  0294                     	;# 
   648  0295                     	;# 
   649  0296                     	;# 
   650  0297                     	;# 
   651  0298                     	;# 
   652  0298                     	;# 
   653  0299                     	;# 
   654  0299                     	;# 
   655  029A                     	;# 
   656  029B                     	;# 
   657  029C                     	;# 
   658  029D                     	;# 
   659  029F                     	;# 
   660  030C                     	;# 
   661  030C                     	;# 
   662  030D                     	;# 
   663  030E                     	;# 
   664  030F                     	;# 
   665  0310                     	;# 
   666  0310                     	;# 
   667  0311                     	;# 
   668  0312                     	;# 
   669  0313                     	;# 
   670  0314                     	;# 
   671  0314                     	;# 
   672  0315                     	;# 
   673  0316                     	;# 
   674  0317                     	;# 
   675  0318                     	;# 
   676  0318                     	;# 
   677  0319                     	;# 
   678  031A                     	;# 
   679  031B                     	;# 
   680  038C                     	;# 
   681  038C                     	;# 
   682  038D                     	;# 
   683  038E                     	;# 
   684  0390                     	;# 
   685  0390                     	;# 
   686  0391                     	;# 
   687  0392                     	;# 
   688  048C                     	;# 
   689  048C                     	;# 
   690  048D                     	;# 
   691  048E                     	;# 
   692  048F                     	;# 
   693  048F                     	;# 
   694  0490                     	;# 
   695  0491                     	;# 
   696  0492                     	;# 
   697  0492                     	;# 
   698  0493                     	;# 
   699  0494                     	;# 
   700  0495                     	;# 
   701  0495                     	;# 
   702  0496                     	;# 
   703  0497                     	;# 
   704  0498                     	;# 
   705  0499                     	;# 
   706  049A                     	;# 
   707  049B                     	;# 
   708  049C                     	;# 
   709  049D                     	;# 
   710  058C                     	;# 
   711  058C                     	;# 
   712  058D                     	;# 
   713  058E                     	;# 
   714  058F                     	;# 
   715  058F                     	;# 
   716  0590                     	;# 
   717  0591                     	;# 
   718  0592                     	;# 
   719  0593                     	;# 
   720  059C                     	;# 
   721  059C                     	;# 
   722  059D                     	;# 
   723  059D                     	;# 
   724  059E                     	;# 
   725  059F                     	;# 
   726  060C                     	;# 
   727  060C                     	;# 
   728  060D                     	;# 
   729  060D                     	;# 
   730  060E                     	;# 
   731  060F                     	;# 
   732  0610                     	;# 
   733  0611                     	;# 
   734  0612                     	;# 
   735  0613                     	;# 
   736  0614                     	;# 
   737  0616                     	;# 
   738  0616                     	;# 
   739  0617                     	;# 
   740  0617                     	;# 
   741  0618                     	;# 
   742  0619                     	;# 
   743  061A                     	;# 
   744  061B                     	;# 
   745  061C                     	;# 
   746  061D                     	;# 
   747  061E                     	;# 
   748  070C                     	;# 
   749  070D                     	;# 
   750  070E                     	;# 
   751  070F                     	;# 
   752  0710                     	;# 
   753  0711                     	;# 
   754  0712                     	;# 
   755  0713                     	;# 
   756  0714                     	;# 
   757  0716                     	;# 
   758  0717                     	;# 
   759  0718                     	;# 
   760  0719                     	;# 
   761  071A                     	;# 
   762  071B                     	;# 
   763  071C                     	;# 
   764  071D                     	;# 
   765  071E                     	;# 
   766  0796                     	;# 
   767  0797                     	;# 
   768  0798                     	;# 
   769  0799                     	;# 
   770  079A                     	;# 
   771  079B                     	;# 
   772  079C                     	;# 
   773  079D                     	;# 
   774  080C                     	;# 
   775  080D                     	;# 
   776  080E                     	;# 
   777  080F                     	;# 
   778  0810                     	;# 
   779  0811                     	;# 
   780  0812                     	;# 
   781  0813                     	;# 
   782  0814                     	;# 
   783  081A                     	;# 
   784  081A                     	;# 
   785  081B                     	;# 
   786  081C                     	;# 
   787  081C                     	;# 
   788  081D                     	;# 
   789  081E                     	;# 
   790  081F                     	;# 
   791  088C                     	;# 
   792  088D                     	;# 
   793  088E                     	;# 
   794  088F                     	;# 
   795  0890                     	;# 
   796  0891                     	;# 
   797  0892                     	;# 
   798  0893                     	;# 
   799  0895                     	;# 
   800  0896                     	;# 
   801  0897                     	;# 
   802  0898                     	;# 
   803  0899                     	;# 
   804  089A                     	;# 
   805  089B                     	;# 
   806  090C                     	;# 
   807  090E                     	;# 
   808  090F                     	;# 
   809  091F                     	;# 
   810  098F                     	;# 
   811  098F                     	;# 
   812  0990                     	;# 
   813  0991                     	;# 
   814  0992                     	;# 
   815  0993                     	;# 
   816  0994                     	;# 
   817  0995                     	;# 
   818  0996                     	;# 
   819  0997                     	;# 
   820  1E0F                     	;# 
   821  1E10                     	;# 
   822  1E11                     	;# 
   823  1E12                     	;# 
   824  1E13                     	;# 
   825  1E14                     	;# 
   826  1E15                     	;# 
   827  1E16                     	;# 
   828  1E17                     	;# 
   829  1E18                     	;# 
   830  1E19                     	;# 
   831  1E1A                     	;# 
   832  1E1B                     	;# 
   833  1E1C                     	;# 
   834  1E1D                     	;# 
   835  1E1E                     	;# 
   836  1E1F                     	;# 
   837  1E20                     	;# 
   838  1E21                     	;# 
   839  1E22                     	;# 
   840  1E23                     	;# 
   841  1E24                     	;# 
   842  1E25                     	;# 
   843  1E26                     	;# 
   844  1E27                     	;# 
   845  1E28                     	;# 
   846  1E29                     	;# 
   847  1E2A                     	;# 
   848  1E2B                     	;# 
   849  1E2C                     	;# 
   850  1E2D                     	;# 
   851  1E2E                     	;# 
   852  1E2F                     	;# 
   853  1E30                     	;# 
   854  1E31                     	;# 
   855  1E32                     	;# 
   856  1E33                     	;# 
   857  1E34                     	;# 
   858  1E35                     	;# 
   859  1E36                     	;# 
   860  1E37                     	;# 
   861  1E8F                     	;# 
   862  1E90                     	;# 
   863  1E91                     	;# 
   864  1E92                     	;# 
   865  1E93                     	;# 
   866  1E94                     	;# 
   867  1E95                     	;# 
   868  1E96                     	;# 
   869  1E97                     	;# 
   870  1E9C                     	;# 
   871  1E9D                     	;# 
   872  1E9E                     	;# 
   873  1EA1                     	;# 
   874  1EA2                     	;# 
   875  1EA3                     	;# 
   876  1EA4                     	;# 
   877  1EA9                     	;# 
   878  1EAA                     	;# 
   879  1EB1                     	;# 
   880  1EB2                     	;# 
   881  1EB8                     	;# 
   882  1EB9                     	;# 
   883  1EBA                     	;# 
   884  1EBB                     	;# 
   885  1EBC                     	;# 
   886  1EBD                     	;# 
   887  1EBE                     	;# 
   888  1EC3                     	;# 
   889  1EC5                     	;# 
   890  1EC6                     	;# 
   891  1EC7                     	;# 
   892  1EC8                     	;# 
   893  1EC9                     	;# 
   894  1ECA                     	;# 
   895  1ECB                     	;# 
   896  1ECB                     	;# 
   897  1ECB                     	;# 
   898  1ECC                     	;# 
   899  1ECC                     	;# 
   900  1ECC                     	;# 
   901  1F10                     	;# 
   902  1F11                     	;# 
   903  1F12                     	;# 
   904  1F14                     	;# 
   905  1F15                     	;# 
   906  1F1C                     	;# 
   907  1F1D                     	;# 
   908  1F1E                     	;# 
   909  1F1F                     	;# 
   910  1F20                     	;# 
   911  1F21                     	;# 
   912  1F22                     	;# 
   913  1F23                     	;# 
   914  1F24                     	;# 
   915  1F25                     	;# 
   916  1F26                     	;# 
   917  1F27                     	;# 
   918  1F38                     	;# 
   919  1F39                     	;# 
   920  1F3A                     	;# 
   921  1F3B                     	;# 
   922  1F3C                     	;# 
   923  1F3D                     	;# 
   924  1F3E                     	;# 
   925  1F3F                     	;# 
   926  1F43                     	;# 
   927  1F44                     	;# 
   928  1F45                     	;# 
   929  1F46                     	;# 
   930  1F47                     	;# 
   931  1F48                     	;# 
   932  1F49                     	;# 
   933  1F4A                     	;# 
   934  1F4E                     	;# 
   935  1F4F                     	;# 
   936  1F50                     	;# 
   937  1F51                     	;# 
   938  1F52                     	;# 
   939  1F53                     	;# 
   940  1F54                     	;# 
   941  1F55                     	;# 
   942  1FE4                     	;# 
   943  1FE5                     	;# 
   944  1FE6                     	;# 
   945  1FE7                     	;# 
   946  1FE8                     	;# 
   947  1FE8                     	;# 
   948  1FE9                     	;# 
   949  1FEA                     	;# 
   950  1FEB                     	;# 
   951  1FED                     	;# 
   952  1FEE                     	;# 
   953  1FEF                     	;# 
   954  0000                     	;# 
   955  0001                     	;# 
   956  0002                     	;# 
   957  0003                     	;# 
   958  0004                     	;# 
   959  0005                     	;# 
   960  0006                     	;# 
   961  0007                     	;# 
   962  0008                     	;# 
   963  0009                     	;# 
   964  000A                     	;# 
   965  000B                     	;# 
   966  000C                     	;# 
   967  000D                     	;# 
   968  000E                     	;# 
   969  0012                     	;# 
   970  0013                     	;# 
   971  0014                     	;# 
   972  0018                     	;# 
   973  0019                     	;# 
   974  001A                     	;# 
   975  008C                     	;# 
   976  008C                     	;# 
   977  008D                     	;# 
   978  008E                     	;# 
   979  008E                     	;# 
   980  008F                     	;# 
   981  0090                     	;# 
   982  0090                     	;# 
   983  0091                     	;# 
   984  0092                     	;# 
   985  0092                     	;# 
   986  0093                     	;# 
   987  0094                     	;# 
   988  0094                     	;# 
   989  0095                     	;# 
   990  0096                     	;# 
   991  0096                     	;# 
   992  0097                     	;# 
   993  0098                     	;# 
   994  0099                     	;# 
   995  009A                     	;# 
   996  009B                     	;# 
   997  009B                     	;# 
   998  009C                     	;# 
   999  009D                     	;# 
  1000  009D                     	;# 
  1001  009E                     	;# 
  1002  009F                     	;# 
  1003  010C                     	;# 
  1004  010C                     	;# 
  1005  010D                     	;# 
  1006  010E                     	;# 
  1007  010F                     	;# 
  1008  010F                     	;# 
  1009  0110                     	;# 
  1010  0111                     	;# 
  1011  0112                     	;# 
  1012  0113                     	;# 
  1013  0114                     	;# 
  1014  0115                     	;# 
  1015  0116                     	;# 
  1016  0117                     	;# 
  1017  0118                     	;# 
  1018  0119                     	;# 
  1019  0119                     	;# 
  1020  0119                     	;# 
  1021  011A                     	;# 
  1022  011A                     	;# 
  1023  011A                     	;# 
  1024  011B                     	;# 
  1025  011B                     	;# 
  1026  011B                     	;# 
  1027  011B                     	;# 
  1028  011B                     	;# 
  1029  011C                     	;# 
  1030  011C                     	;# 
  1031  011C                     	;# 
  1032  011D                     	;# 
  1033  011D                     	;# 
  1034  011D                     	;# 
  1035  011E                     	;# 
  1036  011E                     	;# 
  1037  011E                     	;# 
  1038  011F                     	;# 
  1039  011F                     	;# 
  1040  011F                     	;# 
  1041  011F                     	;# 
  1042  011F                     	;# 
  1043  018C                     	;# 
  1044  018D                     	;# 
  1045  018E                     	;# 
  1046  018F                     	;# 
  1047  0190                     	;# 
  1048  0191                     	;# 
  1049  0192                     	;# 
  1050  0196                     	;# 
  1051  0197                     	;# 
  1052  0198                     	;# 
  1053  0199                     	;# 
  1054  019A                     	;# 
  1055  019B                     	;# 
  1056  019C                     	;# 
  1057  020C                     	;# 
  1058  020D                     	;# 
  1059  020E                     	;# 
  1060  020E                     	;# 
  1061  020F                     	;# 
  1062  020F                     	;# 
  1063  0210                     	;# 
  1064  0210                     	;# 
  1065  0211                     	;# 
  1066  0211                     	;# 
  1067  0212                     	;# 
  1068  0213                     	;# 
  1069  0214                     	;# 
  1070  0214                     	;# 
  1071  0215                     	;# 
  1072  0215                     	;# 
  1073  0216                     	;# 
  1074  0216                     	;# 
  1075  0217                     	;# 
  1076  0217                     	;# 
  1077  0218                     	;# 
  1078  0219                     	;# 
  1079  021A                     	;# 
  1080  021A                     	;# 
  1081  021B                     	;# 
  1082  021B                     	;# 
  1083  021C                     	;# 
  1084  021C                     	;# 
  1085  021D                     	;# 
  1086  021D                     	;# 
  1087  021E                     	;# 
  1088  021F                     	;# 
  1089  028C                     	;# 
  1090  028C                     	;# 
  1091  028D                     	;# 
  1092  028D                     	;# 
  1093  028E                     	;# 
  1094  028F                     	;# 
  1095  0290                     	;# 
  1096  0291                     	;# 
  1097  0292                     	;# 
  1098  0292                     	;# 
  1099  0293                     	;# 
  1100  0293                     	;# 
  1101  0294                     	;# 
  1102  0295                     	;# 
  1103  0296                     	;# 
  1104  0297                     	;# 
  1105  0298                     	;# 
  1106  0298                     	;# 
  1107  0299                     	;# 
  1108  0299                     	;# 
  1109  029A                     	;# 
  1110  029B                     	;# 
  1111  029C                     	;# 
  1112  029D                     	;# 
  1113  029F                     	;# 
  1114  030C                     	;# 
  1115  030C                     	;# 
  1116  030D                     	;# 
  1117  030E                     	;# 
  1118  030F                     	;# 
  1119  0310                     	;# 
  1120  0310                     	;# 
  1121  0311                     	;# 
  1122  0312                     	;# 
  1123  0313                     	;# 
  1124  0314                     	;# 
  1125  0314                     	;# 
  1126  0315                     	;# 
  1127  0316                     	;# 
  1128  0317                     	;# 
  1129  0318                     	;# 
  1130  0318                     	;# 
  1131  0319                     	;# 
  1132  031A                     	;# 
  1133  031B                     	;# 
  1134  038C                     	;# 
  1135  038C                     	;# 
  1136  038D                     	;# 
  1137  038E                     	;# 
  1138  0390                     	;# 
  1139  0390                     	;# 
  1140  0391                     	;# 
  1141  0392                     	;# 
  1142  048C                     	;# 
  1143  048C                     	;# 
  1144  048D                     	;# 
  1145  048E                     	;# 
  1146  048F                     	;# 
  1147  048F                     	;# 
  1148  0490                     	;# 
  1149  0491                     	;# 
  1150  0492                     	;# 
  1151  0492                     	;# 
  1152  0493                     	;# 
  1153  0494                     	;# 
  1154  0495                     	;# 
  1155  0495                     	;# 
  1156  0496                     	;# 
  1157  0497                     	;# 
  1158  0498                     	;# 
  1159  0499                     	;# 
  1160  049A                     	;# 
  1161  049B                     	;# 
  1162  049C                     	;# 
  1163  049D                     	;# 
  1164  058C                     	;# 
  1165  058C                     	;# 
  1166  058D                     	;# 
  1167  058E                     	;# 
  1168  058F                     	;# 
  1169  058F                     	;# 
  1170  0590                     	;# 
  1171  0591                     	;# 
  1172  0592                     	;# 
  1173  0593                     	;# 
  1174  059C                     	;# 
  1175  059C                     	;# 
  1176  059D                     	;# 
  1177  059D                     	;# 
  1178  059E                     	;# 
  1179  059F                     	;# 
  1180  060C                     	;# 
  1181  060C                     	;# 
  1182  060D                     	;# 
  1183  060D                     	;# 
  1184  060E                     	;# 
  1185  060F                     	;# 
  1186  0610                     	;# 
  1187  0611                     	;# 
  1188  0612                     	;# 
  1189  0613                     	;# 
  1190  0614                     	;# 
  1191  0616                     	;# 
  1192  0616                     	;# 
  1193  0617                     	;# 
  1194  0617                     	;# 
  1195  0618                     	;# 
  1196  0619                     	;# 
  1197  061A                     	;# 
  1198  061B                     	;# 
  1199  061C                     	;# 
  1200  061D                     	;# 
  1201  061E                     	;# 
  1202  070C                     	;# 
  1203  070D                     	;# 
  1204  070E                     	;# 
  1205  070F                     	;# 
  1206  0710                     	;# 
  1207  0711                     	;# 
  1208  0712                     	;# 
  1209  0713                     	;# 
  1210  0714                     	;# 
  1211  0716                     	;# 
  1212  0717                     	;# 
  1213  0718                     	;# 
  1214  0719                     	;# 
  1215  071A                     	;# 
  1216  071B                     	;# 
  1217  071C                     	;# 
  1218  071D                     	;# 
  1219  071E                     	;# 
  1220  0796                     	;# 
  1221  0797                     	;# 
  1222  0798                     	;# 
  1223  0799                     	;# 
  1224  079A                     	;# 
  1225  079B                     	;# 
  1226  079C                     	;# 
  1227  079D                     	;# 
  1228  080C                     	;# 
  1229  080D                     	;# 
  1230  080E                     	;# 
  1231  080F                     	;# 
  1232  0810                     	;# 
  1233  0811                     	;# 
  1234  0812                     	;# 
  1235  0813                     	;# 
  1236  0814                     	;# 
  1237  081A                     	;# 
  1238  081A                     	;# 
  1239  081B                     	;# 
  1240  081C                     	;# 
  1241  081C                     	;# 
  1242  081D                     	;# 
  1243  081E                     	;# 
  1244  081F                     	;# 
  1245  088C                     	;# 
  1246  088D                     	;# 
  1247  088E                     	;# 
  1248  088F                     	;# 
  1249  0890                     	;# 
  1250  0891                     	;# 
  1251  0892                     	;# 
  1252  0893                     	;# 
  1253  0895                     	;# 
  1254  0896                     	;# 
  1255  0897                     	;# 
  1256  0898                     	;# 
  1257  0899                     	;# 
  1258  089A                     	;# 
  1259  089B                     	;# 
  1260  090C                     	;# 
  1261  090E                     	;# 
  1262  090F                     	;# 
  1263  091F                     	;# 
  1264  098F                     	;# 
  1265  098F                     	;# 
  1266  0990                     	;# 
  1267  0991                     	;# 
  1268  0992                     	;# 
  1269  0993                     	;# 
  1270  0994                     	;# 
  1271  0995                     	;# 
  1272  0996                     	;# 
  1273  0997                     	;# 
  1274  1E0F                     	;# 
  1275  1E10                     	;# 
  1276  1E11                     	;# 
  1277  1E12                     	;# 
  1278  1E13                     	;# 
  1279  1E14                     	;# 
  1280  1E15                     	;# 
  1281  1E16                     	;# 
  1282  1E17                     	;# 
  1283  1E18                     	;# 
  1284  1E19                     	;# 
  1285  1E1A                     	;# 
  1286  1E1B                     	;# 
  1287  1E1C                     	;# 
  1288  1E1D                     	;# 
  1289  1E1E                     	;# 
  1290  1E1F                     	;# 
  1291  1E20                     	;# 
  1292  1E21                     	;# 
  1293  1E22                     	;# 
  1294  1E23                     	;# 
  1295  1E24                     	;# 
  1296  1E25                     	;# 
  1297  1E26                     	;# 
  1298  1E27                     	;# 
  1299  1E28                     	;# 
  1300  1E29                     	;# 
  1301  1E2A                     	;# 
  1302  1E2B                     	;# 
  1303  1E2C                     	;# 
  1304  1E2D                     	;# 
  1305  1E2E                     	;# 
  1306  1E2F                     	;# 
  1307  1E30                     	;# 
  1308  1E31                     	;# 
  1309  1E32                     	;# 
  1310  1E33                     	;# 
  1311  1E34                     	;# 
  1312  1E35                     	;# 
  1313  1E36                     	;# 
  1314  1E37                     	;# 
  1315  1E8F                     	;# 
  1316  1E90                     	;# 
  1317  1E91                     	;# 
  1318  1E92                     	;# 
  1319  1E93                     	;# 
  1320  1E94                     	;# 
  1321  1E95                     	;# 
  1322  1E96                     	;# 
  1323  1E97                     	;# 
  1324  1E9C                     	;# 
  1325  1E9D                     	;# 
  1326  1E9E                     	;# 
  1327  1EA1                     	;# 
  1328  1EA2                     	;# 
  1329  1EA3                     	;# 
  1330  1EA4                     	;# 
  1331  1EA9                     	;# 
  1332  1EAA                     	;# 
  1333  1EB1                     	;# 
  1334  1EB2                     	;# 
  1335  1EB8                     	;# 
  1336  1EB9                     	;# 
  1337  1EBA                     	;# 
  1338  1EBB                     	;# 
  1339  1EBC                     	;# 
  1340  1EBD                     	;# 
  1341  1EBE                     	;# 
  1342  1EC3                     	;# 
  1343  1EC5                     	;# 
  1344  1EC6                     	;# 
  1345  1EC7                     	;# 
  1346  1EC8                     	;# 
  1347  1EC9                     	;# 
  1348  1ECA                     	;# 
  1349  1ECB                     	;# 
  1350  1ECB                     	;# 
  1351  1ECB                     	;# 
  1352  1ECC                     	;# 
  1353  1ECC                     	;# 
  1354  1ECC                     	;# 
  1355  1F10                     	;# 
  1356  1F11                     	;# 
  1357  1F12                     	;# 
  1358  1F14                     	;# 
  1359  1F15                     	;# 
  1360  1F1C                     	;# 
  1361  1F1D                     	;# 
  1362  1F1E                     	;# 
  1363  1F1F                     	;# 
  1364  1F20                     	;# 
  1365  1F21                     	;# 
  1366  1F22                     	;# 
  1367  1F23                     	;# 
  1368  1F24                     	;# 
  1369  1F25                     	;# 
  1370  1F26                     	;# 
  1371  1F27                     	;# 
  1372  1F38                     	;# 
  1373  1F39                     	;# 
  1374  1F3A                     	;# 
  1375  1F3B                     	;# 
  1376  1F3C                     	;# 
  1377  1F3D                     	;# 
  1378  1F3E                     	;# 
  1379  1F3F                     	;# 
  1380  1F43                     	;# 
  1381  1F44                     	;# 
  1382  1F45                     	;# 
  1383  1F46                     	;# 
  1384  1F47                     	;# 
  1385  1F48                     	;# 
  1386  1F49                     	;# 
  1387  1F4A                     	;# 
  1388  1F4E                     	;# 
  1389  1F4F                     	;# 
  1390  1F50                     	;# 
  1391  1F51                     	;# 
  1392  1F52                     	;# 
  1393  1F53                     	;# 
  1394  1F54                     	;# 
  1395  1F55                     	;# 
  1396  1FE4                     	;# 
  1397  1FE5                     	;# 
  1398  1FE6                     	;# 
  1399  1FE7                     	;# 
  1400  1FE8                     	;# 
  1401  1FE8                     	;# 
  1402  1FE9                     	;# 
  1403  1FEA                     	;# 
  1404  1FEB                     	;# 
  1405  1FED                     	;# 
  1406  1FEE                     	;# 
  1407  1FEF                     	;# 
  1408                           
  1409                           	psect	idataCOMMON
  1410  069E                     __pidataCOMMON:	
  1411                           
  1412                           ;initializer for main@F11210
  1413  069E  3410               	retlw	16
  1414                           
  1415                           ;initializer for main@F11208
  1416  069F  3408               	retlw	8
  1417  0014                     _TRISCbits	set	20
  1418  0013                     _TRISBbits	set	19
  1419  0012                     _TRISAbits	set	18
  1420  001A                     _LATCbits	set	26
  1421  000D                     _PORTBbits	set	13
  1422  1F4F                     _WPUCbits	set	8015
  1423  1F4E                     _ANSELCbits	set	8014
  1424  1F44                     _WPUBbits	set	8004
  1425  1F43                     _ANSELBbits	set	8003
  1426  1F39                     _WPUAbits	set	7993
  1427  1F38                     _ANSELAbits	set	7992
  1428                           
  1429                           	psect	cinit
  1430  07F6                     start_initialization:	
  1431                           ; #config settings
  1432                           
  1433  07F6                     __initialization:	
  1434                           
  1435                           ; Initialize objects allocated to COMMON
  1436  07F6  3186  269E  3187   	fcall	__pidataCOMMON	;fetch initializer
  1437  07F9  00FC               	movwf	__pdataCOMMON& (0+127)
  1438  07FA  3186  269F         	fcall	__pidataCOMMON+1	;fetch initializer
  1439  07FC  00FD               	movwf	(__pdataCOMMON+1)& (0+127)
  1440  07FD                     end_of_initialization:	
  1441                           ;End of C runtime variable initialization code
  1442                           
  1443  07FD                     __end_of__initialization:	
  1444  07FD  0140               	movlb	0
  1445  07FE  3186  2EA0         	ljmp	_main	;jump to C main() function
  1446                           
  1447                           	psect	dataCOMMON
  1448  007C                     __pdataCOMMON:	
  1449  007C                     main@F11210:	
  1450  007C                     	ds	1
  1451  007D                     main@F11208:	
  1452  007D                     	ds	1
  1453                           
  1454                           	psect	cstackCOMMON
  1455  0070                     __pcstackCOMMON:	
  1456  0070                     ?_defineGPIODirection:	
  1457  0070                     ?_main:	
  1458                           ; 1 bytes @ 0x0
  1459                           
  1460  0070                     defineGPIODirection@output:	
  1461                           ; 1 bytes @ 0x0
  1462                           
  1463                           
  1464                           ; 1 bytes @ 0x0
  1465  0070                     	ds	1
  1466  0071                     defineGPIODirection@inputLength:	
  1467                           
  1468                           ; 1 bytes @ 0x1
  1469  0071                     	ds	1
  1470  0072                     defineGPIODirection@outputLength:	
  1471                           
  1472                           ; 1 bytes @ 0x2
  1473  0072                     	ds	1
  1474  0073                     ??_defineGPIODirection:	
  1475                           
  1476                           ; 1 bytes @ 0x3
  1477  0073                     	ds	3
  1478  0076                     defineGPIODirection@input:	
  1479                           
  1480                           ; 1 bytes @ 0x6
  1481  0076                     	ds	1
  1482  0077                     defineGPIODirection@i:	
  1483                           
  1484                           ; 1 bytes @ 0x7
  1485  0077                     	ds	1
  1486  0078                     ??_main:	
  1487                           
  1488                           ; 1 bytes @ 0x8
  1489  0078                     	ds	1
  1490  0079                     main@input:	
  1491                           
  1492                           ; 1 bytes @ 0x9
  1493  0079                     	ds	1
  1494  007A                     main@output:	
  1495                           
  1496                           ; 1 bytes @ 0xA
  1497  007A                     	ds	1
  1498  007B                     main@led:	
  1499                           
  1500                           ; 1 bytes @ 0xB
  1501  007B                     	ds	1
  1502                           
  1503                           	psect	maintext
  1504  06A0                     __pmaintext:	
  1505 ;;
  1506 ;;Main: autosize = 0, tempsize = 1, incstack = 0, save=0
  1507 ;;
  1508 ;; *************** function _main *****************
  1509 ;; Defined at:
  1510 ;;		line 16 in file "main.c"
  1511 ;; Parameters:    Size  Location     Type
  1512 ;;		None
  1513 ;; Auto vars:     Size  Location     Type
  1514 ;;  led             1   11[COMMON] _Bool 
  1515 ;;  output          1   10[COMMON] enum E11183[1]
  1516 ;;  input           1    9[COMMON] enum E11183[1]
  1517 ;; Return value:  Size  Location     Type
  1518 ;;                  1    wreg      void 
  1519 ;; Registers used:
  1520 ;;		wreg, fsr0l, fsr0h, fsr1l, fsr1h, status,2, status,0, pclath, cstack
  1521 ;; Tracked objects:
  1522 ;;		On entry : B3F/0
  1523 ;;		On exit  : 0/0
  1524 ;;		Unchanged: 0/0
  1525 ;; Data sizes:     COMMON   BANK0   BANK1   BANK2   BANK3   BANK4   BANK5   BANK6   BANK7   BANK8   BANK9  BANK10  BANK1
      +1  BANK12  BANK13  BANK14  BANK15  BANK16  BANK17  BANK18  BANK19  BANK20  BANK21  BANK22  BANK23  BANK24  BANK25
  1526 ;;      Params:         0       0       0       0       0       0       0       0       0       0       0       0       
      +0       0       0       0       0       0       0       0       0       0       0       0       0       0       0
  1527 ;;      Locals:         3       0       0       0       0       0       0       0       0       0       0       0       
      +0       0       0       0       0       0       0       0       0       0       0       0       0       0       0
  1528 ;;      Temps:          1       0       0       0       0       0       0       0       0       0       0       0       
      +0       0       0       0       0       0       0       0       0       0       0       0       0       0       0
  1529 ;;      Totals:         4       0       0       0       0       0       0       0       0       0       0       0       
      +0       0       0       0       0       0       0       0       0       0       0       0       0       0       0
  1530 ;;Total ram usage:        4 bytes
  1531 ;; Hardware stack levels required when called:    1
  1532 ;; This function calls:
  1533 ;;		_defineGPIODirection
  1534 ;; This function is called by:
  1535 ;;		Startup code after reset
  1536 ;; This function uses a non-reentrant model
  1537 ;;
  1538                           
  1539                           
  1540                           ;psect for function _main
  1541  06A0                     _main:	
  1542                           
  1543                           ;main.c: 17:     pins_t input[] = {PINB7};
  1544                           
  1545                           ;incstack = 0
  1546                           ; Regs used in _main: [wreg-fsr1h+status,2+status,0+pclath+cstack]
  1547  06A0  087D               	movf	main@F11208,w
  1548  06A1  00F8               	movwf	??_main
  1549  06A2  0878               	movf	??_main,w
  1550  06A3  00F9               	movwf	main@input
  1551                           
  1552                           ;main.c: 18:     pins_t output[] = {PINC7};
  1553  06A4  087C               	movf	main@F11210,w
  1554  06A5  00F8               	movwf	??_main
  1555  06A6  0878               	movf	??_main,w
  1556  06A7  00FA               	movwf	main@output
  1557                           
  1558                           ;main.c: 21:     defineGPIODirection(input, output, 1, 1);
  1559  06A8  307A               	movlw	(low (main@output| 0))& (0+255)
  1560  06A9  00F8               	movwf	??_main
  1561  06AA  0878               	movf	??_main,w
  1562  06AB  00F0               	movwf	defineGPIODirection@output
  1563  06AC  01F1               	clrf	defineGPIODirection@inputLength
  1564  06AD  0AF1               	incf	defineGPIODirection@inputLength,f
  1565  06AE  01F2               	clrf	defineGPIODirection@outputLength
  1566  06AF  0AF2               	incf	defineGPIODirection@outputLength,f
  1567  06B0  3079               	movlw	(low (main@input| 0))& (0+255)
  1568  06B1  3186  26C2  3186   	fcall	_defineGPIODirection
  1569  06B4                     l811:	
  1570                           
  1571                           ;main.c: 24:         if(PORTBbits.RB7 == 0) {
  1572  06B4  0140               	movlb	0	; select bank0
  1573  06B5  1B8D               	btfsc	13,7	;volatile
  1574  06B6  2EBA               	goto	l815
  1575                           
  1576                           ;main.c: 25:             led = 1;
  1577  06B7  01FB               	clrf	main@led
  1578  06B8  0AFB               	incf	main@led,f
  1579                           
  1580                           ;main.c: 26:         } else {
  1581  06B9  2EBB               	goto	l817
  1582  06BA                     l815:	
  1583                           
  1584                           ;main.c: 27:             led = 0;
  1585  06BA  01FB               	clrf	main@led
  1586  06BB                     l817:	
  1587                           
  1588                           ;main.c: 29:         if(led) {
  1589  06BB  087B               	movf	main@led,w
  1590  06BC  1903               	btfsc	3,2
  1591  06BD  2EC0               	goto	l18
  1592                           
  1593                           ;main.c: 30:             LATCbits.LATC7 = 1;
  1594  06BE  179A               	bsf	26,7	;volatile
  1595                           
  1596                           ;main.c: 31:         } else {
  1597  06BF  2EB4               	goto	l811
  1598  06C0                     l18:	
  1599                           
  1600                           ;main.c: 32:             LATCbits.LATC7 = 0;
  1601  06C0  139A               	bcf	26,7	;volatile
  1602  06C1  2EB4               	goto	l811
  1603  06C2                     __end_of_main:	
  1604                           
  1605                           	psect	text1
  1606  06C2                     __ptext1:	
  1607 ;; *************** function _defineGPIODirection *****************
  1608 ;; Defined at:
  1609 ;;		line 16 in file "pins.c"
  1610 ;; Parameters:    Size  Location     Type
  1611 ;;  input           1    wreg     PTR enum E11183
  1612 ;;		 -> main@input(1), 
  1613 ;;  output          1    0[COMMON] PTR enum E11183
  1614 ;;		 -> main@output(1), 
  1615 ;;  inputLength     1    1[COMMON] unsigned char 
  1616 ;;  outputLength    1    2[COMMON] unsigned char 
  1617 ;; Auto vars:     Size  Location     Type
  1618 ;;  input           1    6[COMMON] PTR enum E11183
  1619 ;;		 -> main@input(1), 
  1620 ;;  i               1    7[COMMON] unsigned char 
  1621 ;; Return value:  Size  Location     Type
  1622 ;;                  1    wreg      void 
  1623 ;; Registers used:
  1624 ;;		wreg, fsr0l, fsr0h, fsr1l, fsr1h, status,2, status,0
  1625 ;; Tracked objects:
  1626 ;;		On entry : 0/0
  1627 ;;		On exit  : 0/0
  1628 ;;		Unchanged: 0/0
  1629 ;; Data sizes:     COMMON   BANK0   BANK1   BANK2   BANK3   BANK4   BANK5   BANK6   BANK7   BANK8   BANK9  BANK10  BANK1
      +1  BANK12  BANK13  BANK14  BANK15  BANK16  BANK17  BANK18  BANK19  BANK20  BANK21  BANK22  BANK23  BANK24  BANK25
  1630 ;;      Params:         3       0       0       0       0       0       0       0       0       0       0       0       
      +0       0       0       0       0       0       0       0       0       0       0       0       0       0       0
  1631 ;;      Locals:         2       0       0       0       0       0       0       0       0       0       0       0       
      +0       0       0       0       0       0       0       0       0       0       0       0       0       0       0
  1632 ;;      Temps:          3       0       0       0       0       0       0       0       0       0       0       0       
      +0       0       0       0       0       0       0       0       0       0       0       0       0       0       0
  1633 ;;      Totals:         8       0       0       0       0       0       0       0       0       0       0       0       
      +0       0       0       0       0       0       0       0       0       0       0       0       0       0       0
  1634 ;;Total ram usage:        8 bytes
  1635 ;; Hardware stack levels used:    1
  1636 ;; This function calls:
  1637 ;;		Nothing
  1638 ;; This function is called by:
  1639 ;;		_main
  1640 ;; This function uses a non-reentrant model
  1641 ;;
  1642                           
  1643                           
  1644                           ;psect for function _defineGPIODirection
  1645  06C2                     _defineGPIODirection:	
  1646                           
  1647                           ;incstack = 0
  1648                           ; Regs used in _defineGPIODirection: [wreg-fsr1h+status,2+status,0]
  1649                           ;defineGPIODirection@input stored from wreg
  1650  06C2  00F6               	movwf	defineGPIODirection@input
  1651                           
  1652                           ;pins.c: 17:     uint8_t i;;pins.c: 18:     for(i = 0; i < inputLength; i++) {
  1653  06C3  01F7               	clrf	defineGPIODirection@i
  1654  06C4  2F2E               	goto	l787
  1655  06C5                     l46:	
  1656                           ;pins.c: 20:             case PINA0 :
  1657                           
  1658                           
  1659                           ;pins.c: 21:                 TRISAbits.TRISA0 = 1;
  1660  06C5  0140               	movlb	0	; select bank0
  1661  06C6  1412               	bsf	18,0	;volatile
  1662                           
  1663                           ;pins.c: 22:                 ANSELAbits.ANSA0 = 0;
  1664  06C7  017E               	movlb	62	; select bank62
  1665  06C8  1038               	bcf	56,0	;volatile
  1666                           
  1667                           ;pins.c: 23:                 WPUAbits.WPUA0 = 1;
  1668  06C9  1439               	bsf	57,0	;volatile
  1669                           
  1670                           ;pins.c: 24:                 break;
  1671  06CA  2F2A               	goto	l785
  1672  06CB                     l48:	
  1673                           ;pins.c: 25:             case PINA1 :
  1674                           
  1675                           
  1676                           ;pins.c: 26:                 TRISAbits.TRISA1 = 1;
  1677  06CB  0140               	movlb	0	; select bank0
  1678  06CC  1492               	bsf	18,1	;volatile
  1679                           
  1680                           ;pins.c: 27:                 ANSELAbits.ANSA1 = 0;
  1681  06CD  017E               	movlb	62	; select bank62
  1682  06CE  10B8               	bcf	56,1	;volatile
  1683                           
  1684                           ;pins.c: 28:                 WPUAbits.WPUA1 = 1;
  1685  06CF  14B9               	bsf	57,1	;volatile
  1686                           
  1687                           ;pins.c: 29:                 break;
  1688  06D0  2F2A               	goto	l785
  1689  06D1                     l49:	
  1690                           ;pins.c: 30:             case PINA2 :
  1691                           
  1692                           
  1693                           ;pins.c: 31:                 TRISAbits.TRISA2 = 1;
  1694  06D1  0140               	movlb	0	; select bank0
  1695  06D2  1512               	bsf	18,2	;volatile
  1696                           
  1697                           ;pins.c: 32:                 ANSELAbits.ANSA2 = 0;
  1698  06D3  017E               	movlb	62	; select bank62
  1699  06D4  1138               	bcf	56,2	;volatile
  1700                           
  1701                           ;pins.c: 33:                 WPUAbits.WPUA2 = 1;
  1702  06D5  1539               	bsf	57,2	;volatile
  1703                           
  1704                           ;pins.c: 34:                 break;
  1705  06D6  2F2A               	goto	l785
  1706  06D7                     l50:	
  1707                           ;pins.c: 35:             case PINA4 :
  1708                           
  1709                           
  1710                           ;pins.c: 36:                 TRISAbits.TRISA4 = 1;
  1711  06D7  0140               	movlb	0	; select bank0
  1712  06D8  1612               	bsf	18,4	;volatile
  1713                           
  1714                           ;pins.c: 37:                 ANSELAbits.ANSA4 = 0;
  1715  06D9  017E               	movlb	62	; select bank62
  1716  06DA  1238               	bcf	56,4	;volatile
  1717                           
  1718                           ;pins.c: 38:                 WPUAbits.WPUA4 = 1;
  1719  06DB  1639               	bsf	57,4	;volatile
  1720                           
  1721                           ;pins.c: 39:                 break;
  1722  06DC  2F2A               	goto	l785
  1723  06DD                     l51:	
  1724                           ;pins.c: 40:             case PINA5 :
  1725                           
  1726                           
  1727                           ;pins.c: 41:                 TRISAbits.TRISA5 = 1;
  1728  06DD  0140               	movlb	0	; select bank0
  1729  06DE  1692               	bsf	18,5	;volatile
  1730                           
  1731                           ;pins.c: 42:                 ANSELAbits.ANSA5 = 0;
  1732  06DF  017E               	movlb	62	; select bank62
  1733  06E0  12B8               	bcf	56,5	;volatile
  1734                           
  1735                           ;pins.c: 43:                 WPUAbits.WPUA5 = 1;
  1736  06E1  16B9               	bsf	57,5	;volatile
  1737                           
  1738                           ;pins.c: 44:                 break;
  1739  06E2  2F2A               	goto	l785
  1740  06E3                     l52:	
  1741                           ;pins.c: 45:             case PINB4 :
  1742                           
  1743                           
  1744                           ;pins.c: 46:                 TRISBbits.TRISB4 = 1;
  1745  06E3  0140               	movlb	0	; select bank0
  1746  06E4  1613               	bsf	19,4	;volatile
  1747                           
  1748                           ;pins.c: 47:                 ANSELBbits.ANSB4 = 0;
  1749  06E5  017E               	movlb	62	; select bank62
  1750  06E6  1243               	bcf	67,4	;volatile
  1751                           
  1752                           ;pins.c: 48:                 WPUBbits.WPUB4 = 1;
  1753  06E7  1644               	bsf	68,4	;volatile
  1754                           
  1755                           ;pins.c: 49:                 break;
  1756  06E8  2F2A               	goto	l785
  1757  06E9                     l53:	
  1758                           ;pins.c: 50:             case PINB5 :
  1759                           
  1760                           
  1761                           ;pins.c: 51:                 TRISBbits.TRISB5 = 1;
  1762  06E9  0140               	movlb	0	; select bank0
  1763  06EA  1693               	bsf	19,5	;volatile
  1764                           
  1765                           ;pins.c: 52:                 ANSELBbits.ANSB5 = 0;
  1766  06EB  017E               	movlb	62	; select bank62
  1767  06EC  12C3               	bcf	67,5	;volatile
  1768                           
  1769                           ;pins.c: 53:                 WPUBbits.WPUB5 = 1;
  1770  06ED  16C4               	bsf	68,5	;volatile
  1771                           
  1772                           ;pins.c: 54:                 break;
  1773  06EE  2F2A               	goto	l785
  1774  06EF                     l54:	
  1775                           ;pins.c: 55:             case PINB6 :
  1776                           
  1777                           
  1778                           ;pins.c: 56:                 TRISBbits.TRISB6 = 1;
  1779  06EF  0140               	movlb	0	; select bank0
  1780  06F0  1713               	bsf	19,6	;volatile
  1781                           
  1782                           ;pins.c: 57:                 ANSELBbits.ANSB6 = 0;
  1783  06F1  017E               	movlb	62	; select bank62
  1784  06F2  1343               	bcf	67,6	;volatile
  1785                           
  1786                           ;pins.c: 58:                 WPUBbits.WPUB6 = 1;
  1787  06F3  1744               	bsf	68,6	;volatile
  1788                           
  1789                           ;pins.c: 59:                 break;
  1790  06F4  2F2A               	goto	l785
  1791  06F5                     l55:	
  1792                           ;pins.c: 60:             case PINB7 :
  1793                           
  1794                           
  1795                           ;pins.c: 61:                 TRISBbits.TRISB7 = 1;
  1796  06F5  0140               	movlb	0	; select bank0
  1797  06F6  1793               	bsf	19,7	;volatile
  1798                           
  1799                           ;pins.c: 62:                 ANSELBbits.ANSB7 = 0;
  1800  06F7  017E               	movlb	62	; select bank62
  1801  06F8  13C3               	bcf	67,7	;volatile
  1802                           
  1803                           ;pins.c: 63:                 WPUBbits.WPUB7 = 1;
  1804  06F9  17C4               	bsf	68,7	;volatile
  1805                           
  1806                           ;pins.c: 64:                 break;
  1807  06FA  2F2A               	goto	l785
  1808  06FB                     l56:	
  1809                           ;pins.c: 65:             case PINC0 :
  1810                           
  1811                           
  1812                           ;pins.c: 66:                 TRISCbits.TRISC0 = 1;
  1813  06FB  0140               	movlb	0	; select bank0
  1814  06FC  1414               	bsf	20,0	;volatile
  1815                           
  1816                           ;pins.c: 67:                 ANSELCbits.ANSC0 = 0;
  1817  06FD  017E               	movlb	62	; select bank62
  1818  06FE  104E               	bcf	78,0	;volatile
  1819                           
  1820                           ;pins.c: 68:                 WPUCbits.WPUC0 = 1;
  1821  06FF  144F               	bsf	79,0	;volatile
  1822                           
  1823                           ;pins.c: 69:                 break;
  1824  0700  2F2A               	goto	l785
  1825  0701                     l57:	
  1826                           ;pins.c: 70:             case PINC1 :
  1827                           
  1828                           
  1829                           ;pins.c: 71:                 TRISCbits.TRISC1 = 1;
  1830  0701  0140               	movlb	0	; select bank0
  1831  0702  1494               	bsf	20,1	;volatile
  1832                           
  1833                           ;pins.c: 72:                 ANSELCbits.ANSC1 = 0;
  1834  0703  017E               	movlb	62	; select bank62
  1835  0704  10CE               	bcf	78,1	;volatile
  1836                           
  1837                           ;pins.c: 73:                 WPUCbits.WPUC1 = 1;
  1838  0705  14CF               	bsf	79,1	;volatile
  1839                           
  1840                           ;pins.c: 74:                 break;
  1841  0706  2F2A               	goto	l785
  1842  0707                     l58:	
  1843                           ;pins.c: 75:             case PINC2 :
  1844                           
  1845                           
  1846                           ;pins.c: 76:                 TRISCbits.TRISC2 = 1;
  1847  0707  0140               	movlb	0	; select bank0
  1848  0708  1514               	bsf	20,2	;volatile
  1849                           
  1850                           ;pins.c: 77:                 ANSELCbits.ANSC2 = 0;
  1851  0709  017E               	movlb	62	; select bank62
  1852  070A  114E               	bcf	78,2	;volatile
  1853                           
  1854                           ;pins.c: 78:                 WPUCbits.WPUC2 = 1;
  1855  070B  154F               	bsf	79,2	;volatile
  1856                           
  1857                           ;pins.c: 79:                 break;
  1858  070C  2F2A               	goto	l785
  1859  070D                     l59:	
  1860                           ;pins.c: 80:             case PINC3 :
  1861                           
  1862                           
  1863                           ;pins.c: 81:                 TRISCbits.TRISC3 = 1;
  1864  070D  0140               	movlb	0	; select bank0
  1865  070E  1594               	bsf	20,3	;volatile
  1866                           
  1867                           ;pins.c: 82:                 ANSELCbits.ANSC3 = 0;
  1868  070F  017E               	movlb	62	; select bank62
  1869  0710  11CE               	bcf	78,3	;volatile
  1870                           
  1871                           ;pins.c: 83:                 WPUCbits.WPUC3 = 1;
  1872  0711  15CF               	bsf	79,3	;volatile
  1873                           
  1874                           ;pins.c: 84:                 break;
  1875  0712  2F2A               	goto	l785
  1876  0713                     l60:	
  1877                           ;pins.c: 85:             case PINC4 :
  1878                           
  1879                           
  1880                           ;pins.c: 86:                 TRISCbits.TRISC4 = 1;
  1881  0713  0140               	movlb	0	; select bank0
  1882  0714  1614               	bsf	20,4	;volatile
  1883                           
  1884                           ;pins.c: 87:                 ANSELCbits.ANSC4 = 0;
  1885  0715  017E               	movlb	62	; select bank62
  1886  0716  124E               	bcf	78,4	;volatile
  1887                           
  1888                           ;pins.c: 88:                 WPUCbits.WPUC4 = 1;
  1889  0717  164F               	bsf	79,4	;volatile
  1890                           
  1891                           ;pins.c: 89:                 break;
  1892  0718  2F2A               	goto	l785
  1893  0719                     l61:	
  1894                           ;pins.c: 90:             case PINC5 :
  1895                           
  1896                           
  1897                           ;pins.c: 91:                 TRISCbits.TRISC5 = 1;
  1898  0719  0140               	movlb	0	; select bank0
  1899  071A  1694               	bsf	20,5	;volatile
  1900                           
  1901                           ;pins.c: 92:                 ANSELCbits.ANSC5 = 0;
  1902  071B  017E               	movlb	62	; select bank62
  1903  071C  12CE               	bcf	78,5	;volatile
  1904                           
  1905                           ;pins.c: 93:                 WPUCbits.WPUC5 = 1;
  1906  071D  16CF               	bsf	79,5	;volatile
  1907                           
  1908                           ;pins.c: 94:                 break;
  1909  071E  2F2A               	goto	l785
  1910  071F                     l62:	
  1911                           ;pins.c: 95:             case PINC6 :
  1912                           
  1913                           
  1914                           ;pins.c: 96:                 TRISCbits.TRISC6 = 1;
  1915  071F  0140               	movlb	0	; select bank0
  1916  0720  1714               	bsf	20,6	;volatile
  1917                           
  1918                           ;pins.c: 97:                 ANSELCbits.ANSC6 = 0;
  1919  0721  017E               	movlb	62	; select bank62
  1920  0722  134E               	bcf	78,6	;volatile
  1921                           
  1922                           ;pins.c: 98:                 WPUCbits.WPUC6 = 1;
  1923  0723  174F               	bsf	79,6	;volatile
  1924                           
  1925                           ;pins.c: 99:                 break;
  1926  0724  2F2A               	goto	l785
  1927  0725                     l63:	
  1928                           ;pins.c: 100:             case PINC7 :
  1929                           
  1930                           
  1931                           ;pins.c: 101:                 TRISCbits.TRISC7 = 1;
  1932  0725  0140               	movlb	0	; select bank0
  1933  0726  1794               	bsf	20,7	;volatile
  1934                           
  1935                           ;pins.c: 102:                 ANSELCbits.ANSC7 = 0;
  1936  0727  017E               	movlb	62	; select bank62
  1937  0728  13CE               	bcf	78,7	;volatile
  1938                           
  1939                           ;pins.c: 103:                 WPUCbits.WPUC7 = 1;
  1940  0729  17CF               	bsf	79,7	;volatile
  1941  072A                     l785:	
  1942                           ;pins.c: 104:                 break;
  1943                           
  1944                           
  1945                           ;pins.c: 106:     }
  1946  072A  3001               	movlw	1
  1947  072B  00F3               	movwf	??_defineGPIODirection
  1948  072C  0873               	movf	??_defineGPIODirection,w
  1949  072D  07F7               	addwf	defineGPIODirection@i,f
  1950  072E                     l787:	
  1951  072E  0871               	movf	defineGPIODirection@inputLength,w
  1952  072F  0277               	subwf	defineGPIODirection@i,w
  1953  0730  1803               	btfsc	3,0
  1954  0731  2F76               	goto	l789
  1955  0732  0877               	movf	defineGPIODirection@i,w
  1956  0733  0776               	addwf	defineGPIODirection@input,w
  1957  0734  00F3               	movwf	??_defineGPIODirection
  1958  0735  0873               	movf	??_defineGPIODirection,w
  1959  0736  0086               	movwf	6
  1960  0737  0187               	clrf	7
  1961  0738  0801               	movf	1,w
  1962  0739  00F4               	movwf	??_defineGPIODirection+1
  1963  073A  01F5               	clrf	??_defineGPIODirection+2
  1964                           
  1965                           ; Switch on 2 bytes has been partitioned into a top level switch of size 1, and 1 sub-sw
      +                          itches
  1966                           ; Switch size 1, requested type "simple"
  1967                           ; Number of cases is 1, Range of values is 0 to 0
  1968                           ; switch strategies available:
  1969                           ; Name         Instructions Cycles
  1970                           ; simple_byte            4     3 (average)
  1971                           ; direct_byte            8     6 (fixed)
  1972                           ; jumptable            260     6 (fixed)
  1973                           ;	Chosen strategy is simple_byte
  1974  073B  0875               	movf	??_defineGPIODirection+2,w
  1975  073C  3A00               	xorlw	0	; case 0
  1976  073D  1903               	skipnz
  1977  073E  2F40               	goto	l861
  1978  073F  2F2A               	goto	l785
  1979  0740                     l861:	
  1980                           
  1981                           ; Switch size 1, requested type "simple"
  1982                           ; Number of cases is 17, Range of values is 0 to 16
  1983                           ; switch strategies available:
  1984                           ; Name         Instructions Cycles
  1985                           ; direct_byte           40     6 (fixed)
  1986                           ; simple_byte           52    27 (average)
  1987                           ; jumptable            260     6 (fixed)
  1988                           ;	Chosen strategy is simple_byte
  1989  0740  0874               	movf	??_defineGPIODirection+1,w
  1990  0741  3A00               	xorlw	0	; case 0
  1991  0742  1903               	skipnz
  1992  0743  2EC5               	goto	l46
  1993  0744  3A01               	xorlw	1	; case 1
  1994  0745  1903               	skipnz
  1995  0746  2ECB               	goto	l48
  1996  0747  3A03               	xorlw	3	; case 2
  1997  0748  1903               	skipnz
  1998  0749  2ED1               	goto	l49
  1999  074A  3A01               	xorlw	1	; case 3
  2000  074B  1903               	skipnz
  2001  074C  2ED7               	goto	l50
  2002  074D  3A07               	xorlw	7	; case 4
  2003  074E  1903               	skipnz
  2004  074F  2EDD               	goto	l51
  2005  0750  3A01               	xorlw	1	; case 5
  2006  0751  1903               	skipnz
  2007  0752  2EE3               	goto	l52
  2008  0753  3A03               	xorlw	3	; case 6
  2009  0754  1903               	skipnz
  2010  0755  2EE9               	goto	l53
  2011  0756  3A01               	xorlw	1	; case 7
  2012  0757  1903               	skipnz
  2013  0758  2EEF               	goto	l54
  2014  0759  3A0F               	xorlw	15	; case 8
  2015  075A  1903               	skipnz
  2016  075B  2EF5               	goto	l55
  2017  075C  3A01               	xorlw	1	; case 9
  2018  075D  1903               	skipnz
  2019  075E  2EFB               	goto	l56
  2020  075F  3A03               	xorlw	3	; case 10
  2021  0760  1903               	skipnz
  2022  0761  2F01               	goto	l57
  2023  0762  3A01               	xorlw	1	; case 11
  2024  0763  1903               	skipnz
  2025  0764  2F07               	goto	l58
  2026  0765  3A07               	xorlw	7	; case 12
  2027  0766  1903               	skipnz
  2028  0767  2F0D               	goto	l59
  2029  0768  3A01               	xorlw	1	; case 13
  2030  0769  1903               	skipnz
  2031  076A  2F13               	goto	l60
  2032  076B  3A03               	xorlw	3	; case 14
  2033  076C  1903               	skipnz
  2034  076D  2F19               	goto	l61
  2035  076E  3A01               	xorlw	1	; case 15
  2036  076F  1903               	skipnz
  2037  0770  2F1F               	goto	l62
  2038  0771  3A1F               	xorlw	31	; case 16
  2039  0772  1903               	skipnz
  2040  0773  2F25               	goto	l63
  2041  0774  2F2A               	goto	l785
  2042  0775  2F2A               	goto	l785
  2043  0776                     l789:	
  2044                           
  2045                           ;pins.c: 108:     for(i = 0; i < outputLength; i++) {
  2046  0776  01F7               	clrf	defineGPIODirection@i
  2047  0777  2FAE               	goto	l795
  2048  0778                     l68:	
  2049                           ;pins.c: 110:             case PINA0 :
  2050                           
  2051                           
  2052                           ;pins.c: 111:                 TRISAbits.TRISA0 = 0;
  2053  0778  0140               	movlb	0	; select bank0
  2054  0779  1012               	bcf	18,0	;volatile
  2055                           
  2056                           ;pins.c: 112:                 break;
  2057  077A  2FAA               	goto	l793
  2058  077B                     l70:	
  2059                           ;pins.c: 113:             case PINA1 :
  2060                           
  2061                           
  2062                           ;pins.c: 114:                 TRISAbits.TRISA1 = 0;
  2063  077B  0140               	movlb	0	; select bank0
  2064  077C  1092               	bcf	18,1	;volatile
  2065                           
  2066                           ;pins.c: 115:                 break;
  2067  077D  2FAA               	goto	l793
  2068  077E                     l71:	
  2069                           ;pins.c: 116:             case PINA2 :
  2070                           
  2071                           
  2072                           ;pins.c: 117:                 TRISAbits.TRISA2 = 0;
  2073  077E  0140               	movlb	0	; select bank0
  2074  077F  1112               	bcf	18,2	;volatile
  2075                           
  2076                           ;pins.c: 118:                 break;
  2077  0780  2FAA               	goto	l793
  2078  0781                     l72:	
  2079                           ;pins.c: 119:             case PINA4 :
  2080                           
  2081                           
  2082                           ;pins.c: 120:                 TRISAbits.TRISA4 = 0;
  2083  0781  0140               	movlb	0	; select bank0
  2084  0782  1212               	bcf	18,4	;volatile
  2085                           
  2086                           ;pins.c: 121:                 break;
  2087  0783  2FAA               	goto	l793
  2088  0784                     l73:	
  2089                           ;pins.c: 122:             case PINA5 :
  2090                           
  2091                           
  2092                           ;pins.c: 123:                 TRISAbits.TRISA5 = 0;
  2093  0784  0140               	movlb	0	; select bank0
  2094  0785  1292               	bcf	18,5	;volatile
  2095                           
  2096                           ;pins.c: 124:                 break;
  2097  0786  2FAA               	goto	l793
  2098  0787                     l74:	
  2099                           ;pins.c: 125:             case PINB4 :
  2100                           
  2101                           
  2102                           ;pins.c: 126:                 TRISBbits.TRISB4 = 0;
  2103  0787  0140               	movlb	0	; select bank0
  2104  0788  1213               	bcf	19,4	;volatile
  2105                           
  2106                           ;pins.c: 127:                 break;
  2107  0789  2FAA               	goto	l793
  2108  078A                     l75:	
  2109                           ;pins.c: 128:             case PINB5 :
  2110                           
  2111                           
  2112                           ;pins.c: 129:                 TRISBbits.TRISB5 = 0;
  2113  078A  0140               	movlb	0	; select bank0
  2114  078B  1293               	bcf	19,5	;volatile
  2115                           
  2116                           ;pins.c: 130:                 break;
  2117  078C  2FAA               	goto	l793
  2118  078D                     l76:	
  2119                           ;pins.c: 131:             case PINB6 :
  2120                           
  2121                           
  2122                           ;pins.c: 132:                 TRISBbits.TRISB6 = 0;
  2123  078D  0140               	movlb	0	; select bank0
  2124  078E  1313               	bcf	19,6	;volatile
  2125                           
  2126                           ;pins.c: 133:                 break;
  2127  078F  2FAA               	goto	l793
  2128  0790                     l77:	
  2129                           ;pins.c: 134:             case PINB7 :
  2130                           
  2131                           
  2132                           ;pins.c: 135:                 TRISBbits.TRISB7 = 0;
  2133  0790  0140               	movlb	0	; select bank0
  2134  0791  1393               	bcf	19,7	;volatile
  2135                           
  2136                           ;pins.c: 136:                 break;
  2137  0792  2FAA               	goto	l793
  2138  0793                     l78:	
  2139                           ;pins.c: 137:             case PINC0 :
  2140                           
  2141                           
  2142                           ;pins.c: 138:                 TRISCbits.TRISC0 = 0;
  2143  0793  0140               	movlb	0	; select bank0
  2144  0794  1014               	bcf	20,0	;volatile
  2145                           
  2146                           ;pins.c: 139:                 break;
  2147  0795  2FAA               	goto	l793
  2148  0796                     l79:	
  2149                           ;pins.c: 140:             case PINC1 :
  2150                           
  2151                           
  2152                           ;pins.c: 141:                 TRISCbits.TRISC1 = 0;
  2153  0796  0140               	movlb	0	; select bank0
  2154  0797  1094               	bcf	20,1	;volatile
  2155                           
  2156                           ;pins.c: 142:                 break;
  2157  0798  2FAA               	goto	l793
  2158  0799                     l80:	
  2159                           ;pins.c: 143:             case PINC2 :
  2160                           
  2161                           
  2162                           ;pins.c: 144:                 TRISCbits.TRISC2 = 0;
  2163  0799  0140               	movlb	0	; select bank0
  2164  079A  1114               	bcf	20,2	;volatile
  2165                           
  2166                           ;pins.c: 145:                 break;
  2167  079B  2FAA               	goto	l793
  2168  079C                     l81:	
  2169                           ;pins.c: 146:             case PINC3 :
  2170                           
  2171                           
  2172                           ;pins.c: 147:                 TRISCbits.TRISC3 = 0;
  2173  079C  0140               	movlb	0	; select bank0
  2174  079D  1194               	bcf	20,3	;volatile
  2175                           
  2176                           ;pins.c: 148:                 break;
  2177  079E  2FAA               	goto	l793
  2178  079F                     l82:	
  2179                           ;pins.c: 149:             case PINC4 :
  2180                           
  2181                           
  2182                           ;pins.c: 150:                 TRISCbits.TRISC4 = 0;
  2183  079F  0140               	movlb	0	; select bank0
  2184  07A0  1214               	bcf	20,4	;volatile
  2185                           
  2186                           ;pins.c: 151:                 break;
  2187  07A1  2FAA               	goto	l793
  2188  07A2                     l83:	
  2189                           ;pins.c: 152:             case PINC5 :
  2190                           
  2191                           
  2192                           ;pins.c: 153:                 TRISCbits.TRISC5 = 0;
  2193  07A2  0140               	movlb	0	; select bank0
  2194  07A3  1294               	bcf	20,5	;volatile
  2195                           
  2196                           ;pins.c: 154:                 break;
  2197  07A4  2FAA               	goto	l793
  2198  07A5                     l84:	
  2199                           ;pins.c: 155:             case PINC6 :
  2200                           
  2201                           
  2202                           ;pins.c: 156:                 TRISCbits.TRISC6 = 0;
  2203  07A5  0140               	movlb	0	; select bank0
  2204  07A6  1314               	bcf	20,6	;volatile
  2205                           
  2206                           ;pins.c: 157:                 break;
  2207  07A7  2FAA               	goto	l793
  2208  07A8                     l85:	
  2209                           ;pins.c: 158:             case PINC7 :
  2210                           
  2211                           
  2212                           ;pins.c: 159:                 TRISCbits.TRISC7 = 0;
  2213  07A8  0140               	movlb	0	; select bank0
  2214  07A9  1394               	bcf	20,7	;volatile
  2215  07AA                     l793:	
  2216                           ;pins.c: 160:         }
  2217                           
  2218                           
  2219                           ;pins.c: 161:     }
  2220  07AA  3001               	movlw	1
  2221  07AB  00F3               	movwf	??_defineGPIODirection
  2222  07AC  0873               	movf	??_defineGPIODirection,w
  2223  07AD  07F7               	addwf	defineGPIODirection@i,f
  2224  07AE                     l795:	
  2225  07AE  0872               	movf	defineGPIODirection@outputLength,w
  2226  07AF  0277               	subwf	defineGPIODirection@i,w
  2227  07B0  1803               	btfsc	3,0
  2228  07B1  0008               	return
  2229  07B2  0877               	movf	defineGPIODirection@i,w
  2230  07B3  0770               	addwf	defineGPIODirection@output,w
  2231  07B4  00F3               	movwf	??_defineGPIODirection
  2232  07B5  0873               	movf	??_defineGPIODirection,w
  2233  07B6  0086               	movwf	6
  2234  07B7  0187               	clrf	7
  2235  07B8  0801               	movf	1,w
  2236  07B9  00F4               	movwf	??_defineGPIODirection+1
  2237  07BA  01F5               	clrf	??_defineGPIODirection+2
  2238                           
  2239                           ; Switch on 2 bytes has been partitioned into a top level switch of size 1, and 1 sub-sw
      +                          itches
  2240                           ; Switch size 1, requested type "simple"
  2241                           ; Number of cases is 1, Range of values is 0 to 0
  2242                           ; switch strategies available:
  2243                           ; Name         Instructions Cycles
  2244                           ; simple_byte            4     3 (average)
  2245                           ; direct_byte            8     6 (fixed)
  2246                           ; jumptable            260     6 (fixed)
  2247                           ;	Chosen strategy is simple_byte
  2248  07BB  0875               	movf	??_defineGPIODirection+2,w
  2249  07BC  3A00               	xorlw	0	; case 0
  2250  07BD  1903               	skipnz
  2251  07BE  2FC0               	goto	l863
  2252  07BF  2FAA               	goto	l793
  2253  07C0                     l863:	
  2254                           
  2255                           ; Switch size 1, requested type "simple"
  2256                           ; Number of cases is 17, Range of values is 0 to 16
  2257                           ; switch strategies available:
  2258                           ; Name         Instructions Cycles
  2259                           ; direct_byte           40     6 (fixed)
  2260                           ; simple_byte           52    27 (average)
  2261                           ; jumptable            260     6 (fixed)
  2262                           ;	Chosen strategy is simple_byte
  2263  07C0  0874               	movf	??_defineGPIODirection+1,w
  2264  07C1  3A00               	xorlw	0	; case 0
  2265  07C2  1903               	skipnz
  2266  07C3  2F78               	goto	l68
  2267  07C4  3A01               	xorlw	1	; case 1
  2268  07C5  1903               	skipnz
  2269  07C6  2F7B               	goto	l70
  2270  07C7  3A03               	xorlw	3	; case 2
  2271  07C8  1903               	skipnz
  2272  07C9  2F7E               	goto	l71
  2273  07CA  3A01               	xorlw	1	; case 3
  2274  07CB  1903               	skipnz
  2275  07CC  2F81               	goto	l72
  2276  07CD  3A07               	xorlw	7	; case 4
  2277  07CE  1903               	skipnz
  2278  07CF  2F84               	goto	l73
  2279  07D0  3A01               	xorlw	1	; case 5
  2280  07D1  1903               	skipnz
  2281  07D2  2F87               	goto	l74
  2282  07D3  3A03               	xorlw	3	; case 6
  2283  07D4  1903               	skipnz
  2284  07D5  2F8A               	goto	l75
  2285  07D6  3A01               	xorlw	1	; case 7
  2286  07D7  1903               	skipnz
  2287  07D8  2F8D               	goto	l76
  2288  07D9  3A0F               	xorlw	15	; case 8
  2289  07DA  1903               	skipnz
  2290  07DB  2F90               	goto	l77
  2291  07DC  3A01               	xorlw	1	; case 9
  2292  07DD  1903               	skipnz
  2293  07DE  2F93               	goto	l78
  2294  07DF  3A03               	xorlw	3	; case 10
  2295  07E0  1903               	skipnz
  2296  07E1  2F96               	goto	l79
  2297  07E2  3A01               	xorlw	1	; case 11
  2298  07E3  1903               	skipnz
  2299  07E4  2F99               	goto	l80
  2300  07E5  3A07               	xorlw	7	; case 12
  2301  07E6  1903               	skipnz
  2302  07E7  2F9C               	goto	l81
  2303  07E8  3A01               	xorlw	1	; case 13
  2304  07E9  1903               	skipnz
  2305  07EA  2F9F               	goto	l82
  2306  07EB  3A03               	xorlw	3	; case 14
  2307  07EC  1903               	skipnz
  2308  07ED  2FA2               	goto	l83
  2309  07EE  3A01               	xorlw	1	; case 15
  2310  07EF  1903               	skipnz
  2311  07F0  2FA5               	goto	l84
  2312  07F1  3A1F               	xorlw	31	; case 16
  2313  07F2  1903               	skipnz
  2314  07F3  2FA8               	goto	l85
  2315  07F4  2FAA               	goto	l793
  2316  07F5  2FAA               	goto	l793
  2317  07F6                     __end_of_defineGPIODirection:	
  2318  007E                     btemp	set	126	;btemp
  2319  007E                     wtemp0	set	126


Data Sizes:
    Strings     0
    Constant    0
    Data        2
    BSS         0
    Persistent  32
    Stack       0

Auto Spaces:
    Space          Size  Autos    Used
    COMMON           14     12      14
    BANK0            80      0       0
    BANK1            80      0       0
    BANK2            80      0       0
    BANK3            80      0       0
    BANK4            80      0       0
    BANK5            80      0       0
    BANK6            80      0       0
    BANK7            80      0       0
    BANK8            80      0       0
    BANK9            80      0       0
    BANK10           80      0       0
    BANK11           80      0       0
    BANK12           80      0       0
    BANK13           80      0       0
    BANK14           80      0       0
    BANK15           80      0       0
    BANK16           80      0       0
    BANK17           80      0       0
    BANK18           80      0       0
    BANK19           80      0       0
    BANK20           80      0       0
    BANK21           80      0       0
    BANK22           80      0       0
    BANK23           80      0       0
    BANK24           80      0       0
    BANK25           32      0       0

Pointer List with Targets:

    defineGPIODirection@output	PTR enum E11183 size(1) Largest target is 1
		 -> main@output(COMMON[1]), 

    defineGPIODirection@input	PTR enum E11183 size(1) Largest target is 1
		 -> main@input(COMMON[1]), 


Critical Paths under _main in COMMON

    _main->_defineGPIODirection

Critical Paths under _main in BANK0

    None.

Critical Paths under _main in BANK1

    None.

Critical Paths under _main in BANK2

    None.

Critical Paths under _main in BANK3

    None.

Critical Paths under _main in BANK4

    None.

Critical Paths under _main in BANK5

    None.

Critical Paths under _main in BANK6

    None.

Critical Paths under _main in BANK7

    None.

Critical Paths under _main in BANK8

    None.

Critical Paths under _main in BANK9

    None.

Critical Paths under _main in BANK10

    None.

Critical Paths under _main in BANK11

    None.

Critical Paths under _main in BANK12

    None.

Critical Paths under _main in BANK13

    None.

Critical Paths under _main in BANK14

    None.

Critical Paths under _main in BANK15

    None.

Critical Paths under _main in BANK16

    None.

Critical Paths under _main in BANK17

    None.

Critical Paths under _main in BANK18

    None.

Critical Paths under _main in BANK19

    None.

Critical Paths under _main in BANK20

    None.

Critical Paths under _main in BANK21

    None.

Critical Paths under _main in BANK22

    None.

Critical Paths under _main in BANK23

    None.

Critical Paths under _main in BANK24

    None.

Critical Paths under _main in BANK25

    None.

Call Graph Tables:

 ---------------------------------------------------------------------------------
 (Depth) Function   	        Calls       Base Space   Used Autos Params    Refs
 ---------------------------------------------------------------------------------
 (0) _main                                                 4     4      0     514
                                              8 COMMON     4     4      0
                _defineGPIODirection
 ---------------------------------------------------------------------------------
 (1) _defineGPIODirection                                  8     5      3     441
                                              0 COMMON     8     5      3
 ---------------------------------------------------------------------------------
 Estimated maximum stack depth 1
 ---------------------------------------------------------------------------------

 Call Graph Graphs:

 _main (ROOT)
   _defineGPIODirection

 Address spaces:
Name               Size   Autos  Total    Cost      Usage
BIGRAM             7F0      0       0       0        0.0%
EEDATA             100      0       0       0        0.0%
NULL                 0      0       0       0        0.0%
CODE                 0      0       0       0        0.0%
BITCOMMON            E      0       0       1        0.0%
BITSFR0              0      0       0       1        0.0%
SFR0                 0      0       0       1        0.0%
COMMON               E      C       E       2      100.0%
BITSFR1              0      0       0       2        0.0%
SFR1                 0      0       0       2        0.0%
BITSFR2              0      0       0       3        0.0%
SFR2                 0      0       0       3        0.0%
STACK                0      0       0       3        0.0%
BITBANK0            50      0       0       4        0.0%
BITSFR3              0      0       0       4        0.0%
SFR3                 0      0       0       4        0.0%
BANK0               50      0       0       5        0.0%
BITSFR4              0      0       0       5        0.0%
SFR4                 0      0       0       5        0.0%
BITSFR5              0      0       0       6        0.0%
SFR5                 0      0       0       6        0.0%
ABS                  0      0       E       6        0.0%
BITBANK1            50      0       0       7        0.0%
BITSFR6              0      0       0       7        0.0%
SFR6                 0      0       0       7        0.0%
BANK1               50      0       0       8        0.0%
BITSFR7              0      0       0       8        0.0%
SFR7                 0      0       0       8        0.0%
BITBANK2            50      0       0       9        0.0%
BITSFR8              0      0       0       9        0.0%
SFR8                 0      0       0       9        0.0%
BANK2               50      0       0      10        0.0%
BITSFR9              0      0       0      10        0.0%
SFR9                 0      0       0      10        0.0%
BITBANK3            50      0       0      11        0.0%
BITSFR10             0      0       0      11        0.0%
SFR10                0      0       0      11        0.0%
BANK3               50      0       0      12        0.0%
BITSFR11             0      0       0      12        0.0%
SFR11                0      0       0      12        0.0%
BITBANK4            50      0       0      13        0.0%
BITSFR12             0      0       0      13        0.0%
SFR12                0      0       0      13        0.0%
BANK4               50      0       0      14        0.0%
BITSFR13             0      0       0      14        0.0%
SFR13                0      0       0      14        0.0%
BITBANK5            50      0       0      15        0.0%
BITSFR14             0      0       0      15        0.0%
SFR14                0      0       0      15        0.0%
BANK5               50      0       0      16        0.0%
BITSFR15             0      0       0      16        0.0%
SFR15                0      0       0      16        0.0%
BITBANK6            50      0       0      17        0.0%
BITSFR16             0      0       0      17        0.0%
SFR16                0      0       0      17        0.0%
BANK6               50      0       0      18        0.0%
BITSFR17             0      0       0      18        0.0%
SFR17                0      0       0      18        0.0%
BITBANK7            50      0       0      19        0.0%
BITSFR18             0      0       0      19        0.0%
SFR18                0      0       0      19        0.0%
BANK7               50      0       0      20        0.0%
BITSFR19             0      0       0      20        0.0%
SFR19                0      0       0      20        0.0%
BITBANK8            50      0       0      21        0.0%
BITSFR20             0      0       0      21        0.0%
SFR20                0      0       0      21        0.0%
BANK8               50      0       0      22        0.0%
BITSFR21             0      0       0      22        0.0%
SFR21                0      0       0      22        0.0%
BITBANK9            50      0       0      23        0.0%
BITSFR22             0      0       0      23        0.0%
SFR22                0      0       0      23        0.0%
BANK9               50      0       0      24        0.0%
BITSFR23             0      0       0      24        0.0%
SFR23                0      0       0      24        0.0%
BITBANK10           50      0       0      25        0.0%
BITSFR24             0      0       0      25        0.0%
SFR24                0      0       0      25        0.0%
BANK10              50      0       0      26        0.0%
BITSFR25             0      0       0      26        0.0%
SFR25                0      0       0      26        0.0%
BITBANK11           50      0       0      27        0.0%
BITSFR26             0      0       0      27        0.0%
SFR26                0      0       0      27        0.0%
BANK11              50      0       0      28        0.0%
BITSFR27             0      0       0      28        0.0%
SFR27                0      0       0      28        0.0%
BITBANK12           50      0       0      29        0.0%
BITSFR28             0      0       0      29        0.0%
SFR28                0      0       0      29        0.0%
BANK12              50      0       0      30        0.0%
BITSFR29             0      0       0      30        0.0%
SFR29                0      0       0      30        0.0%
BITBANK13           50      0       0      31        0.0%
BITSFR30             0      0       0      31        0.0%
SFR30                0      0       0      31        0.0%
BANK13              50      0       0      32        0.0%
BITSFR31             0      0       0      32        0.0%
SFR31                0      0       0      32        0.0%
BITBANK14           50      0       0      33        0.0%
BITSFR32             0      0       0      33        0.0%
SFR32                0      0       0      33        0.0%
BANK14              50      0       0      34        0.0%
BITSFR33             0      0       0      34        0.0%
SFR33                0      0       0      34        0.0%
BITBANK15           50      0       0      35        0.0%
BITSFR34             0      0       0      35        0.0%
SFR34                0      0       0      35        0.0%
BANK15              50      0       0      36        0.0%
BITSFR35             0      0       0      36        0.0%
SFR35                0      0       0      36        0.0%
BITBANK16           50      0       0      37        0.0%
BITSFR36             0      0       0      37        0.0%
SFR36                0      0       0      37        0.0%
BANK16              50      0       0      38        0.0%
BITSFR37             0      0       0      38        0.0%
SFR37                0      0       0      38        0.0%
BITBANK17           50      0       0      39        0.0%
BITSFR38             0      0       0      39        0.0%
SFR38                0      0       0      39        0.0%
BANK17              50      0       0      40        0.0%
BITSFR39             0      0       0      40        0.0%
SFR39                0      0       0      40        0.0%
BITBANK18           50      0       0      41        0.0%
BITSFR40             0      0       0      41        0.0%
SFR40                0      0       0      41        0.0%
BANK18              50      0       0      42        0.0%
BITSFR41             0      0       0      42        0.0%
SFR41                0      0       0      42        0.0%
BITBANK19           50      0       0      43        0.0%
BITSFR42             0      0       0      43        0.0%
SFR42                0      0       0      43        0.0%
BANK19              50      0       0      44        0.0%
BITSFR43             0      0       0      44        0.0%
SFR43                0      0       0      44        0.0%
BITBANK20           50      0       0      45        0.0%
BITSFR44             0      0       0      45        0.0%
SFR44                0      0       0      45        0.0%
BANK20              50      0       0      46        0.0%
BITSFR45             0      0       0      46        0.0%
SFR45                0      0       0      46        0.0%
BITBANK21           50      0       0      47        0.0%
BITSFR46             0      0       0      47        0.0%
SFR46                0      0       0      47        0.0%
BANK21              50      0       0      48        0.0%
BITSFR47             0      0       0      48        0.0%
SFR47                0      0       0      48        0.0%
BITBANK22           50      0       0      49        0.0%
BITSFR48             0      0       0      49        0.0%
SFR48                0      0       0      49        0.0%
BANK22              50      0       0      50        0.0%
BITSFR49             0      0       0      50        0.0%
SFR49                0      0       0      50        0.0%
BITBANK23           50      0       0      51        0.0%
BITSFR50             0      0       0      51        0.0%
SFR50                0      0       0      51        0.0%
BANK23              50      0       0      52        0.0%
BITSFR51             0      0       0      52        0.0%
SFR51                0      0       0      52        0.0%
BITBANK24           50      0       0      53        0.0%
BITSFR52             0      0       0      53        0.0%
SFR52                0      0       0      53        0.0%
BANK24              50      0       0      54        0.0%
BITSFR53             0      0       0      54        0.0%
SFR53                0      0       0      54        0.0%
BITBANK25           20      0       0      55        0.0%
BITSFR54             0      0       0      55        0.0%
SFR54                0      0       0      55        0.0%
BANK25              20      0       0      56        0.0%
BITSFR55             0      0       0      56        0.0%
SFR55                0      0       0      56        0.0%
BITSFR56             0      0       0      57        0.0%
SFR56                0      0       0      57        0.0%
DATA                 0      0       E      57        0.0%
BITSFR57             0      0       0      58        0.0%
SFR57                0      0       0      58        0.0%
BITSFR58             0      0       0      59        0.0%
SFR58                0      0       0      59        0.0%
BITSFR59             0      0       0      60        0.0%
SFR59                0      0       0      60        0.0%
BITSFR60             0      0       0      61        0.0%
SFR60                0      0       0      61        0.0%
BITSFR61             0      0       0      62        0.0%
SFR61                0      0       0      62        0.0%
BITSFR62             0      0       0      63        0.0%
SFR62                0      0       0      63        0.0%
BITSFR63             0      0       0      64        0.0%
SFR63                0      0       0      64        0.0%


Microchip Technology PIC Macro Assembler V2.05 build -831301201 
Symbol Table                                                                                   Fri Mar 27 23:31:17 2020

                             l50 06D7                               l18 06C0                               l51 06DD  
                             l60 0713                               l52 06E3                               l61 0719  
                             l53 06E9                               l70 077B                               l62 071F  
                             l54 06EF                               l46 06C5                               l71 077E  
                             l63 0725                               l55 06F5                               l80 0799  
                             l72 0781                               l56 06FB                               l48 06CB  
                             l81 079C                               l73 0784                               l57 0701  
                             l49 06D1                               l82 079F                               l74 0787  
                             l58 0707                               l83 07A2                               l75 078A  
                             l59 070D                               l84 07A5                               l76 078D  
                             l68 0778                               l85 07A8                               l77 0790  
                             l78 0793                               l79 0796                              l811 06B4  
                            l815 06BA                              l817 06BB                              l861 0740  
                            l863 07C0                              l793 07AA                              l785 072A  
                            l795 07AE                              l787 072E                              l789 0776  
                           _main 06A0                             fsr1h 0007                             indf1 0001  
                           fsr1l 0006                             btemp 007E                             start 0002  
                          ?_main 0070   defineGPIODirection@inputLength 0071                            status 0003  
                          wtemp0 007E                  __initialization 07F6                     __end_of_main 06C2  
                         ??_main 0078                     __pdataCOMMON 007C          __end_of__initialization 07FD  
                 __pcstackCOMMON 0070     __size_of_defineGPIODirection 0134                       __pmaintext 06A0  
                        __ptext1 06C2                          main@led 007B             end_of_initialization 07FD  
                     main@F11210 007C                       main@F11208 007D                        _PORTBbits 000D  
       defineGPIODirection@input 0076                        _TRISAbits 0012                        _TRISBbits 0013  
                      _TRISCbits 0014                       main@output 007A                    __pidataCOMMON 069E  
defineGPIODirection@outputLength 0072              _defineGPIODirection 06C2              start_initialization 07F6  
      defineGPIODirection@output 0070             ?_defineGPIODirection 0070                        ___latbits 0003  
          ??_defineGPIODirection 0073                         _LATCbits 001A                         _WPUAbits 1F39  
                       _WPUBbits 1F44                         _WPUCbits 1F4F                        main@input 0079  
           defineGPIODirection@i 0077                       _ANSELAbits 1F38                       _ANSELBbits 1F43  
                     _ANSELCbits 1F4E                    __size_of_main 0022      __end_of_defineGPIODirection 07F6  
