

Microchip MPLAB XC8 Assembler V2.05 build -831301201 
                                                                                               Sun Mar 29 00:12:57 2020

Microchip MPLAB XC8 C Compiler v2.05 (Free license) build 20181220022703 Og1 
     1                           	processor	16F18446
     2                           	opt	pw 120
     3                           	opt	flic
     4                           	psect	idataCOMMON,global,class=CODE,delta=2
     5                           	psect	cinit,global,class=CODE,merge=1,delta=2
     6                           	psect	bssCOMMON,global,class=COMMON,space=1,delta=1
     7                           	psect	dataCOMMON,global,class=COMMON,space=1,delta=1
     8                           	psect	bssBANK0,global,class=BANK0,space=1,delta=1
     9                           	psect	clrtext,global,class=CODE,delta=2
    10                           	psect	cstackCOMMON,global,class=COMMON,space=1,delta=1
    11                           	psect	maintext,global,class=CODE,merge=1,split=1,delta=2
    12                           	psect	text1,local,class=CODE,merge=1,delta=2
    13                           	psect	text2,local,class=CODE,merge=1,delta=2
    14                           	psect	text3,local,class=CODE,merge=1,delta=2
    15                           	psect	intentry,global,class=CODE,delta=2
    16                           	dabs	1,0x7E,2
    17  0000                     
    18                           ; Version 2.05
    19                           ; Generated 20/12/2018 GMT
    20                           ; 
    21                           ; Copyright © 2018, Microchip Technology Inc. and its subsidiaries ("Microchip")
    22                           ; All rights reserved.
    23                           ; 
    24                           ; This software is developed by Microchip Technology Inc. and its subsidiaries ("Microch
      +                          ip").
    25                           ; 
    26                           ; Redistribution and use in source and binary forms, with or without modification, are
    27                           ; permitted provided that the following conditions are met:
    28                           ; 
    29                           ;     1. Redistributions of source code must retain the above copyright notice, this lis
      +                          t of
    30                           ;        conditions and the following disclaimer.
    31                           ; 
    32                           ;     2. Redistributions in binary form must reproduce the above copyright notice, this 
      +                          list
    33                           ;        of conditions and the following disclaimer in the documentation and/or other
    34                           ;        materials provided with the distribution.
    35                           ; 
    36                           ;     3. Microchip's name may not be used to endorse or promote products derived from th
      +                          is
    37                           ;        software without specific prior written permission.
    38                           ; 
    39                           ; THIS SOFTWARE IS PROVIDED BY MICROCHIP "AS IS" AND ANY EXPRESS OR IMPLIED WARRANTIES,
    40                           ; INCLUDING, BUT NOT LIMITED TO, THE IMPLIED WARRANTIES OF MERCHANTABILITY AND FITNESS F
      +                          OR
    41                           ; PURPOSE ARE DISCLAIMED.  IN NO EVENT SHALL MICROCHIP BE LIABLE FOR ANY DIRECT, INDIREC
      +                          T,
    42                           ; INCIDENTAL, SPECIAL, EXEMPLARY, OR CONSEQUENTIAL DAMAGES (INCLUDING BUT NOT LIMITED TO
    43                           ; PROCUREMENT OF SUBSTITUTE GOODS OR SERVICES; LOSS OF USE, DATA OR PROFITS; OR BUSINESS
    44                           ; INTERRUPTION) HOWSOEVER CAUSED AND ON ANY THEORY OF LIABILITY, WHETHER IN CONTRACT, ST
      +                          RICT
    45                           ; LIABILITY, OR TORT (INCLUDING NEGLIGENCE OR OTHERWISE) ARISING IN ANY WAY OUT OF THE U
      +                          SE OF
    46                           ; THIS SOFTWARE, EVEN IF ADVISED OF THE POSSIBILITY OF SUCH DAMAGE.
    47                           ; 
    48                           ; 
    49                           ; Code-generator required, PIC16F18446 Definitions
    50                           ; 
    51                           ; SFR Addresses
    52  0000                     	;# 
    53  0001                     	;# 
    54  0002                     	;# 
    55  0003                     	;# 
    56  0004                     	;# 
    57  0005                     	;# 
    58  0006                     	;# 
    59  0007                     	;# 
    60  0008                     	;# 
    61  0009                     	;# 
    62  000A                     	;# 
    63  000B                     	;# 
    64  000C                     	;# 
    65  000D                     	;# 
    66  000E                     	;# 
    67  0012                     	;# 
    68  0013                     	;# 
    69  0014                     	;# 
    70  0018                     	;# 
    71  0019                     	;# 
    72  001A                     	;# 
    73  008C                     	;# 
    74  008C                     	;# 
    75  008D                     	;# 
    76  008E                     	;# 
    77  008E                     	;# 
    78  008F                     	;# 
    79  0090                     	;# 
    80  0090                     	;# 
    81  0091                     	;# 
    82  0092                     	;# 
    83  0092                     	;# 
    84  0093                     	;# 
    85  0094                     	;# 
    86  0094                     	;# 
    87  0095                     	;# 
    88  0096                     	;# 
    89  0096                     	;# 
    90  0097                     	;# 
    91  0098                     	;# 
    92  0099                     	;# 
    93  009A                     	;# 
    94  009B                     	;# 
    95  009B                     	;# 
    96  009C                     	;# 
    97  009D                     	;# 
    98  009D                     	;# 
    99  009E                     	;# 
   100  009F                     	;# 
   101  010C                     	;# 
   102  010C                     	;# 
   103  010D                     	;# 
   104  010E                     	;# 
   105  010F                     	;# 
   106  010F                     	;# 
   107  0110                     	;# 
   108  0111                     	;# 
   109  0112                     	;# 
   110  0113                     	;# 
   111  0114                     	;# 
   112  0115                     	;# 
   113  0116                     	;# 
   114  0117                     	;# 
   115  0118                     	;# 
   116  0119                     	;# 
   117  0119                     	;# 
   118  0119                     	;# 
   119  011A                     	;# 
   120  011A                     	;# 
   121  011A                     	;# 
   122  011B                     	;# 
   123  011B                     	;# 
   124  011B                     	;# 
   125  011B                     	;# 
   126  011B                     	;# 
   127  011C                     	;# 
   128  011C                     	;# 
   129  011C                     	;# 
   130  011D                     	;# 
   131  011D                     	;# 
   132  011D                     	;# 
   133  011E                     	;# 
   134  011E                     	;# 
   135  011E                     	;# 
   136  011F                     	;# 
   137  011F                     	;# 
   138  011F                     	;# 
   139  011F                     	;# 
   140  011F                     	;# 
   141  018C                     	;# 
   142  018D                     	;# 
   143  018E                     	;# 
   144  018F                     	;# 
   145  0190                     	;# 
   146  0191                     	;# 
   147  0192                     	;# 
   148  0196                     	;# 
   149  0197                     	;# 
   150  0198                     	;# 
   151  0199                     	;# 
   152  019A                     	;# 
   153  019B                     	;# 
   154  019C                     	;# 
   155  020C                     	;# 
   156  020D                     	;# 
   157  020E                     	;# 
   158  020E                     	;# 
   159  020F                     	;# 
   160  020F                     	;# 
   161  0210                     	;# 
   162  0210                     	;# 
   163  0211                     	;# 
   164  0211                     	;# 
   165  0212                     	;# 
   166  0213                     	;# 
   167  0214                     	;# 
   168  0214                     	;# 
   169  0215                     	;# 
   170  0215                     	;# 
   171  0216                     	;# 
   172  0216                     	;# 
   173  0217                     	;# 
   174  0217                     	;# 
   175  0218                     	;# 
   176  0219                     	;# 
   177  021A                     	;# 
   178  021A                     	;# 
   179  021B                     	;# 
   180  021B                     	;# 
   181  021C                     	;# 
   182  021C                     	;# 
   183  021D                     	;# 
   184  021D                     	;# 
   185  021E                     	;# 
   186  021F                     	;# 
   187  028C                     	;# 
   188  028C                     	;# 
   189  028D                     	;# 
   190  028D                     	;# 
   191  028E                     	;# 
   192  028F                     	;# 
   193  0290                     	;# 
   194  0291                     	;# 
   195  0292                     	;# 
   196  0292                     	;# 
   197  0293                     	;# 
   198  0293                     	;# 
   199  0294                     	;# 
   200  0295                     	;# 
   201  0296                     	;# 
   202  0297                     	;# 
   203  0298                     	;# 
   204  0298                     	;# 
   205  0299                     	;# 
   206  0299                     	;# 
   207  029A                     	;# 
   208  029B                     	;# 
   209  029C                     	;# 
   210  029D                     	;# 
   211  029F                     	;# 
   212  030C                     	;# 
   213  030C                     	;# 
   214  030D                     	;# 
   215  030E                     	;# 
   216  030F                     	;# 
   217  0310                     	;# 
   218  0310                     	;# 
   219  0311                     	;# 
   220  0312                     	;# 
   221  0313                     	;# 
   222  0314                     	;# 
   223  0314                     	;# 
   224  0315                     	;# 
   225  0316                     	;# 
   226  0317                     	;# 
   227  0318                     	;# 
   228  0318                     	;# 
   229  0319                     	;# 
   230  031A                     	;# 
   231  031B                     	;# 
   232  038C                     	;# 
   233  038C                     	;# 
   234  038D                     	;# 
   235  038E                     	;# 
   236  0390                     	;# 
   237  0390                     	;# 
   238  0391                     	;# 
   239  0392                     	;# 
   240  048C                     	;# 
   241  048C                     	;# 
   242  048D                     	;# 
   243  048E                     	;# 
   244  048F                     	;# 
   245  048F                     	;# 
   246  0490                     	;# 
   247  0491                     	;# 
   248  0492                     	;# 
   249  0492                     	;# 
   250  0493                     	;# 
   251  0494                     	;# 
   252  0495                     	;# 
   253  0495                     	;# 
   254  0496                     	;# 
   255  0497                     	;# 
   256  0498                     	;# 
   257  0499                     	;# 
   258  049A                     	;# 
   259  049B                     	;# 
   260  049C                     	;# 
   261  049D                     	;# 
   262  058C                     	;# 
   263  058C                     	;# 
   264  058D                     	;# 
   265  058E                     	;# 
   266  058F                     	;# 
   267  058F                     	;# 
   268  0590                     	;# 
   269  0591                     	;# 
   270  0592                     	;# 
   271  0593                     	;# 
   272  059C                     	;# 
   273  059C                     	;# 
   274  059D                     	;# 
   275  059D                     	;# 
   276  059E                     	;# 
   277  059F                     	;# 
   278  060C                     	;# 
   279  060C                     	;# 
   280  060D                     	;# 
   281  060D                     	;# 
   282  060E                     	;# 
   283  060F                     	;# 
   284  0610                     	;# 
   285  0611                     	;# 
   286  0612                     	;# 
   287  0613                     	;# 
   288  0614                     	;# 
   289  0616                     	;# 
   290  0616                     	;# 
   291  0617                     	;# 
   292  0617                     	;# 
   293  0618                     	;# 
   294  0619                     	;# 
   295  061A                     	;# 
   296  061B                     	;# 
   297  061C                     	;# 
   298  061D                     	;# 
   299  061E                     	;# 
   300  070C                     	;# 
   301  070D                     	;# 
   302  070E                     	;# 
   303  070F                     	;# 
   304  0710                     	;# 
   305  0711                     	;# 
   306  0712                     	;# 
   307  0713                     	;# 
   308  0714                     	;# 
   309  0716                     	;# 
   310  0717                     	;# 
   311  0718                     	;# 
   312  0719                     	;# 
   313  071A                     	;# 
   314  071B                     	;# 
   315  071C                     	;# 
   316  071D                     	;# 
   317  071E                     	;# 
   318  0796                     	;# 
   319  0797                     	;# 
   320  0798                     	;# 
   321  0799                     	;# 
   322  079A                     	;# 
   323  079B                     	;# 
   324  079C                     	;# 
   325  079D                     	;# 
   326  080C                     	;# 
   327  080D                     	;# 
   328  080E                     	;# 
   329  080F                     	;# 
   330  0810                     	;# 
   331  0811                     	;# 
   332  0812                     	;# 
   333  0813                     	;# 
   334  0814                     	;# 
   335  081A                     	;# 
   336  081A                     	;# 
   337  081B                     	;# 
   338  081C                     	;# 
   339  081C                     	;# 
   340  081D                     	;# 
   341  081E                     	;# 
   342  081F                     	;# 
   343  088C                     	;# 
   344  088D                     	;# 
   345  088E                     	;# 
   346  088F                     	;# 
   347  0890                     	;# 
   348  0891                     	;# 
   349  0892                     	;# 
   350  0893                     	;# 
   351  0895                     	;# 
   352  0896                     	;# 
   353  0897                     	;# 
   354  0898                     	;# 
   355  0899                     	;# 
   356  089A                     	;# 
   357  089B                     	;# 
   358  090C                     	;# 
   359  090E                     	;# 
   360  090F                     	;# 
   361  091F                     	;# 
   362  098F                     	;# 
   363  098F                     	;# 
   364  0990                     	;# 
   365  0991                     	;# 
   366  0992                     	;# 
   367  0993                     	;# 
   368  0994                     	;# 
   369  0995                     	;# 
   370  0996                     	;# 
   371  0997                     	;# 
   372  1E0F                     	;# 
   373  1E10                     	;# 
   374  1E11                     	;# 
   375  1E12                     	;# 
   376  1E13                     	;# 
   377  1E14                     	;# 
   378  1E15                     	;# 
   379  1E16                     	;# 
   380  1E17                     	;# 
   381  1E18                     	;# 
   382  1E19                     	;# 
   383  1E1A                     	;# 
   384  1E1B                     	;# 
   385  1E1C                     	;# 
   386  1E1D                     	;# 
   387  1E1E                     	;# 
   388  1E1F                     	;# 
   389  1E20                     	;# 
   390  1E21                     	;# 
   391  1E22                     	;# 
   392  1E23                     	;# 
   393  1E24                     	;# 
   394  1E25                     	;# 
   395  1E26                     	;# 
   396  1E27                     	;# 
   397  1E28                     	;# 
   398  1E29                     	;# 
   399  1E2A                     	;# 
   400  1E2B                     	;# 
   401  1E2C                     	;# 
   402  1E2D                     	;# 
   403  1E2E                     	;# 
   404  1E2F                     	;# 
   405  1E30                     	;# 
   406  1E31                     	;# 
   407  1E32                     	;# 
   408  1E33                     	;# 
   409  1E34                     	;# 
   410  1E35                     	;# 
   411  1E36                     	;# 
   412  1E37                     	;# 
   413  1E8F                     	;# 
   414  1E90                     	;# 
   415  1E91                     	;# 
   416  1E92                     	;# 
   417  1E93                     	;# 
   418  1E94                     	;# 
   419  1E95                     	;# 
   420  1E96                     	;# 
   421  1E97                     	;# 
   422  1E9C                     	;# 
   423  1E9D                     	;# 
   424  1E9E                     	;# 
   425  1EA1                     	;# 
   426  1EA2                     	;# 
   427  1EA3                     	;# 
   428  1EA4                     	;# 
   429  1EA9                     	;# 
   430  1EAA                     	;# 
   431  1EB1                     	;# 
   432  1EB2                     	;# 
   433  1EB8                     	;# 
   434  1EB9                     	;# 
   435  1EBA                     	;# 
   436  1EBB                     	;# 
   437  1EBC                     	;# 
   438  1EBD                     	;# 
   439  1EBE                     	;# 
   440  1EC3                     	;# 
   441  1EC5                     	;# 
   442  1EC6                     	;# 
   443  1EC7                     	;# 
   444  1EC8                     	;# 
   445  1EC9                     	;# 
   446  1ECA                     	;# 
   447  1ECB                     	;# 
   448  1ECB                     	;# 
   449  1ECB                     	;# 
   450  1ECC                     	;# 
   451  1ECC                     	;# 
   452  1ECC                     	;# 
   453  1F10                     	;# 
   454  1F11                     	;# 
   455  1F12                     	;# 
   456  1F14                     	;# 
   457  1F15                     	;# 
   458  1F1C                     	;# 
   459  1F1D                     	;# 
   460  1F1E                     	;# 
   461  1F1F                     	;# 
   462  1F20                     	;# 
   463  1F21                     	;# 
   464  1F22                     	;# 
   465  1F23                     	;# 
   466  1F24                     	;# 
   467  1F25                     	;# 
   468  1F26                     	;# 
   469  1F27                     	;# 
   470  1F38                     	;# 
   471  1F39                     	;# 
   472  1F3A                     	;# 
   473  1F3B                     	;# 
   474  1F3C                     	;# 
   475  1F3D                     	;# 
   476  1F3E                     	;# 
   477  1F3F                     	;# 
   478  1F43                     	;# 
   479  1F44                     	;# 
   480  1F45                     	;# 
   481  1F46                     	;# 
   482  1F47                     	;# 
   483  1F48                     	;# 
   484  1F49                     	;# 
   485  1F4A                     	;# 
   486  1F4E                     	;# 
   487  1F4F                     	;# 
   488  1F50                     	;# 
   489  1F51                     	;# 
   490  1F52                     	;# 
   491  1F53                     	;# 
   492  1F54                     	;# 
   493  1F55                     	;# 
   494  1FE4                     	;# 
   495  1FE5                     	;# 
   496  1FE6                     	;# 
   497  1FE7                     	;# 
   498  1FE8                     	;# 
   499  1FE8                     	;# 
   500  1FE9                     	;# 
   501  1FEA                     	;# 
   502  1FEB                     	;# 
   503  1FED                     	;# 
   504  1FEE                     	;# 
   505  1FEF                     	;# 
   506  0000                     	;# 
   507  0001                     	;# 
   508  0002                     	;# 
   509  0003                     	;# 
   510  0004                     	;# 
   511  0005                     	;# 
   512  0006                     	;# 
   513  0007                     	;# 
   514  0008                     	;# 
   515  0009                     	;# 
   516  000A                     	;# 
   517  000B                     	;# 
   518  000C                     	;# 
   519  000D                     	;# 
   520  000E                     	;# 
   521  0012                     	;# 
   522  0013                     	;# 
   523  0014                     	;# 
   524  0018                     	;# 
   525  0019                     	;# 
   526  001A                     	;# 
   527  008C                     	;# 
   528  008C                     	;# 
   529  008D                     	;# 
   530  008E                     	;# 
   531  008E                     	;# 
   532  008F                     	;# 
   533  0090                     	;# 
   534  0090                     	;# 
   535  0091                     	;# 
   536  0092                     	;# 
   537  0092                     	;# 
   538  0093                     	;# 
   539  0094                     	;# 
   540  0094                     	;# 
   541  0095                     	;# 
   542  0096                     	;# 
   543  0096                     	;# 
   544  0097                     	;# 
   545  0098                     	;# 
   546  0099                     	;# 
   547  009A                     	;# 
   548  009B                     	;# 
   549  009B                     	;# 
   550  009C                     	;# 
   551  009D                     	;# 
   552  009D                     	;# 
   553  009E                     	;# 
   554  009F                     	;# 
   555  010C                     	;# 
   556  010C                     	;# 
   557  010D                     	;# 
   558  010E                     	;# 
   559  010F                     	;# 
   560  010F                     	;# 
   561  0110                     	;# 
   562  0111                     	;# 
   563  0112                     	;# 
   564  0113                     	;# 
   565  0114                     	;# 
   566  0115                     	;# 
   567  0116                     	;# 
   568  0117                     	;# 
   569  0118                     	;# 
   570  0119                     	;# 
   571  0119                     	;# 
   572  0119                     	;# 
   573  011A                     	;# 
   574  011A                     	;# 
   575  011A                     	;# 
   576  011B                     	;# 
   577  011B                     	;# 
   578  011B                     	;# 
   579  011B                     	;# 
   580  011B                     	;# 
   581  011C                     	;# 
   582  011C                     	;# 
   583  011C                     	;# 
   584  011D                     	;# 
   585  011D                     	;# 
   586  011D                     	;# 
   587  011E                     	;# 
   588  011E                     	;# 
   589  011E                     	;# 
   590  011F                     	;# 
   591  011F                     	;# 
   592  011F                     	;# 
   593  011F                     	;# 
   594  011F                     	;# 
   595  018C                     	;# 
   596  018D                     	;# 
   597  018E                     	;# 
   598  018F                     	;# 
   599  0190                     	;# 
   600  0191                     	;# 
   601  0192                     	;# 
   602  0196                     	;# 
   603  0197                     	;# 
   604  0198                     	;# 
   605  0199                     	;# 
   606  019A                     	;# 
   607  019B                     	;# 
   608  019C                     	;# 
   609  020C                     	;# 
   610  020D                     	;# 
   611  020E                     	;# 
   612  020E                     	;# 
   613  020F                     	;# 
   614  020F                     	;# 
   615  0210                     	;# 
   616  0210                     	;# 
   617  0211                     	;# 
   618  0211                     	;# 
   619  0212                     	;# 
   620  0213                     	;# 
   621  0214                     	;# 
   622  0214                     	;# 
   623  0215                     	;# 
   624  0215                     	;# 
   625  0216                     	;# 
   626  0216                     	;# 
   627  0217                     	;# 
   628  0217                     	;# 
   629  0218                     	;# 
   630  0219                     	;# 
   631  021A                     	;# 
   632  021A                     	;# 
   633  021B                     	;# 
   634  021B                     	;# 
   635  021C                     	;# 
   636  021C                     	;# 
   637  021D                     	;# 
   638  021D                     	;# 
   639  021E                     	;# 
   640  021F                     	;# 
   641  028C                     	;# 
   642  028C                     	;# 
   643  028D                     	;# 
   644  028D                     	;# 
   645  028E                     	;# 
   646  028F                     	;# 
   647  0290                     	;# 
   648  0291                     	;# 
   649  0292                     	;# 
   650  0292                     	;# 
   651  0293                     	;# 
   652  0293                     	;# 
   653  0294                     	;# 
   654  0295                     	;# 
   655  0296                     	;# 
   656  0297                     	;# 
   657  0298                     	;# 
   658  0298                     	;# 
   659  0299                     	;# 
   660  0299                     	;# 
   661  029A                     	;# 
   662  029B                     	;# 
   663  029C                     	;# 
   664  029D                     	;# 
   665  029F                     	;# 
   666  030C                     	;# 
   667  030C                     	;# 
   668  030D                     	;# 
   669  030E                     	;# 
   670  030F                     	;# 
   671  0310                     	;# 
   672  0310                     	;# 
   673  0311                     	;# 
   674  0312                     	;# 
   675  0313                     	;# 
   676  0314                     	;# 
   677  0314                     	;# 
   678  0315                     	;# 
   679  0316                     	;# 
   680  0317                     	;# 
   681  0318                     	;# 
   682  0318                     	;# 
   683  0319                     	;# 
   684  031A                     	;# 
   685  031B                     	;# 
   686  038C                     	;# 
   687  038C                     	;# 
   688  038D                     	;# 
   689  038E                     	;# 
   690  0390                     	;# 
   691  0390                     	;# 
   692  0391                     	;# 
   693  0392                     	;# 
   694  048C                     	;# 
   695  048C                     	;# 
   696  048D                     	;# 
   697  048E                     	;# 
   698  048F                     	;# 
   699  048F                     	;# 
   700  0490                     	;# 
   701  0491                     	;# 
   702  0492                     	;# 
   703  0492                     	;# 
   704  0493                     	;# 
   705  0494                     	;# 
   706  0495                     	;# 
   707  0495                     	;# 
   708  0496                     	;# 
   709  0497                     	;# 
   710  0498                     	;# 
   711  0499                     	;# 
   712  049A                     	;# 
   713  049B                     	;# 
   714  049C                     	;# 
   715  049D                     	;# 
   716  058C                     	;# 
   717  058C                     	;# 
   718  058D                     	;# 
   719  058E                     	;# 
   720  058F                     	;# 
   721  058F                     	;# 
   722  0590                     	;# 
   723  0591                     	;# 
   724  0592                     	;# 
   725  0593                     	;# 
   726  059C                     	;# 
   727  059C                     	;# 
   728  059D                     	;# 
   729  059D                     	;# 
   730  059E                     	;# 
   731  059F                     	;# 
   732  060C                     	;# 
   733  060C                     	;# 
   734  060D                     	;# 
   735  060D                     	;# 
   736  060E                     	;# 
   737  060F                     	;# 
   738  0610                     	;# 
   739  0611                     	;# 
   740  0612                     	;# 
   741  0613                     	;# 
   742  0614                     	;# 
   743  0616                     	;# 
   744  0616                     	;# 
   745  0617                     	;# 
   746  0617                     	;# 
   747  0618                     	;# 
   748  0619                     	;# 
   749  061A                     	;# 
   750  061B                     	;# 
   751  061C                     	;# 
   752  061D                     	;# 
   753  061E                     	;# 
   754  070C                     	;# 
   755  070D                     	;# 
   756  070E                     	;# 
   757  070F                     	;# 
   758  0710                     	;# 
   759  0711                     	;# 
   760  0712                     	;# 
   761  0713                     	;# 
   762  0714                     	;# 
   763  0716                     	;# 
   764  0717                     	;# 
   765  0718                     	;# 
   766  0719                     	;# 
   767  071A                     	;# 
   768  071B                     	;# 
   769  071C                     	;# 
   770  071D                     	;# 
   771  071E                     	;# 
   772  0796                     	;# 
   773  0797                     	;# 
   774  0798                     	;# 
   775  0799                     	;# 
   776  079A                     	;# 
   777  079B                     	;# 
   778  079C                     	;# 
   779  079D                     	;# 
   780  080C                     	;# 
   781  080D                     	;# 
   782  080E                     	;# 
   783  080F                     	;# 
   784  0810                     	;# 
   785  0811                     	;# 
   786  0812                     	;# 
   787  0813                     	;# 
   788  0814                     	;# 
   789  081A                     	;# 
   790  081A                     	;# 
   791  081B                     	;# 
   792  081C                     	;# 
   793  081C                     	;# 
   794  081D                     	;# 
   795  081E                     	;# 
   796  081F                     	;# 
   797  088C                     	;# 
   798  088D                     	;# 
   799  088E                     	;# 
   800  088F                     	;# 
   801  0890                     	;# 
   802  0891                     	;# 
   803  0892                     	;# 
   804  0893                     	;# 
   805  0895                     	;# 
   806  0896                     	;# 
   807  0897                     	;# 
   808  0898                     	;# 
   809  0899                     	;# 
   810  089A                     	;# 
   811  089B                     	;# 
   812  090C                     	;# 
   813  090E                     	;# 
   814  090F                     	;# 
   815  091F                     	;# 
   816  098F                     	;# 
   817  098F                     	;# 
   818  0990                     	;# 
   819  0991                     	;# 
   820  0992                     	;# 
   821  0993                     	;# 
   822  0994                     	;# 
   823  0995                     	;# 
   824  0996                     	;# 
   825  0997                     	;# 
   826  1E0F                     	;# 
   827  1E10                     	;# 
   828  1E11                     	;# 
   829  1E12                     	;# 
   830  1E13                     	;# 
   831  1E14                     	;# 
   832  1E15                     	;# 
   833  1E16                     	;# 
   834  1E17                     	;# 
   835  1E18                     	;# 
   836  1E19                     	;# 
   837  1E1A                     	;# 
   838  1E1B                     	;# 
   839  1E1C                     	;# 
   840  1E1D                     	;# 
   841  1E1E                     	;# 
   842  1E1F                     	;# 
   843  1E20                     	;# 
   844  1E21                     	;# 
   845  1E22                     	;# 
   846  1E23                     	;# 
   847  1E24                     	;# 
   848  1E25                     	;# 
   849  1E26                     	;# 
   850  1E27                     	;# 
   851  1E28                     	;# 
   852  1E29                     	;# 
   853  1E2A                     	;# 
   854  1E2B                     	;# 
   855  1E2C                     	;# 
   856  1E2D                     	;# 
   857  1E2E                     	;# 
   858  1E2F                     	;# 
   859  1E30                     	;# 
   860  1E31                     	;# 
   861  1E32                     	;# 
   862  1E33                     	;# 
   863  1E34                     	;# 
   864  1E35                     	;# 
   865  1E36                     	;# 
   866  1E37                     	;# 
   867  1E8F                     	;# 
   868  1E90                     	;# 
   869  1E91                     	;# 
   870  1E92                     	;# 
   871  1E93                     	;# 
   872  1E94                     	;# 
   873  1E95                     	;# 
   874  1E96                     	;# 
   875  1E97                     	;# 
   876  1E9C                     	;# 
   877  1E9D                     	;# 
   878  1E9E                     	;# 
   879  1EA1                     	;# 
   880  1EA2                     	;# 
   881  1EA3                     	;# 
   882  1EA4                     	;# 
   883  1EA9                     	;# 
   884  1EAA                     	;# 
   885  1EB1                     	;# 
   886  1EB2                     	;# 
   887  1EB8                     	;# 
   888  1EB9                     	;# 
   889  1EBA                     	;# 
   890  1EBB                     	;# 
   891  1EBC                     	;# 
   892  1EBD                     	;# 
   893  1EBE                     	;# 
   894  1EC3                     	;# 
   895  1EC5                     	;# 
   896  1EC6                     	;# 
   897  1EC7                     	;# 
   898  1EC8                     	;# 
   899  1EC9                     	;# 
   900  1ECA                     	;# 
   901  1ECB                     	;# 
   902  1ECB                     	;# 
   903  1ECB                     	;# 
   904  1ECC                     	;# 
   905  1ECC                     	;# 
   906  1ECC                     	;# 
   907  1F10                     	;# 
   908  1F11                     	;# 
   909  1F12                     	;# 
   910  1F14                     	;# 
   911  1F15                     	;# 
   912  1F1C                     	;# 
   913  1F1D                     	;# 
   914  1F1E                     	;# 
   915  1F1F                     	;# 
   916  1F20                     	;# 
   917  1F21                     	;# 
   918  1F22                     	;# 
   919  1F23                     	;# 
   920  1F24                     	;# 
   921  1F25                     	;# 
   922  1F26                     	;# 
   923  1F27                     	;# 
   924  1F38                     	;# 
   925  1F39                     	;# 
   926  1F3A                     	;# 
   927  1F3B                     	;# 
   928  1F3C                     	;# 
   929  1F3D                     	;# 
   930  1F3E                     	;# 
   931  1F3F                     	;# 
   932  1F43                     	;# 
   933  1F44                     	;# 
   934  1F45                     	;# 
   935  1F46                     	;# 
   936  1F47                     	;# 
   937  1F48                     	;# 
   938  1F49                     	;# 
   939  1F4A                     	;# 
   940  1F4E                     	;# 
   941  1F4F                     	;# 
   942  1F50                     	;# 
   943  1F51                     	;# 
   944  1F52                     	;# 
   945  1F53                     	;# 
   946  1F54                     	;# 
   947  1F55                     	;# 
   948  1FE4                     	;# 
   949  1FE5                     	;# 
   950  1FE6                     	;# 
   951  1FE7                     	;# 
   952  1FE8                     	;# 
   953  1FE8                     	;# 
   954  1FE9                     	;# 
   955  1FEA                     	;# 
   956  1FEB                     	;# 
   957  1FED                     	;# 
   958  1FEE                     	;# 
   959  1FEF                     	;# 
   960  0000                     	;# 
   961  0001                     	;# 
   962  0002                     	;# 
   963  0003                     	;# 
   964  0004                     	;# 
   965  0005                     	;# 
   966  0006                     	;# 
   967  0007                     	;# 
   968  0008                     	;# 
   969  0009                     	;# 
   970  000A                     	;# 
   971  000B                     	;# 
   972  000C                     	;# 
   973  000D                     	;# 
   974  000E                     	;# 
   975  0012                     	;# 
   976  0013                     	;# 
   977  0014                     	;# 
   978  0018                     	;# 
   979  0019                     	;# 
   980  001A                     	;# 
   981  008C                     	;# 
   982  008C                     	;# 
   983  008D                     	;# 
   984  008E                     	;# 
   985  008E                     	;# 
   986  008F                     	;# 
   987  0090                     	;# 
   988  0090                     	;# 
   989  0091                     	;# 
   990  0092                     	;# 
   991  0092                     	;# 
   992  0093                     	;# 
   993  0094                     	;# 
   994  0094                     	;# 
   995  0095                     	;# 
   996  0096                     	;# 
   997  0096                     	;# 
   998  0097                     	;# 
   999  0098                     	;# 
  1000  0099                     	;# 
  1001  009A                     	;# 
  1002  009B                     	;# 
  1003  009B                     	;# 
  1004  009C                     	;# 
  1005  009D                     	;# 
  1006  009D                     	;# 
  1007  009E                     	;# 
  1008  009F                     	;# 
  1009  010C                     	;# 
  1010  010C                     	;# 
  1011  010D                     	;# 
  1012  010E                     	;# 
  1013  010F                     	;# 
  1014  010F                     	;# 
  1015  0110                     	;# 
  1016  0111                     	;# 
  1017  0112                     	;# 
  1018  0113                     	;# 
  1019  0114                     	;# 
  1020  0115                     	;# 
  1021  0116                     	;# 
  1022  0117                     	;# 
  1023  0118                     	;# 
  1024  0119                     	;# 
  1025  0119                     	;# 
  1026  0119                     	;# 
  1027  011A                     	;# 
  1028  011A                     	;# 
  1029  011A                     	;# 
  1030  011B                     	;# 
  1031  011B                     	;# 
  1032  011B                     	;# 
  1033  011B                     	;# 
  1034  011B                     	;# 
  1035  011C                     	;# 
  1036  011C                     	;# 
  1037  011C                     	;# 
  1038  011D                     	;# 
  1039  011D                     	;# 
  1040  011D                     	;# 
  1041  011E                     	;# 
  1042  011E                     	;# 
  1043  011E                     	;# 
  1044  011F                     	;# 
  1045  011F                     	;# 
  1046  011F                     	;# 
  1047  011F                     	;# 
  1048  011F                     	;# 
  1049  018C                     	;# 
  1050  018D                     	;# 
  1051  018E                     	;# 
  1052  018F                     	;# 
  1053  0190                     	;# 
  1054  0191                     	;# 
  1055  0192                     	;# 
  1056  0196                     	;# 
  1057  0197                     	;# 
  1058  0198                     	;# 
  1059  0199                     	;# 
  1060  019A                     	;# 
  1061  019B                     	;# 
  1062  019C                     	;# 
  1063  020C                     	;# 
  1064  020D                     	;# 
  1065  020E                     	;# 
  1066  020E                     	;# 
  1067  020F                     	;# 
  1068  020F                     	;# 
  1069  0210                     	;# 
  1070  0210                     	;# 
  1071  0211                     	;# 
  1072  0211                     	;# 
  1073  0212                     	;# 
  1074  0213                     	;# 
  1075  0214                     	;# 
  1076  0214                     	;# 
  1077  0215                     	;# 
  1078  0215                     	;# 
  1079  0216                     	;# 
  1080  0216                     	;# 
  1081  0217                     	;# 
  1082  0217                     	;# 
  1083  0218                     	;# 
  1084  0219                     	;# 
  1085  021A                     	;# 
  1086  021A                     	;# 
  1087  021B                     	;# 
  1088  021B                     	;# 
  1089  021C                     	;# 
  1090  021C                     	;# 
  1091  021D                     	;# 
  1092  021D                     	;# 
  1093  021E                     	;# 
  1094  021F                     	;# 
  1095  028C                     	;# 
  1096  028C                     	;# 
  1097  028D                     	;# 
  1098  028D                     	;# 
  1099  028E                     	;# 
  1100  028F                     	;# 
  1101  0290                     	;# 
  1102  0291                     	;# 
  1103  0292                     	;# 
  1104  0292                     	;# 
  1105  0293                     	;# 
  1106  0293                     	;# 
  1107  0294                     	;# 
  1108  0295                     	;# 
  1109  0296                     	;# 
  1110  0297                     	;# 
  1111  0298                     	;# 
  1112  0298                     	;# 
  1113  0299                     	;# 
  1114  0299                     	;# 
  1115  029A                     	;# 
  1116  029B                     	;# 
  1117  029C                     	;# 
  1118  029D                     	;# 
  1119  029F                     	;# 
  1120  030C                     	;# 
  1121  030C                     	;# 
  1122  030D                     	;# 
  1123  030E                     	;# 
  1124  030F                     	;# 
  1125  0310                     	;# 
  1126  0310                     	;# 
  1127  0311                     	;# 
  1128  0312                     	;# 
  1129  0313                     	;# 
  1130  0314                     	;# 
  1131  0314                     	;# 
  1132  0315                     	;# 
  1133  0316                     	;# 
  1134  0317                     	;# 
  1135  0318                     	;# 
  1136  0318                     	;# 
  1137  0319                     	;# 
  1138  031A                     	;# 
  1139  031B                     	;# 
  1140  038C                     	;# 
  1141  038C                     	;# 
  1142  038D                     	;# 
  1143  038E                     	;# 
  1144  0390                     	;# 
  1145  0390                     	;# 
  1146  0391                     	;# 
  1147  0392                     	;# 
  1148  048C                     	;# 
  1149  048C                     	;# 
  1150  048D                     	;# 
  1151  048E                     	;# 
  1152  048F                     	;# 
  1153  048F                     	;# 
  1154  0490                     	;# 
  1155  0491                     	;# 
  1156  0492                     	;# 
  1157  0492                     	;# 
  1158  0493                     	;# 
  1159  0494                     	;# 
  1160  0495                     	;# 
  1161  0495                     	;# 
  1162  0496                     	;# 
  1163  0497                     	;# 
  1164  0498                     	;# 
  1165  0499                     	;# 
  1166  049A                     	;# 
  1167  049B                     	;# 
  1168  049C                     	;# 
  1169  049D                     	;# 
  1170  058C                     	;# 
  1171  058C                     	;# 
  1172  058D                     	;# 
  1173  058E                     	;# 
  1174  058F                     	;# 
  1175  058F                     	;# 
  1176  0590                     	;# 
  1177  0591                     	;# 
  1178  0592                     	;# 
  1179  0593                     	;# 
  1180  059C                     	;# 
  1181  059C                     	;# 
  1182  059D                     	;# 
  1183  059D                     	;# 
  1184  059E                     	;# 
  1185  059F                     	;# 
  1186  060C                     	;# 
  1187  060C                     	;# 
  1188  060D                     	;# 
  1189  060D                     	;# 
  1190  060E                     	;# 
  1191  060F                     	;# 
  1192  0610                     	;# 
  1193  0611                     	;# 
  1194  0612                     	;# 
  1195  0613                     	;# 
  1196  0614                     	;# 
  1197  0616                     	;# 
  1198  0616                     	;# 
  1199  0617                     	;# 
  1200  0617                     	;# 
  1201  0618                     	;# 
  1202  0619                     	;# 
  1203  061A                     	;# 
  1204  061B                     	;# 
  1205  061C                     	;# 
  1206  061D                     	;# 
  1207  061E                     	;# 
  1208  070C                     	;# 
  1209  070D                     	;# 
  1210  070E                     	;# 
  1211  070F                     	;# 
  1212  0710                     	;# 
  1213  0711                     	;# 
  1214  0712                     	;# 
  1215  0713                     	;# 
  1216  0714                     	;# 
  1217  0716                     	;# 
  1218  0717                     	;# 
  1219  0718                     	;# 
  1220  0719                     	;# 
  1221  071A                     	;# 
  1222  071B                     	;# 
  1223  071C                     	;# 
  1224  071D                     	;# 
  1225  071E                     	;# 
  1226  0796                     	;# 
  1227  0797                     	;# 
  1228  0798                     	;# 
  1229  0799                     	;# 
  1230  079A                     	;# 
  1231  079B                     	;# 
  1232  079C                     	;# 
  1233  079D                     	;# 
  1234  080C                     	;# 
  1235  080D                     	;# 
  1236  080E                     	;# 
  1237  080F                     	;# 
  1238  0810                     	;# 
  1239  0811                     	;# 
  1240  0812                     	;# 
  1241  0813                     	;# 
  1242  0814                     	;# 
  1243  081A                     	;# 
  1244  081A                     	;# 
  1245  081B                     	;# 
  1246  081C                     	;# 
  1247  081C                     	;# 
  1248  081D                     	;# 
  1249  081E                     	;# 
  1250  081F                     	;# 
  1251  088C                     	;# 
  1252  088D                     	;# 
  1253  088E                     	;# 
  1254  088F                     	;# 
  1255  0890                     	;# 
  1256  0891                     	;# 
  1257  0892                     	;# 
  1258  0893                     	;# 
  1259  0895                     	;# 
  1260  0896                     	;# 
  1261  0897                     	;# 
  1262  0898                     	;# 
  1263  0899                     	;# 
  1264  089A                     	;# 
  1265  089B                     	;# 
  1266  090C                     	;# 
  1267  090E                     	;# 
  1268  090F                     	;# 
  1269  091F                     	;# 
  1270  098F                     	;# 
  1271  098F                     	;# 
  1272  0990                     	;# 
  1273  0991                     	;# 
  1274  0992                     	;# 
  1275  0993                     	;# 
  1276  0994                     	;# 
  1277  0995                     	;# 
  1278  0996                     	;# 
  1279  0997                     	;# 
  1280  1E0F                     	;# 
  1281  1E10                     	;# 
  1282  1E11                     	;# 
  1283  1E12                     	;# 
  1284  1E13                     	;# 
  1285  1E14                     	;# 
  1286  1E15                     	;# 
  1287  1E16                     	;# 
  1288  1E17                     	;# 
  1289  1E18                     	;# 
  1290  1E19                     	;# 
  1291  1E1A                     	;# 
  1292  1E1B                     	;# 
  1293  1E1C                     	;# 
  1294  1E1D                     	;# 
  1295  1E1E                     	;# 
  1296  1E1F                     	;# 
  1297  1E20                     	;# 
  1298  1E21                     	;# 
  1299  1E22                     	;# 
  1300  1E23                     	;# 
  1301  1E24                     	;# 
  1302  1E25                     	;# 
  1303  1E26                     	;# 
  1304  1E27                     	;# 
  1305  1E28                     	;# 
  1306  1E29                     	;# 
  1307  1E2A                     	;# 
  1308  1E2B                     	;# 
  1309  1E2C                     	;# 
  1310  1E2D                     	;# 
  1311  1E2E                     	;# 
  1312  1E2F                     	;# 
  1313  1E30                     	;# 
  1314  1E31                     	;# 
  1315  1E32                     	;# 
  1316  1E33                     	;# 
  1317  1E34                     	;# 
  1318  1E35                     	;# 
  1319  1E36                     	;# 
  1320  1E37                     	;# 
  1321  1E8F                     	;# 
  1322  1E90                     	;# 
  1323  1E91                     	;# 
  1324  1E92                     	;# 
  1325  1E93                     	;# 
  1326  1E94                     	;# 
  1327  1E95                     	;# 
  1328  1E96                     	;# 
  1329  1E97                     	;# 
  1330  1E9C                     	;# 
  1331  1E9D                     	;# 
  1332  1E9E                     	;# 
  1333  1EA1                     	;# 
  1334  1EA2                     	;# 
  1335  1EA3                     	;# 
  1336  1EA4                     	;# 
  1337  1EA9                     	;# 
  1338  1EAA                     	;# 
  1339  1EB1                     	;# 
  1340  1EB2                     	;# 
  1341  1EB8                     	;# 
  1342  1EB9                     	;# 
  1343  1EBA                     	;# 
  1344  1EBB                     	;# 
  1345  1EBC                     	;# 
  1346  1EBD                     	;# 
  1347  1EBE                     	;# 
  1348  1EC3                     	;# 
  1349  1EC5                     	;# 
  1350  1EC6                     	;# 
  1351  1EC7                     	;# 
  1352  1EC8                     	;# 
  1353  1EC9                     	;# 
  1354  1ECA                     	;# 
  1355  1ECB                     	;# 
  1356  1ECB                     	;# 
  1357  1ECB                     	;# 
  1358  1ECC                     	;# 
  1359  1ECC                     	;# 
  1360  1ECC                     	;# 
  1361  1F10                     	;# 
  1362  1F11                     	;# 
  1363  1F12                     	;# 
  1364  1F14                     	;# 
  1365  1F15                     	;# 
  1366  1F1C                     	;# 
  1367  1F1D                     	;# 
  1368  1F1E                     	;# 
  1369  1F1F                     	;# 
  1370  1F20                     	;# 
  1371  1F21                     	;# 
  1372  1F22                     	;# 
  1373  1F23                     	;# 
  1374  1F24                     	;# 
  1375  1F25                     	;# 
  1376  1F26                     	;# 
  1377  1F27                     	;# 
  1378  1F38                     	;# 
  1379  1F39                     	;# 
  1380  1F3A                     	;# 
  1381  1F3B                     	;# 
  1382  1F3C                     	;# 
  1383  1F3D                     	;# 
  1384  1F3E                     	;# 
  1385  1F3F                     	;# 
  1386  1F43                     	;# 
  1387  1F44                     	;# 
  1388  1F45                     	;# 
  1389  1F46                     	;# 
  1390  1F47                     	;# 
  1391  1F48                     	;# 
  1392  1F49                     	;# 
  1393  1F4A                     	;# 
  1394  1F4E                     	;# 
  1395  1F4F                     	;# 
  1396  1F50                     	;# 
  1397  1F51                     	;# 
  1398  1F52                     	;# 
  1399  1F53                     	;# 
  1400  1F54                     	;# 
  1401  1F55                     	;# 
  1402  1FE4                     	;# 
  1403  1FE5                     	;# 
  1404  1FE6                     	;# 
  1405  1FE7                     	;# 
  1406  1FE8                     	;# 
  1407  1FE8                     	;# 
  1408  1FE9                     	;# 
  1409  1FEA                     	;# 
  1410  1FEB                     	;# 
  1411  1FED                     	;# 
  1412  1FEE                     	;# 
  1413  1FEF                     	;# 
  1414  0000                     	;# 
  1415  0001                     	;# 
  1416  0002                     	;# 
  1417  0003                     	;# 
  1418  0004                     	;# 
  1419  0005                     	;# 
  1420  0006                     	;# 
  1421  0007                     	;# 
  1422  0008                     	;# 
  1423  0009                     	;# 
  1424  000A                     	;# 
  1425  000B                     	;# 
  1426  000C                     	;# 
  1427  000D                     	;# 
  1428  000E                     	;# 
  1429  0012                     	;# 
  1430  0013                     	;# 
  1431  0014                     	;# 
  1432  0018                     	;# 
  1433  0019                     	;# 
  1434  001A                     	;# 
  1435  008C                     	;# 
  1436  008C                     	;# 
  1437  008D                     	;# 
  1438  008E                     	;# 
  1439  008E                     	;# 
  1440  008F                     	;# 
  1441  0090                     	;# 
  1442  0090                     	;# 
  1443  0091                     	;# 
  1444  0092                     	;# 
  1445  0092                     	;# 
  1446  0093                     	;# 
  1447  0094                     	;# 
  1448  0094                     	;# 
  1449  0095                     	;# 
  1450  0096                     	;# 
  1451  0096                     	;# 
  1452  0097                     	;# 
  1453  0098                     	;# 
  1454  0099                     	;# 
  1455  009A                     	;# 
  1456  009B                     	;# 
  1457  009B                     	;# 
  1458  009C                     	;# 
  1459  009D                     	;# 
  1460  009D                     	;# 
  1461  009E                     	;# 
  1462  009F                     	;# 
  1463  010C                     	;# 
  1464  010C                     	;# 
  1465  010D                     	;# 
  1466  010E                     	;# 
  1467  010F                     	;# 
  1468  010F                     	;# 
  1469  0110                     	;# 
  1470  0111                     	;# 
  1471  0112                     	;# 
  1472  0113                     	;# 
  1473  0114                     	;# 
  1474  0115                     	;# 
  1475  0116                     	;# 
  1476  0117                     	;# 
  1477  0118                     	;# 
  1478  0119                     	;# 
  1479  0119                     	;# 
  1480  0119                     	;# 
  1481  011A                     	;# 
  1482  011A                     	;# 
  1483  011A                     	;# 
  1484  011B                     	;# 
  1485  011B                     	;# 
  1486  011B                     	;# 
  1487  011B                     	;# 
  1488  011B                     	;# 
  1489  011C                     	;# 
  1490  011C                     	;# 
  1491  011C                     	;# 
  1492  011D                     	;# 
  1493  011D                     	;# 
  1494  011D                     	;# 
  1495  011E                     	;# 
  1496  011E                     	;# 
  1497  011E                     	;# 
  1498  011F                     	;# 
  1499  011F                     	;# 
  1500  011F                     	;# 
  1501  011F                     	;# 
  1502  011F                     	;# 
  1503  018C                     	;# 
  1504  018D                     	;# 
  1505  018E                     	;# 
  1506  018F                     	;# 
  1507  0190                     	;# 
  1508  0191                     	;# 
  1509  0192                     	;# 
  1510  0196                     	;# 
  1511  0197                     	;# 
  1512  0198                     	;# 
  1513  0199                     	;# 
  1514  019A                     	;# 
  1515  019B                     	;# 
  1516  019C                     	;# 
  1517  020C                     	;# 
  1518  020D                     	;# 
  1519  020E                     	;# 
  1520  020E                     	;# 
  1521  020F                     	;# 
  1522  020F                     	;# 
  1523  0210                     	;# 
  1524  0210                     	;# 
  1525  0211                     	;# 
  1526  0211                     	;# 
  1527  0212                     	;# 
  1528  0213                     	;# 
  1529  0214                     	;# 
  1530  0214                     	;# 
  1531  0215                     	;# 
  1532  0215                     	;# 
  1533  0216                     	;# 
  1534  0216                     	;# 
  1535  0217                     	;# 
  1536  0217                     	;# 
  1537  0218                     	;# 
  1538  0219                     	;# 
  1539  021A                     	;# 
  1540  021A                     	;# 
  1541  021B                     	;# 
  1542  021B                     	;# 
  1543  021C                     	;# 
  1544  021C                     	;# 
  1545  021D                     	;# 
  1546  021D                     	;# 
  1547  021E                     	;# 
  1548  021F                     	;# 
  1549  028C                     	;# 
  1550  028C                     	;# 
  1551  028D                     	;# 
  1552  028D                     	;# 
  1553  028E                     	;# 
  1554  028F                     	;# 
  1555  0290                     	;# 
  1556  0291                     	;# 
  1557  0292                     	;# 
  1558  0292                     	;# 
  1559  0293                     	;# 
  1560  0293                     	;# 
  1561  0294                     	;# 
  1562  0295                     	;# 
  1563  0296                     	;# 
  1564  0297                     	;# 
  1565  0298                     	;# 
  1566  0298                     	;# 
  1567  0299                     	;# 
  1568  0299                     	;# 
  1569  029A                     	;# 
  1570  029B                     	;# 
  1571  029C                     	;# 
  1572  029D                     	;# 
  1573  029F                     	;# 
  1574  030C                     	;# 
  1575  030C                     	;# 
  1576  030D                     	;# 
  1577  030E                     	;# 
  1578  030F                     	;# 
  1579  0310                     	;# 
  1580  0310                     	;# 
  1581  0311                     	;# 
  1582  0312                     	;# 
  1583  0313                     	;# 
  1584  0314                     	;# 
  1585  0314                     	;# 
  1586  0315                     	;# 
  1587  0316                     	;# 
  1588  0317                     	;# 
  1589  0318                     	;# 
  1590  0318                     	;# 
  1591  0319                     	;# 
  1592  031A                     	;# 
  1593  031B                     	;# 
  1594  038C                     	;# 
  1595  038C                     	;# 
  1596  038D                     	;# 
  1597  038E                     	;# 
  1598  0390                     	;# 
  1599  0390                     	;# 
  1600  0391                     	;# 
  1601  0392                     	;# 
  1602  048C                     	;# 
  1603  048C                     	;# 
  1604  048D                     	;# 
  1605  048E                     	;# 
  1606  048F                     	;# 
  1607  048F                     	;# 
  1608  0490                     	;# 
  1609  0491                     	;# 
  1610  0492                     	;# 
  1611  0492                     	;# 
  1612  0493                     	;# 
  1613  0494                     	;# 
  1614  0495                     	;# 
  1615  0495                     	;# 
  1616  0496                     	;# 
  1617  0497                     	;# 
  1618  0498                     	;# 
  1619  0499                     	;# 
  1620  049A                     	;# 
  1621  049B                     	;# 
  1622  049C                     	;# 
  1623  049D                     	;# 
  1624  058C                     	;# 
  1625  058C                     	;# 
  1626  058D                     	;# 
  1627  058E                     	;# 
  1628  058F                     	;# 
  1629  058F                     	;# 
  1630  0590                     	;# 
  1631  0591                     	;# 
  1632  0592                     	;# 
  1633  0593                     	;# 
  1634  059C                     	;# 
  1635  059C                     	;# 
  1636  059D                     	;# 
  1637  059D                     	;# 
  1638  059E                     	;# 
  1639  059F                     	;# 
  1640  060C                     	;# 
  1641  060C                     	;# 
  1642  060D                     	;# 
  1643  060D                     	;# 
  1644  060E                     	;# 
  1645  060F                     	;# 
  1646  0610                     	;# 
  1647  0611                     	;# 
  1648  0612                     	;# 
  1649  0613                     	;# 
  1650  0614                     	;# 
  1651  0616                     	;# 
  1652  0616                     	;# 
  1653  0617                     	;# 
  1654  0617                     	;# 
  1655  0618                     	;# 
  1656  0619                     	;# 
  1657  061A                     	;# 
  1658  061B                     	;# 
  1659  061C                     	;# 
  1660  061D                     	;# 
  1661  061E                     	;# 
  1662  070C                     	;# 
  1663  070D                     	;# 
  1664  070E                     	;# 
  1665  070F                     	;# 
  1666  0710                     	;# 
  1667  0711                     	;# 
  1668  0712                     	;# 
  1669  0713                     	;# 
  1670  0714                     	;# 
  1671  0716                     	;# 
  1672  0717                     	;# 
  1673  0718                     	;# 
  1674  0719                     	;# 
  1675  071A                     	;# 
  1676  071B                     	;# 
  1677  071C                     	;# 
  1678  071D                     	;# 
  1679  071E                     	;# 
  1680  0796                     	;# 
  1681  0797                     	;# 
  1682  0798                     	;# 
  1683  0799                     	;# 
  1684  079A                     	;# 
  1685  079B                     	;# 
  1686  079C                     	;# 
  1687  079D                     	;# 
  1688  080C                     	;# 
  1689  080D                     	;# 
  1690  080E                     	;# 
  1691  080F                     	;# 
  1692  0810                     	;# 
  1693  0811                     	;# 
  1694  0812                     	;# 
  1695  0813                     	;# 
  1696  0814                     	;# 
  1697  081A                     	;# 
  1698  081A                     	;# 
  1699  081B                     	;# 
  1700  081C                     	;# 
  1701  081C                     	;# 
  1702  081D                     	;# 
  1703  081E                     	;# 
  1704  081F                     	;# 
  1705  088C                     	;# 
  1706  088D                     	;# 
  1707  088E                     	;# 
  1708  088F                     	;# 
  1709  0890                     	;# 
  1710  0891                     	;# 
  1711  0892                     	;# 
  1712  0893                     	;# 
  1713  0895                     	;# 
  1714  0896                     	;# 
  1715  0897                     	;# 
  1716  0898                     	;# 
  1717  0899                     	;# 
  1718  089A                     	;# 
  1719  089B                     	;# 
  1720  090C                     	;# 
  1721  090E                     	;# 
  1722  090F                     	;# 
  1723  091F                     	;# 
  1724  098F                     	;# 
  1725  098F                     	;# 
  1726  0990                     	;# 
  1727  0991                     	;# 
  1728  0992                     	;# 
  1729  0993                     	;# 
  1730  0994                     	;# 
  1731  0995                     	;# 
  1732  0996                     	;# 
  1733  0997                     	;# 
  1734  1E0F                     	;# 
  1735  1E10                     	;# 
  1736  1E11                     	;# 
  1737  1E12                     	;# 
  1738  1E13                     	;# 
  1739  1E14                     	;# 
  1740  1E15                     	;# 
  1741  1E16                     	;# 
  1742  1E17                     	;# 
  1743  1E18                     	;# 
  1744  1E19                     	;# 
  1745  1E1A                     	;# 
  1746  1E1B                     	;# 
  1747  1E1C                     	;# 
  1748  1E1D                     	;# 
  1749  1E1E                     	;# 
  1750  1E1F                     	;# 
  1751  1E20                     	;# 
  1752  1E21                     	;# 
  1753  1E22                     	;# 
  1754  1E23                     	;# 
  1755  1E24                     	;# 
  1756  1E25                     	;# 
  1757  1E26                     	;# 
  1758  1E27                     	;# 
  1759  1E28                     	;# 
  1760  1E29                     	;# 
  1761  1E2A                     	;# 
  1762  1E2B                     	;# 
  1763  1E2C                     	;# 
  1764  1E2D                     	;# 
  1765  1E2E                     	;# 
  1766  1E2F                     	;# 
  1767  1E30                     	;# 
  1768  1E31                     	;# 
  1769  1E32                     	;# 
  1770  1E33                     	;# 
  1771  1E34                     	;# 
  1772  1E35                     	;# 
  1773  1E36                     	;# 
  1774  1E37                     	;# 
  1775  1E8F                     	;# 
  1776  1E90                     	;# 
  1777  1E91                     	;# 
  1778  1E92                     	;# 
  1779  1E93                     	;# 
  1780  1E94                     	;# 
  1781  1E95                     	;# 
  1782  1E96                     	;# 
  1783  1E97                     	;# 
  1784  1E9C                     	;# 
  1785  1E9D                     	;# 
  1786  1E9E                     	;# 
  1787  1EA1                     	;# 
  1788  1EA2                     	;# 
  1789  1EA3                     	;# 
  1790  1EA4                     	;# 
  1791  1EA9                     	;# 
  1792  1EAA                     	;# 
  1793  1EB1                     	;# 
  1794  1EB2                     	;# 
  1795  1EB8                     	;# 
  1796  1EB9                     	;# 
  1797  1EBA                     	;# 
  1798  1EBB                     	;# 
  1799  1EBC                     	;# 
  1800  1EBD                     	;# 
  1801  1EBE                     	;# 
  1802  1EC3                     	;# 
  1803  1EC5                     	;# 
  1804  1EC6                     	;# 
  1805  1EC7                     	;# 
  1806  1EC8                     	;# 
  1807  1EC9                     	;# 
  1808  1ECA                     	;# 
  1809  1ECB                     	;# 
  1810  1ECB                     	;# 
  1811  1ECB                     	;# 
  1812  1ECC                     	;# 
  1813  1ECC                     	;# 
  1814  1ECC                     	;# 
  1815  1F10                     	;# 
  1816  1F11                     	;# 
  1817  1F12                     	;# 
  1818  1F14                     	;# 
  1819  1F15                     	;# 
  1820  1F1C                     	;# 
  1821  1F1D                     	;# 
  1822  1F1E                     	;# 
  1823  1F1F                     	;# 
  1824  1F20                     	;# 
  1825  1F21                     	;# 
  1826  1F22                     	;# 
  1827  1F23                     	;# 
  1828  1F24                     	;# 
  1829  1F25                     	;# 
  1830  1F26                     	;# 
  1831  1F27                     	;# 
  1832  1F38                     	;# 
  1833  1F39                     	;# 
  1834  1F3A                     	;# 
  1835  1F3B                     	;# 
  1836  1F3C                     	;# 
  1837  1F3D                     	;# 
  1838  1F3E                     	;# 
  1839  1F3F                     	;# 
  1840  1F43                     	;# 
  1841  1F44                     	;# 
  1842  1F45                     	;# 
  1843  1F46                     	;# 
  1844  1F47                     	;# 
  1845  1F48                     	;# 
  1846  1F49                     	;# 
  1847  1F4A                     	;# 
  1848  1F4E                     	;# 
  1849  1F4F                     	;# 
  1850  1F50                     	;# 
  1851  1F51                     	;# 
  1852  1F52                     	;# 
  1853  1F53                     	;# 
  1854  1F54                     	;# 
  1855  1F55                     	;# 
  1856  1FE4                     	;# 
  1857  1FE5                     	;# 
  1858  1FE6                     	;# 
  1859  1FE7                     	;# 
  1860  1FE8                     	;# 
  1861  1FE8                     	;# 
  1862  1FE9                     	;# 
  1863  1FEA                     	;# 
  1864  1FEB                     	;# 
  1865  1FED                     	;# 
  1866  1FEE                     	;# 
  1867  1FEF                     	;# 
  1868                           
  1869                           	psect	idataCOMMON
  1870  0312                     __pidataCOMMON:	
  1871                           
  1872                           ;initializer for main@F11225
  1873  0312  3410               	retlw	16
  1874                           
  1875                           ;initializer for main@F11223
  1876  0313  3408               	retlw	8
  1877  000B                     _INTCONbits	set	11
  1878  001A                     _LATCbits	set	26
  1879  0019                     _LATBbits	set	25
  1880  0018                     _LATAbits	set	24
  1881  000E                     _PORTCbits	set	14
  1882  000D                     _PORTBbits	set	13
  1883  000C                     _PORTAbits	set	12
  1884  0014                     _TRISCbits	set	20
  1885  0013                     _TRISBbits	set	19
  1886  0012                     _TRISAbits	set	18
  1887  059D                     _TMR0H	set	1437
  1888  059F                     _T0CON1bits	set	1439
  1889  059E                     _T0CON0bits	set	1438
  1890  0716                     _PIE0bits	set	1814
  1891  1F4F                     _WPUCbits	set	8015
  1892  1F4E                     _ANSELCbits	set	8014
  1893  1F44                     _WPUBbits	set	8004
  1894  1F43                     _ANSELBbits	set	8003
  1895  1F39                     _WPUAbits	set	7993
  1896  1F38                     _ANSELAbits	set	7992
  1897                           
  1898                           ; #config settings
  1899  0000                     
  1900                           	psect	cinit
  1901  0013                     start_initialization:	
  1902  0013                     __initialization:	
  1903                           
  1904                           ; Initialize objects allocated to COMMON
  1905  0013  3183  2312  3180   	fcall	__pidataCOMMON	;fetch initializer
  1906  0016  00FB               	movwf	__pdataCOMMON& (0+127)
  1907  0017  3183  2313  3180   	fcall	__pidataCOMMON+1	;fetch initializer
  1908  001A  00FC               	movwf	(__pdataCOMMON+1)& (0+127)
  1909                           
  1910                           ; Clear objects allocated to COMMON
  1911  001B  01FD               	clrf	__pbssCOMMON& (0+127)
  1912                           
  1913                           ; Clear objects allocated to BANK0
  1914  001C  3020               	movlw	low __pbssBANK0
  1915  001D  0084               	movwf	4
  1916  001E  3000               	movlw	high __pbssBANK0
  1917  001F  0085               	movwf	5
  1918  0020  3019               	movlw	25
  1919  0021  3183  230C         	fcall	clear_ram0
  1920  0023                     end_of_initialization:	
  1921                           ;End of C runtime variable initialization code
  1922                           
  1923  0023                     __end_of__initialization:	
  1924  0023  107E               	bcf	int$flags,0	;clear compiler interrupt flag (level 1)
  1925  0024  0140               	movlb	0
  1926  0025  3182  2AE8         	ljmp	_main	;jump to C main() function
  1927                           
  1928                           	psect	bssCOMMON
  1929  007D                     __pbssCOMMON:	
  1930  007D                     _state:	
  1931  007D                     	ds	1
  1932                           
  1933                           	psect	dataCOMMON
  1934  007B                     __pdataCOMMON:	
  1935  007B                     main@F11225:	
  1936  007B                     	ds	1
  1937  007C                     main@F11223:	
  1938  007C                     	ds	1
  1939                           
  1940                           	psect	bssBANK0
  1941  0020                     __pbssBANK0:	
  1942  0020                     _pinStates:	
  1943  0020                     	ds	17
  1944  0031                     _timeTurnedOff:	
  1945  0031                     	ds	4
  1946  0035                     _count:	
  1947  0035                     	ds	4
  1948                           
  1949                           	psect	clrtext
  1950  030C                     clear_ram0:	
  1951                           ;	Called with FSR0 containing the base address, and
  1952                           ;	WREG with the size to clear
  1953                           
  1954  030C  0064               	clrwdt	;clear the watchdog before getting into this loop
  1955  030D                     clrloop0:	
  1956  030D  0180               	clrf	0	;clear RAM location pointed to by FSR
  1957  030E  3101               	addfsr 0,1
  1958  030F  0B89               	decfsz	9,f	;Have we reached the end of clearing yet?
  1959  0310  2B0D               	goto	clrloop0	;have we reached the end yet?
  1960  0311  3400               	retlw	0	;all done for this memory range, return
  1961                           
  1962                           	psect	cstackCOMMON
  1963  0070                     __pcstackCOMMON:	
  1964  0070                     ?_defineGPIODirection:	
  1965  0070                     ?_readPin:	
  1966                           ; 1 bytes @ 0x0
  1967                           
  1968  0070                     ??_readPin:	
  1969                           ; 1 bytes @ 0x0
  1970                           
  1971  0070                     ?_writePin:	
  1972                           ; 1 bytes @ 0x0
  1973                           
  1974  0070                     ?_main:	
  1975                           ; 1 bytes @ 0x0
  1976                           
  1977  0070                     ?_timer0ISR:	
  1978                           ; 1 bytes @ 0x0
  1979                           
  1980  0070                     ??_timer0ISR:	
  1981                           ; 1 bytes @ 0x0
  1982                           
  1983  0070                     defineGPIODirection@output:	
  1984                           ; 1 bytes @ 0x0
  1985                           
  1986  0070                     writePin@value:	
  1987                           ; 1 bytes @ 0x0
  1988                           
  1989                           
  1990                           ; 1 bytes @ 0x0
  1991  0070                     	ds	1
  1992  0071                     ??_writePin:	
  1993  0071                     defineGPIODirection@inputLength:	
  1994                           ; 1 bytes @ 0x1
  1995                           
  1996                           
  1997                           ; 1 bytes @ 0x1
  1998  0071                     	ds	1
  1999  0072                     defineGPIODirection@outputLength:	
  2000  0072                     readPin@read:	
  2001                           ; 1 bytes @ 0x2
  2002                           
  2003                           
  2004                           ; 1 bytes @ 0x2
  2005  0072                     	ds	1
  2006  0073                     ??_defineGPIODirection:	
  2007  0073                     writePin@write:	
  2008                           ; 1 bytes @ 0x3
  2009                           
  2010                           
  2011                           ; 1 bytes @ 0x3
  2012  0073                     	ds	3
  2013  0076                     defineGPIODirection@input:	
  2014                           
  2015                           ; 1 bytes @ 0x6
  2016  0076                     	ds	1
  2017  0077                     defineGPIODirection@i:	
  2018                           
  2019                           ; 1 bytes @ 0x7
  2020  0077                     	ds	1
  2021  0078                     ??_main:	
  2022                           
  2023                           ; 1 bytes @ 0x8
  2024  0078                     	ds	1
  2025  0079                     main@input:	
  2026                           
  2027                           ; 1 bytes @ 0x9
  2028  0079                     	ds	1
  2029  007A                     main@output:	
  2030                           
  2031                           ; 1 bytes @ 0xA
  2032  007A                     	ds	1
  2033                           
  2034                           	psect	maintext
  2035  02E8                     __pmaintext:	
  2036 ;;
  2037 ;;Main: autosize = 0, tempsize = 1, incstack = 0, save=0
  2038 ;;
  2039 ;; *************** function _main *****************
  2040 ;; Defined at:
  2041 ;;		line 23 in file "main.c"
  2042 ;; Parameters:    Size  Location     Type
  2043 ;;		None
  2044 ;; Auto vars:     Size  Location     Type
  2045 ;;  output          1   10[COMMON] enum E11183[1]
  2046 ;;  input           1    9[COMMON] enum E11183[1]
  2047 ;; Return value:  Size  Location     Type
  2048 ;;                  1    wreg      void 
  2049 ;; Registers used:
  2050 ;;		wreg, fsr0l, fsr0h, fsr1l, fsr1h, status,2, status,0, pclath, cstack
  2051 ;; Tracked objects:
  2052 ;;		On entry : B3F/0
  2053 ;;		On exit  : 0/0
  2054 ;;		Unchanged: 0/0
  2055 ;; Data sizes:     COMMON   BANK0   BANK1   BANK2   BANK3   BANK4   BANK5   BANK6   BANK7   BANK8   BANK9  BANK10  BANK1
      +1  BANK12  BANK13  BANK14  BANK15  BANK16  BANK17  BANK18  BANK19  BANK20  BANK21  BANK22  BANK23  BANK24  BANK25
  2056 ;;      Params:         0       0       0       0       0       0       0       0       0       0       0       0       
      +0       0       0       0       0       0       0       0       0       0       0       0       0       0       0
  2057 ;;      Locals:         2       0       0       0       0       0       0       0       0       0       0       0       
      +0       0       0       0       0       0       0       0       0       0       0       0       0       0       0
  2058 ;;      Temps:          1       0       0       0       0       0       0       0       0       0       0       0       
      +0       0       0       0       0       0       0       0       0       0       0       0       0       0       0
  2059 ;;      Totals:         3       0       0       0       0       0       0       0       0       0       0       0       
      +0       0       0       0       0       0       0       0       0       0       0       0       0       0       0
  2060 ;;Total ram usage:        3 bytes
  2061 ;; Hardware stack levels required when called:    2
  2062 ;; This function calls:
  2063 ;;		_defineGPIODirection
  2064 ;;		_readPin
  2065 ;;		_writePin
  2066 ;; This function is called by:
  2067 ;;		Startup code after reset
  2068 ;; This function uses a non-reentrant model
  2069 ;;
  2070                           
  2071                           
  2072                           ;psect for function _main
  2073  02E8                     _main:	
  2074                           
  2075                           ;incstack = 0
  2076                           ; Regs used in _main: [wreg-fsr1h+status,2+status,0+pclath+cstack]
  2077  02E8  087C               	movf	main@F11223,w
  2078  02E9  00F8               	movwf	??_main
  2079  02EA  0878               	movf	??_main,w
  2080  02EB  00F9               	movwf	main@input
  2081  02EC  087B               	movf	main@F11225,w
  2082  02ED  00F8               	movwf	??_main
  2083  02EE  0878               	movf	??_main,w
  2084  02EF  00FA               	movwf	main@output
  2085  02F0  307A               	movlw	(low (main@output| 0))& (0+255)
  2086  02F1  00F8               	movwf	??_main
  2087  02F2  0878               	movf	??_main,w
  2088  02F3  00F0               	movwf	defineGPIODirection@output
  2089  02F4  01F1               	clrf	defineGPIODirection@inputLength
  2090  02F5  0AF1               	incf	defineGPIODirection@inputLength,f
  2091  02F6  01F2               	clrf	defineGPIODirection@outputLength
  2092  02F7  0AF2               	incf	defineGPIODirection@outputLength,f
  2093  02F8  3079               	movlw	(low (main@input| 0))& (0+255)
  2094  02F9  3180  2027  3182   	fcall	_defineGPIODirection
  2095  02FC  2B03               	goto	l1186
  2096  02FD                     l1188:	
  2097  02FD  01F0               	clrf	writePin@value
  2098  02FE  0AF0               	incf	writePin@value,f
  2099  02FF                     L1:	
  2100  02FF  3010               	movlw	16
  2101  0300  3181  215B  3182   	fcall	_writePin
  2102  0303                     l1186:	
  2103  0303  3008               	movlw	8
  2104  0304  3182  2256  3182   	fcall	_readPin
  2105  0307  3A00               	xorlw	0
  2106  0308  1903               	btfsc	3,2
  2107  0309  2AFD               	goto	l1188
  2108  030A  01F0               	clrf	writePin@value
  2109  030B  2AFF               	goto	L1
  2110  030C                     __end_of_main:	
  2111                           
  2112                           	psect	text1
  2113  015B                     __ptext1:	
  2114 ;; *************** function _writePin *****************
  2115 ;; Defined at:
  2116 ;;		line 206 in file "pins.c"
  2117 ;; Parameters:    Size  Location     Type
  2118 ;;  write           1    wreg     enum E11183
  2119 ;;  value           1    0[COMMON] unsigned char 
  2120 ;; Auto vars:     Size  Location     Type
  2121 ;;  write           1    3[COMMON] enum E11183
  2122 ;; Return value:  Size  Location     Type
  2123 ;;                  1    wreg      void 
  2124 ;; Registers used:
  2125 ;;		wreg, fsr0l, fsr0h, status,2, status,0
  2126 ;; Tracked objects:
  2127 ;;		On entry : 0/0
  2128 ;;		On exit  : 0/0
  2129 ;;		Unchanged: 0/0
  2130 ;; Data sizes:     COMMON   BANK0   BANK1   BANK2   BANK3   BANK4   BANK5   BANK6   BANK7   BANK8   BANK9  BANK10  BANK1
      +1  BANK12  BANK13  BANK14  BANK15  BANK16  BANK17  BANK18  BANK19  BANK20  BANK21  BANK22  BANK23  BANK24  BANK25
  2131 ;;      Params:         1       0       0       0       0       0       0       0       0       0       0       0       
      +0       0       0       0       0       0       0       0       0       0       0       0       0       0       0
  2132 ;;      Locals:         1       0       0       0       0       0       0       0       0       0       0       0       
      +0       0       0       0       0       0       0       0       0       0       0       0       0       0       0
  2133 ;;      Temps:          2       0       0       0       0       0       0       0       0       0       0       0       
      +0       0       0       0       0       0       0       0       0       0       0       0       0       0       0
  2134 ;;      Totals:         4       0       0       0       0       0       0       0       0       0       0       0       
      +0       0       0       0       0       0       0       0       0       0       0       0       0       0       0
  2135 ;;Total ram usage:        4 bytes
  2136 ;; Hardware stack levels used:    1
  2137 ;; Hardware stack levels required when called:    1
  2138 ;; This function calls:
  2139 ;;		Nothing
  2140 ;; This function is called by:
  2141 ;;		_main
  2142 ;; This function uses a non-reentrant model
  2143 ;;
  2144                           
  2145                           
  2146                           ;psect for function _writePin
  2147  015B                     _writePin:	
  2148                           
  2149                           ;incstack = 0
  2150                           ; Regs used in _writePin: [wreg-fsr0h+status,2+status,0]
  2151                           ;writePin@write stored from wreg
  2152  015B  00F3               	movwf	writePin@write
  2153                           
  2154                           ;pins.c: 207:     switch(write) {
  2155  015C  2A18               	goto	l1176
  2156  015D                     l1106:	
  2157                           
  2158                           ;pins.c: 209:             LATAbits.LATA0 = value;
  2159  015D  0C70               	rrf	writePin@value,w
  2160  015E  0140               	movlb	0	; select bank0
  2161  015F  1C03               	skipc
  2162  0160  1018               	bcf	24,0	;volatile
  2163  0161  1803               	skipnc
  2164  0162  1418               	bsf	24,0	;volatile
  2165                           
  2166                           ;pins.c: 210:             pinStates[PINA0] = value;
  2167  0163  0870               	movf	writePin@value,w
  2168  0164  00F1               	movwf	??_writePin
  2169  0165  0871               	movf	??_writePin,w
  2170  0166  00A0               	movwf	_pinStates
  2171                           
  2172                           ;pins.c: 211:             break;
  2173  0167  0008               	return
  2174  0168                     l1110:	
  2175                           
  2176                           ;pins.c: 213:             LATAbits.LATA1 = value;
  2177  0168  0C70               	rrf	writePin@value,w
  2178  0169  0140               	movlb	0	; select bank0
  2179  016A  1C03               	skipc
  2180  016B  1098               	bcf	24,1	;volatile
  2181  016C  1803               	skipnc
  2182  016D  1498               	bsf	24,1	;volatile
  2183                           
  2184                           ;pins.c: 214:             pinStates[PINA1] = value;
  2185  016E  0870               	movf	writePin@value,w
  2186  016F  00F1               	movwf	??_writePin
  2187  0170  0871               	movf	??_writePin,w
  2188  0171  00A1               	movwf	_pinStates+1
  2189                           
  2190                           ;pins.c: 215:             break;
  2191  0172  0008               	return
  2192  0173                     l1114:	
  2193                           
  2194                           ;pins.c: 217:             LATAbits.LATA2 = value;
  2195  0173  0C70               	rrf	writePin@value,w
  2196  0174  0140               	movlb	0	; select bank0
  2197  0175  1C03               	skipc
  2198  0176  1118               	bcf	24,2	;volatile
  2199  0177  1803               	skipnc
  2200  0178  1518               	bsf	24,2	;volatile
  2201                           
  2202                           ;pins.c: 218:             pinStates[PINA2] = value;
  2203  0179  0870               	movf	writePin@value,w
  2204  017A  00F1               	movwf	??_writePin
  2205  017B  0871               	movf	??_writePin,w
  2206  017C  00A2               	movwf	_pinStates+2
  2207                           
  2208                           ;pins.c: 219:             break;
  2209  017D  0008               	return
  2210  017E                     l1118:	
  2211                           
  2212                           ;pins.c: 221:             LATAbits.LATA4 = value;
  2213  017E  0C70               	rrf	writePin@value,w
  2214  017F  0140               	movlb	0	; select bank0
  2215  0180  1C03               	skipc
  2216  0181  1218               	bcf	24,4	;volatile
  2217  0182  1803               	skipnc
  2218  0183  1618               	bsf	24,4	;volatile
  2219                           
  2220                           ;pins.c: 222:             pinStates[PINA4] = value;
  2221  0184  0870               	movf	writePin@value,w
  2222  0185  00F1               	movwf	??_writePin
  2223  0186  0871               	movf	??_writePin,w
  2224  0187  00A3               	movwf	_pinStates+3
  2225                           
  2226                           ;pins.c: 223:             break;
  2227  0188  0008               	return
  2228  0189                     l1122:	
  2229                           
  2230                           ;pins.c: 225:             LATAbits.LATA5 = value;
  2231  0189  0C70               	rrf	writePin@value,w
  2232  018A  0140               	movlb	0	; select bank0
  2233  018B  1C03               	skipc
  2234  018C  1298               	bcf	24,5	;volatile
  2235  018D  1803               	skipnc
  2236  018E  1698               	bsf	24,5	;volatile
  2237                           
  2238                           ;pins.c: 226:             pinStates[PINA5] = value;
  2239  018F  0870               	movf	writePin@value,w
  2240  0190  00F1               	movwf	??_writePin
  2241  0191  0871               	movf	??_writePin,w
  2242  0192  00A4               	movwf	_pinStates+4
  2243                           
  2244                           ;pins.c: 227:             break;
  2245  0193  0008               	return
  2246  0194                     l1126:	
  2247                           
  2248                           ;pins.c: 229:             LATBbits.LATB4 = value;
  2249  0194  0C70               	rrf	writePin@value,w
  2250  0195  0140               	movlb	0	; select bank0
  2251  0196  1C03               	skipc
  2252  0197  1219               	bcf	25,4	;volatile
  2253  0198  1803               	skipnc
  2254  0199  1619               	bsf	25,4	;volatile
  2255                           
  2256                           ;pins.c: 230:             pinStates[PINB4] = value;
  2257  019A  0870               	movf	writePin@value,w
  2258  019B  00F1               	movwf	??_writePin
  2259  019C  0871               	movf	??_writePin,w
  2260  019D  00A5               	movwf	_pinStates+5
  2261                           
  2262                           ;pins.c: 231:             break;
  2263  019E  0008               	return
  2264  019F                     l1130:	
  2265                           
  2266                           ;pins.c: 233:             LATBbits.LATB5 = value;
  2267  019F  0C70               	rrf	writePin@value,w
  2268  01A0  0140               	movlb	0	; select bank0
  2269  01A1  1C03               	skipc
  2270  01A2  1299               	bcf	25,5	;volatile
  2271  01A3  1803               	skipnc
  2272  01A4  1699               	bsf	25,5	;volatile
  2273                           
  2274                           ;pins.c: 234:             pinStates[PINB5] = value;
  2275  01A5  0870               	movf	writePin@value,w
  2276  01A6  00F1               	movwf	??_writePin
  2277  01A7  0871               	movf	??_writePin,w
  2278  01A8  00A6               	movwf	_pinStates+6
  2279                           
  2280                           ;pins.c: 235:             break;
  2281  01A9  0008               	return
  2282  01AA                     l1134:	
  2283                           
  2284                           ;pins.c: 237:             LATBbits.LATB6 = value;
  2285  01AA  0C70               	rrf	writePin@value,w
  2286  01AB  0140               	movlb	0	; select bank0
  2287  01AC  1C03               	skipc
  2288  01AD  1319               	bcf	25,6	;volatile
  2289  01AE  1803               	skipnc
  2290  01AF  1719               	bsf	25,6	;volatile
  2291                           
  2292                           ;pins.c: 238:             pinStates[PINB6] = value;
  2293  01B0  0870               	movf	writePin@value,w
  2294  01B1  00F1               	movwf	??_writePin
  2295  01B2  0871               	movf	??_writePin,w
  2296  01B3  00A7               	movwf	_pinStates+7
  2297                           
  2298                           ;pins.c: 239:             break;
  2299  01B4  0008               	return
  2300  01B5                     l1138:	
  2301                           
  2302                           ;pins.c: 241:             LATBbits.LATB7 = value;
  2303  01B5  0C70               	rrf	writePin@value,w
  2304  01B6  0140               	movlb	0	; select bank0
  2305  01B7  1C03               	skipc
  2306  01B8  1399               	bcf	25,7	;volatile
  2307  01B9  1803               	skipnc
  2308  01BA  1799               	bsf	25,7	;volatile
  2309                           
  2310                           ;pins.c: 242:             pinStates[PINB7] = value;
  2311  01BB  0870               	movf	writePin@value,w
  2312  01BC  00F1               	movwf	??_writePin
  2313  01BD  0871               	movf	??_writePin,w
  2314  01BE  00A8               	movwf	_pinStates+8
  2315                           
  2316                           ;pins.c: 243:             break;
  2317  01BF  0008               	return
  2318  01C0                     l1142:	
  2319                           
  2320                           ;pins.c: 245:             LATCbits.LATC0 = value;
  2321  01C0  0C70               	rrf	writePin@value,w
  2322  01C1  0140               	movlb	0	; select bank0
  2323  01C2  1C03               	skipc
  2324  01C3  101A               	bcf	26,0	;volatile
  2325  01C4  1803               	skipnc
  2326  01C5  141A               	bsf	26,0	;volatile
  2327                           
  2328                           ;pins.c: 246:             pinStates[PINC0] = value;
  2329  01C6  0870               	movf	writePin@value,w
  2330  01C7  00F1               	movwf	??_writePin
  2331  01C8  0871               	movf	??_writePin,w
  2332  01C9  00A9               	movwf	_pinStates+9
  2333                           
  2334                           ;pins.c: 247:             break;
  2335  01CA  0008               	return
  2336  01CB                     l1146:	
  2337                           
  2338                           ;pins.c: 249:             LATCbits.LATC1 = value;
  2339  01CB  0C70               	rrf	writePin@value,w
  2340  01CC  0140               	movlb	0	; select bank0
  2341  01CD  1C03               	skipc
  2342  01CE  109A               	bcf	26,1	;volatile
  2343  01CF  1803               	skipnc
  2344  01D0  149A               	bsf	26,1	;volatile
  2345                           
  2346                           ;pins.c: 250:             pinStates[PINC1] = value;
  2347  01D1  0870               	movf	writePin@value,w
  2348  01D2  00F1               	movwf	??_writePin
  2349  01D3  0871               	movf	??_writePin,w
  2350  01D4  00AA               	movwf	_pinStates+10
  2351                           
  2352                           ;pins.c: 251:             break;
  2353  01D5  0008               	return
  2354  01D6                     l1150:	
  2355                           
  2356                           ;pins.c: 253:             LATCbits.LATC2 = value;
  2357  01D6  0C70               	rrf	writePin@value,w
  2358  01D7  0140               	movlb	0	; select bank0
  2359  01D8  1C03               	skipc
  2360  01D9  111A               	bcf	26,2	;volatile
  2361  01DA  1803               	skipnc
  2362  01DB  151A               	bsf	26,2	;volatile
  2363                           
  2364                           ;pins.c: 254:             pinStates[PINC2] = value;
  2365  01DC  0870               	movf	writePin@value,w
  2366  01DD  00F1               	movwf	??_writePin
  2367  01DE  0871               	movf	??_writePin,w
  2368  01DF  00AB               	movwf	_pinStates+11
  2369                           
  2370                           ;pins.c: 255:             break;
  2371  01E0  0008               	return
  2372  01E1                     l1154:	
  2373                           
  2374                           ;pins.c: 257:             LATCbits.LATC3 = value;
  2375  01E1  0C70               	rrf	writePin@value,w
  2376  01E2  0140               	movlb	0	; select bank0
  2377  01E3  1C03               	skipc
  2378  01E4  119A               	bcf	26,3	;volatile
  2379  01E5  1803               	skipnc
  2380  01E6  159A               	bsf	26,3	;volatile
  2381                           
  2382                           ;pins.c: 258:             pinStates[PINC3] = value;
  2383  01E7  0870               	movf	writePin@value,w
  2384  01E8  00F1               	movwf	??_writePin
  2385  01E9  0871               	movf	??_writePin,w
  2386  01EA  00AC               	movwf	_pinStates+12
  2387                           
  2388                           ;pins.c: 259:             break;
  2389  01EB  0008               	return
  2390  01EC                     l1158:	
  2391                           
  2392                           ;pins.c: 261:             LATCbits.LATC4 = value;
  2393  01EC  0C70               	rrf	writePin@value,w
  2394  01ED  0140               	movlb	0	; select bank0
  2395  01EE  1C03               	skipc
  2396  01EF  121A               	bcf	26,4	;volatile
  2397  01F0  1803               	skipnc
  2398  01F1  161A               	bsf	26,4	;volatile
  2399                           
  2400                           ;pins.c: 262:             pinStates[PINC4] = value;
  2401  01F2  0870               	movf	writePin@value,w
  2402  01F3  00F1               	movwf	??_writePin
  2403  01F4  0871               	movf	??_writePin,w
  2404  01F5  00AD               	movwf	_pinStates+13
  2405                           
  2406                           ;pins.c: 263:             break;
  2407  01F6  0008               	return
  2408  01F7                     l1162:	
  2409                           
  2410                           ;pins.c: 265:             LATCbits.LATC5 = value;
  2411  01F7  0C70               	rrf	writePin@value,w
  2412  01F8  0140               	movlb	0	; select bank0
  2413  01F9  1C03               	skipc
  2414  01FA  129A               	bcf	26,5	;volatile
  2415  01FB  1803               	skipnc
  2416  01FC  169A               	bsf	26,5	;volatile
  2417                           
  2418                           ;pins.c: 266:             pinStates[PINC5] = value;
  2419  01FD  0870               	movf	writePin@value,w
  2420  01FE  00F1               	movwf	??_writePin
  2421  01FF  0871               	movf	??_writePin,w
  2422  0200  00AE               	movwf	_pinStates+14
  2423                           
  2424                           ;pins.c: 267:             break;
  2425  0201  0008               	return
  2426  0202                     l1166:	
  2427                           
  2428                           ;pins.c: 269:             LATCbits.LATC6 = value;
  2429  0202  0C70               	rrf	writePin@value,w
  2430  0203  0140               	movlb	0	; select bank0
  2431  0204  1C03               	skipc
  2432  0205  131A               	bcf	26,6	;volatile
  2433  0206  1803               	skipnc
  2434  0207  171A               	bsf	26,6	;volatile
  2435                           
  2436                           ;pins.c: 270:             pinStates[PINC6] = value;
  2437  0208  0870               	movf	writePin@value,w
  2438  0209  00F1               	movwf	??_writePin
  2439  020A  0871               	movf	??_writePin,w
  2440  020B  00AF               	movwf	_pinStates+15
  2441                           
  2442                           ;pins.c: 271:             break;
  2443  020C  0008               	return
  2444  020D                     l1170:	
  2445                           
  2446                           ;pins.c: 273:             LATCbits.LATC7 = value;
  2447  020D  0C70               	rrf	writePin@value,w
  2448  020E  0140               	movlb	0	; select bank0
  2449  020F  1C03               	skipc
  2450  0210  139A               	bcf	26,7	;volatile
  2451  0211  1803               	skipnc
  2452  0212  179A               	bsf	26,7	;volatile
  2453                           
  2454                           ;pins.c: 274:             pinStates[PINC7] = value;
  2455  0213  0870               	movf	writePin@value,w
  2456  0214  00F1               	movwf	??_writePin
  2457  0215  0871               	movf	??_writePin,w
  2458  0216  00B0               	movwf	_pinStates+16
  2459                           
  2460                           ;pins.c: 275:             break;
  2461  0217  0008               	return
  2462  0218                     l1176:	
  2463  0218  0873               	movf	writePin@write,w
  2464  0219  00F1               	movwf	??_writePin
  2465  021A  01F2               	clrf	??_writePin+1
  2466                           
  2467                           ; Switch on 2 bytes has been partitioned into a top level switch of size 1, and 1 sub-sw
      +                          itches
  2468                           ; Switch size 1, requested type "simple"
  2469                           ; Number of cases is 1, Range of values is 0 to 0
  2470                           ; switch strategies available:
  2471                           ; Name         Instructions Cycles
  2472                           ; simple_byte            4     3 (average)
  2473                           ; direct_byte            8     6 (fixed)
  2474                           ; jumptable            260     6 (fixed)
  2475                           ;	Chosen strategy is simple_byte
  2476  021B  0872               	movf	??_writePin+1,w
  2477  021C  3A00               	xorlw	0	; case 0
  2478  021D  1903               	skipnz
  2479  021E  2A20               	goto	l1274
  2480  021F  2A55               	goto	l153
  2481  0220                     l1274:	
  2482                           
  2483                           ; Switch size 1, requested type "simple"
  2484                           ; Number of cases is 17, Range of values is 0 to 16
  2485                           ; switch strategies available:
  2486                           ; Name         Instructions Cycles
  2487                           ; direct_byte           40     6 (fixed)
  2488                           ; simple_byte           52    27 (average)
  2489                           ; jumptable            260     6 (fixed)
  2490                           ;	Chosen strategy is simple_byte
  2491  0220  0871               	movf	??_writePin,w
  2492  0221  3A00               	xorlw	0	; case 0
  2493  0222  1903               	skipnz
  2494  0223  295D               	goto	l1106
  2495  0224  3A01               	xorlw	1	; case 1
  2496  0225  1903               	skipnz
  2497  0226  2968               	goto	l1110
  2498  0227  3A03               	xorlw	3	; case 2
  2499  0228  1903               	skipnz
  2500  0229  2973               	goto	l1114
  2501  022A  3A01               	xorlw	1	; case 3
  2502  022B  1903               	skipnz
  2503  022C  297E               	goto	l1118
  2504  022D  3A07               	xorlw	7	; case 4
  2505  022E  1903               	skipnz
  2506  022F  2989               	goto	l1122
  2507  0230  3A01               	xorlw	1	; case 5
  2508  0231  1903               	skipnz
  2509  0232  2994               	goto	l1126
  2510  0233  3A03               	xorlw	3	; case 6
  2511  0234  1903               	skipnz
  2512  0235  299F               	goto	l1130
  2513  0236  3A01               	xorlw	1	; case 7
  2514  0237  1903               	skipnz
  2515  0238  29AA               	goto	l1134
  2516  0239  3A0F               	xorlw	15	; case 8
  2517  023A  1903               	skipnz
  2518  023B  29B5               	goto	l1138
  2519  023C  3A01               	xorlw	1	; case 9
  2520  023D  1903               	skipnz
  2521  023E  29C0               	goto	l1142
  2522  023F  3A03               	xorlw	3	; case 10
  2523  0240  1903               	skipnz
  2524  0241  29CB               	goto	l1146
  2525  0242  3A01               	xorlw	1	; case 11
  2526  0243  1903               	skipnz
  2527  0244  29D6               	goto	l1150
  2528  0245  3A07               	xorlw	7	; case 12
  2529  0246  1903               	skipnz
  2530  0247  29E1               	goto	l1154
  2531  0248  3A01               	xorlw	1	; case 13
  2532  0249  1903               	skipnz
  2533  024A  29EC               	goto	l1158
  2534  024B  3A03               	xorlw	3	; case 14
  2535  024C  1903               	skipnz
  2536  024D  29F7               	goto	l1162
  2537  024E  3A01               	xorlw	1	; case 15
  2538  024F  1903               	skipnz
  2539  0250  2A02               	goto	l1166
  2540  0251  3A1F               	xorlw	31	; case 16
  2541  0252  1903               	skipnz
  2542  0253  2A0D               	goto	l1170
  2543  0254  2A55               	goto	l153
  2544  0255                     l153:	
  2545  0255  0008               	return
  2546  0256                     __end_of_writePin:	
  2547                           
  2548                           	psect	text2
  2549  0256                     __ptext2:	
  2550 ;; *************** function _readPin *****************
  2551 ;; Defined at:
  2552 ;;		line 167 in file "pins.c"
  2553 ;; Parameters:    Size  Location     Type
  2554 ;;  read            1    wreg     enum E11183
  2555 ;; Auto vars:     Size  Location     Type
  2556 ;;  read            1    2[COMMON] enum E11183
  2557 ;; Return value:  Size  Location     Type
  2558 ;;                  1    wreg      unsigned char 
  2559 ;; Registers used:
  2560 ;;		wreg, fsr0l, fsr0h, status,2, status,0
  2561 ;; Tracked objects:
  2562 ;;		On entry : 0/0
  2563 ;;		On exit  : 0/0
  2564 ;;		Unchanged: 0/0
  2565 ;; Data sizes:     COMMON   BANK0   BANK1   BANK2   BANK3   BANK4   BANK5   BANK6   BANK7   BANK8   BANK9  BANK10  BANK1
      +1  BANK12  BANK13  BANK14  BANK15  BANK16  BANK17  BANK18  BANK19  BANK20  BANK21  BANK22  BANK23  BANK24  BANK25
  2566 ;;      Params:         0       0       0       0       0       0       0       0       0       0       0       0       
      +0       0       0       0       0       0       0       0       0       0       0       0       0       0       0
  2567 ;;      Locals:         1       0       0       0       0       0       0       0       0       0       0       0       
      +0       0       0       0       0       0       0       0       0       0       0       0       0       0       0
  2568 ;;      Temps:          2       0       0       0       0       0       0       0       0       0       0       0       
      +0       0       0       0       0       0       0       0       0       0       0       0       0       0       0
  2569 ;;      Totals:         3       0       0       0       0       0       0       0       0       0       0       0       
      +0       0       0       0       0       0       0       0       0       0       0       0       0       0       0
  2570 ;;Total ram usage:        3 bytes
  2571 ;; Hardware stack levels used:    1
  2572 ;; Hardware stack levels required when called:    1
  2573 ;; This function calls:
  2574 ;;		Nothing
  2575 ;; This function is called by:
  2576 ;;		_main
  2577 ;; This function uses a non-reentrant model
  2578 ;;
  2579                           
  2580                           
  2581                           ;psect for function _readPin
  2582  0256                     _readPin:	
  2583                           
  2584                           ;incstack = 0
  2585                           ; Regs used in _readPin: [wreg-fsr0h+status,2+status,0]
  2586                           ;readPin@read stored from wreg
  2587  0256  00F2               	movwf	readPin@read
  2588                           
  2589                           ;pins.c: 168:     switch (read) {
  2590  0257  2AAA               	goto	l888
  2591  0258                     l818:	
  2592                           
  2593                           ;pins.c: 170:             return PORTAbits.RA0;
  2594  0258  0140               	movlb	0	; select bank0
  2595  0259  080C               	movf	12,w	;volatile
  2596  025A  3901               	andlw	1
  2597  025B  0008               	return
  2598  025C                     l822:	
  2599                           
  2600                           ;pins.c: 172:             return PORTAbits.RA1;
  2601  025C  0140               	movlb	0	; select bank0
  2602  025D  0C0C               	rrf	12,w	;volatile
  2603  025E  3901               	andlw	1
  2604  025F  0008               	return
  2605  0260                     l826:	
  2606                           
  2607                           ;pins.c: 174:             return PORTAbits.RA2;
  2608  0260  0140               	movlb	0	; select bank0
  2609  0261  0C0C               	rrf	12,w	;volatile
  2610  0262  0C89               	rrf	9,f
  2611  0263  3901               	andlw	1
  2612  0264  0008               	return
  2613  0265                     l830:	
  2614                           
  2615                           ;pins.c: 176:             return PORTAbits.RA4;
  2616  0265  0140               	movlb	0	; select bank0
  2617  0266  0E0C               	swapf	12,w	;volatile
  2618  0267  3901               	andlw	1
  2619  0268  0008               	return
  2620  0269                     l834:	
  2621                           
  2622                           ;pins.c: 178:             return PORTAbits.RA5;
  2623  0269  0140               	movlb	0	; select bank0
  2624  026A  0E0C               	swapf	12,w	;volatile
  2625  026B  0C89               	rrf	9,f
  2626  026C  3901               	andlw	1
  2627  026D  0008               	return
  2628  026E                     l838:	
  2629                           
  2630                           ;pins.c: 180:             return PORTBbits.RB4;
  2631  026E  0140               	movlb	0	; select bank0
  2632  026F  0E0D               	swapf	13,w	;volatile
  2633  0270  3901               	andlw	1
  2634  0271  0008               	return
  2635  0272                     l842:	
  2636                           
  2637                           ;pins.c: 182:             return PORTBbits.RB5;
  2638  0272  0140               	movlb	0	; select bank0
  2639  0273  0E0D               	swapf	13,w	;volatile
  2640  0274  0C89               	rrf	9,f
  2641  0275  3901               	andlw	1
  2642  0276  0008               	return
  2643  0277                     l846:	
  2644                           
  2645                           ;pins.c: 184:             return PORTBbits.RB6;
  2646  0277  0140               	movlb	0	; select bank0
  2647  0278  0E0D               	swapf	13,w	;volatile
  2648  0279  0C89               	rrf	9,f
  2649  027A  0C89               	rrf	9,f
  2650  027B  3901               	andlw	1
  2651  027C  0008               	return
  2652  027D                     l850:	
  2653                           
  2654                           ;pins.c: 186:             return PORTBbits.RB7;
  2655  027D  0140               	movlb	0	; select bank0
  2656  027E  0D0D               	rlf	13,w	;volatile
  2657  027F  0D0D               	rlf	13,w	;volatile
  2658  0280  3901               	andlw	1
  2659  0281  0008               	return
  2660  0282                     l854:	
  2661                           
  2662                           ;pins.c: 188:             return PORTCbits.RC0;
  2663  0282  0140               	movlb	0	; select bank0
  2664  0283  080E               	movf	14,w	;volatile
  2665  0284  3901               	andlw	1
  2666  0285  0008               	return
  2667  0286                     l858:	
  2668                           
  2669                           ;pins.c: 190:             return PORTCbits.RC1;
  2670  0286  0140               	movlb	0	; select bank0
  2671  0287  0C0E               	rrf	14,w	;volatile
  2672  0288  3901               	andlw	1
  2673  0289  0008               	return
  2674  028A                     l862:	
  2675                           
  2676                           ;pins.c: 192:             return PORTCbits.RC2;
  2677  028A  0140               	movlb	0	; select bank0
  2678  028B  0C0E               	rrf	14,w	;volatile
  2679  028C  0C89               	rrf	9,f
  2680  028D  3901               	andlw	1
  2681  028E  0008               	return
  2682  028F                     l866:	
  2683                           
  2684                           ;pins.c: 194:             return PORTCbits.RC3;
  2685  028F  0140               	movlb	0	; select bank0
  2686  0290  0C0E               	rrf	14,w	;volatile
  2687  0291  00F0               	movwf	??_readPin
  2688  0292  0CF0               	rrf	??_readPin,f
  2689  0293  0C70               	rrf	??_readPin,w
  2690  0294  3901               	andlw	1
  2691  0295  0008               	return
  2692  0296                     l870:	
  2693                           
  2694                           ;pins.c: 196:             return PORTCbits.RC4;
  2695  0296  0140               	movlb	0	; select bank0
  2696  0297  0E0E               	swapf	14,w	;volatile
  2697  0298  3901               	andlw	1
  2698  0299  0008               	return
  2699  029A                     l874:	
  2700                           
  2701                           ;pins.c: 198:             return PORTCbits.RC5;
  2702  029A  0140               	movlb	0	; select bank0
  2703  029B  0E0E               	swapf	14,w	;volatile
  2704  029C  0C89               	rrf	9,f
  2705  029D  3901               	andlw	1
  2706  029E  0008               	return
  2707  029F                     l878:	
  2708                           
  2709                           ;pins.c: 200:             return PORTCbits.RC6;
  2710  029F  0140               	movlb	0	; select bank0
  2711  02A0  0E0E               	swapf	14,w	;volatile
  2712  02A1  0C89               	rrf	9,f
  2713  02A2  0C89               	rrf	9,f
  2714  02A3  3901               	andlw	1
  2715  02A4  0008               	return
  2716  02A5                     l882:	
  2717                           
  2718                           ;pins.c: 202:             return PORTCbits.RC7;
  2719  02A5  0140               	movlb	0	; select bank0
  2720  02A6  0D0E               	rlf	14,w	;volatile
  2721  02A7  0D0E               	rlf	14,w	;volatile
  2722  02A8  3901               	andlw	1
  2723  02A9  0008               	return
  2724  02AA                     l888:	
  2725  02AA  0872               	movf	readPin@read,w
  2726  02AB  00F0               	movwf	??_readPin
  2727  02AC  01F1               	clrf	??_readPin+1
  2728                           
  2729                           ; Switch on 2 bytes has been partitioned into a top level switch of size 1, and 1 sub-sw
      +                          itches
  2730                           ; Switch size 1, requested type "simple"
  2731                           ; Number of cases is 1, Range of values is 0 to 0
  2732                           ; switch strategies available:
  2733                           ; Name         Instructions Cycles
  2734                           ; simple_byte            4     3 (average)
  2735                           ; direct_byte            8     6 (fixed)
  2736                           ; jumptable            260     6 (fixed)
  2737                           ;	Chosen strategy is simple_byte
  2738  02AD  0871               	movf	??_readPin+1,w
  2739  02AE  3A00               	xorlw	0	; case 0
  2740  02AF  1903               	skipnz
  2741  02B0  2AB2               	goto	l1276
  2742  02B1  2AE7               	goto	l114
  2743  02B2                     l1276:	
  2744                           
  2745                           ; Switch size 1, requested type "simple"
  2746                           ; Number of cases is 17, Range of values is 0 to 16
  2747                           ; switch strategies available:
  2748                           ; Name         Instructions Cycles
  2749                           ; direct_byte           40     6 (fixed)
  2750                           ; simple_byte           52    27 (average)
  2751                           ; jumptable            260     6 (fixed)
  2752                           ;	Chosen strategy is simple_byte
  2753  02B2  0870               	movf	??_readPin,w
  2754  02B3  3A00               	xorlw	0	; case 0
  2755  02B4  1903               	skipnz
  2756  02B5  2A58               	goto	l818
  2757  02B6  3A01               	xorlw	1	; case 1
  2758  02B7  1903               	skipnz
  2759  02B8  2A5C               	goto	l822
  2760  02B9  3A03               	xorlw	3	; case 2
  2761  02BA  1903               	skipnz
  2762  02BB  2A60               	goto	l826
  2763  02BC  3A01               	xorlw	1	; case 3
  2764  02BD  1903               	skipnz
  2765  02BE  2A65               	goto	l830
  2766  02BF  3A07               	xorlw	7	; case 4
  2767  02C0  1903               	skipnz
  2768  02C1  2A69               	goto	l834
  2769  02C2  3A01               	xorlw	1	; case 5
  2770  02C3  1903               	skipnz
  2771  02C4  2A6E               	goto	l838
  2772  02C5  3A03               	xorlw	3	; case 6
  2773  02C6  1903               	skipnz
  2774  02C7  2A72               	goto	l842
  2775  02C8  3A01               	xorlw	1	; case 7
  2776  02C9  1903               	skipnz
  2777  02CA  2A77               	goto	l846
  2778  02CB  3A0F               	xorlw	15	; case 8
  2779  02CC  1903               	skipnz
  2780  02CD  2A7D               	goto	l850
  2781  02CE  3A01               	xorlw	1	; case 9
  2782  02CF  1903               	skipnz
  2783  02D0  2A82               	goto	l854
  2784  02D1  3A03               	xorlw	3	; case 10
  2785  02D2  1903               	skipnz
  2786  02D3  2A86               	goto	l858
  2787  02D4  3A01               	xorlw	1	; case 11
  2788  02D5  1903               	skipnz
  2789  02D6  2A8A               	goto	l862
  2790  02D7  3A07               	xorlw	7	; case 12
  2791  02D8  1903               	skipnz
  2792  02D9  2A8F               	goto	l866
  2793  02DA  3A01               	xorlw	1	; case 13
  2794  02DB  1903               	skipnz
  2795  02DC  2A96               	goto	l870
  2796  02DD  3A03               	xorlw	3	; case 14
  2797  02DE  1903               	skipnz
  2798  02DF  2A9A               	goto	l874
  2799  02E0  3A01               	xorlw	1	; case 15
  2800  02E1  1903               	skipnz
  2801  02E2  2A9F               	goto	l878
  2802  02E3  3A1F               	xorlw	31	; case 16
  2803  02E4  1903               	skipnz
  2804  02E5  2AA5               	goto	l882
  2805  02E6  2AE7               	goto	l114
  2806  02E7                     l114:	
  2807  02E7  0008               	return
  2808  02E8                     __end_of_readPin:	
  2809                           
  2810                           	psect	text3
  2811  0027                     __ptext3:	
  2812 ;; *************** function _defineGPIODirection *****************
  2813 ;; Defined at:
  2814 ;;		line 18 in file "pins.c"
  2815 ;; Parameters:    Size  Location     Type
  2816 ;;  input           1    wreg     PTR enum E11183
  2817 ;;		 -> main@input(1), 
  2818 ;;  output          1    0[COMMON] PTR enum E11183
  2819 ;;		 -> main@output(1), 
  2820 ;;  inputLength     1    1[COMMON] unsigned char 
  2821 ;;  outputLength    1    2[COMMON] unsigned char 
  2822 ;; Auto vars:     Size  Location     Type
  2823 ;;  input           1    6[COMMON] PTR enum E11183
  2824 ;;		 -> main@input(1), 
  2825 ;;  i               1    7[COMMON] unsigned char 
  2826 ;; Return value:  Size  Location     Type
  2827 ;;                  1    wreg      void 
  2828 ;; Registers used:
  2829 ;;		wreg, fsr0l, fsr0h, fsr1l, fsr1h, status,2, status,0
  2830 ;; Tracked objects:
  2831 ;;		On entry : 0/0
  2832 ;;		On exit  : 0/0
  2833 ;;		Unchanged: 0/0
  2834 ;; Data sizes:     COMMON   BANK0   BANK1   BANK2   BANK3   BANK4   BANK5   BANK6   BANK7   BANK8   BANK9  BANK10  BANK1
      +1  BANK12  BANK13  BANK14  BANK15  BANK16  BANK17  BANK18  BANK19  BANK20  BANK21  BANK22  BANK23  BANK24  BANK25
  2835 ;;      Params:         3       0       0       0       0       0       0       0       0       0       0       0       
      +0       0       0       0       0       0       0       0       0       0       0       0       0       0       0
  2836 ;;      Locals:         2       0       0       0       0       0       0       0       0       0       0       0       
      +0       0       0       0       0       0       0       0       0       0       0       0       0       0       0
  2837 ;;      Temps:          3       0       0       0       0       0       0       0       0       0       0       0       
      +0       0       0       0       0       0       0       0       0       0       0       0       0       0       0
  2838 ;;      Totals:         8       0       0       0       0       0       0       0       0       0       0       0       
      +0       0       0       0       0       0       0       0       0       0       0       0       0       0       0
  2839 ;;Total ram usage:        8 bytes
  2840 ;; Hardware stack levels used:    1
  2841 ;; Hardware stack levels required when called:    1
  2842 ;; This function calls:
  2843 ;;		Nothing
  2844 ;; This function is called by:
  2845 ;;		_main
  2846 ;; This function uses a non-reentrant model
  2847 ;;
  2848                           
  2849                           
  2850                           ;psect for function _defineGPIODirection
  2851  0027                     _defineGPIODirection:	
  2852                           
  2853                           ;incstack = 0
  2854                           ; Regs used in _defineGPIODirection: [wreg-fsr1h+status,2+status,0]
  2855                           ;defineGPIODirection@input stored from wreg
  2856  0027  00F6               	movwf	defineGPIODirection@input
  2857                           
  2858                           ;pins.c: 19:     uint8_t i;;pins.c: 20:     for(i = 0; i < inputLength; i++) {
  2859  0028  01F7               	clrf	defineGPIODirection@i
  2860  0029  2893               	goto	l1084
  2861  002A                     l68:	
  2862                           ;pins.c: 22:             case PINA0 :
  2863                           
  2864                           
  2865                           ;pins.c: 23:                 TRISAbits.TRISA0 = 1;
  2866  002A  0140               	movlb	0	; select bank0
  2867  002B  1412               	bsf	18,0	;volatile
  2868                           
  2869                           ;pins.c: 24:                 ANSELAbits.ANSA0 = 0;
  2870  002C  017E               	movlb	62	; select bank62
  2871  002D  1038               	bcf	56,0	;volatile
  2872                           
  2873                           ;pins.c: 25:                 WPUAbits.WPUA0 = 1;
  2874  002E  1439               	bsf	57,0	;volatile
  2875                           
  2876                           ;pins.c: 26:                 break;
  2877  002F  288F               	goto	l1082
  2878  0030                     l70:	
  2879                           ;pins.c: 27:             case PINA1 :
  2880                           
  2881                           
  2882                           ;pins.c: 28:                 TRISAbits.TRISA1 = 1;
  2883  0030  0140               	movlb	0	; select bank0
  2884  0031  1492               	bsf	18,1	;volatile
  2885                           
  2886                           ;pins.c: 29:                 ANSELAbits.ANSA1 = 0;
  2887  0032  017E               	movlb	62	; select bank62
  2888  0033  10B8               	bcf	56,1	;volatile
  2889                           
  2890                           ;pins.c: 30:                 WPUAbits.WPUA1 = 1;
  2891  0034  14B9               	bsf	57,1	;volatile
  2892                           
  2893                           ;pins.c: 31:                 break;
  2894  0035  288F               	goto	l1082
  2895  0036                     l71:	
  2896                           ;pins.c: 32:             case PINA2 :
  2897                           
  2898                           
  2899                           ;pins.c: 33:                 TRISAbits.TRISA2 = 1;
  2900  0036  0140               	movlb	0	; select bank0
  2901  0037  1512               	bsf	18,2	;volatile
  2902                           
  2903                           ;pins.c: 34:                 ANSELAbits.ANSA2 = 0;
  2904  0038  017E               	movlb	62	; select bank62
  2905  0039  1138               	bcf	56,2	;volatile
  2906                           
  2907                           ;pins.c: 35:                 WPUAbits.WPUA2 = 1;
  2908  003A  1539               	bsf	57,2	;volatile
  2909                           
  2910                           ;pins.c: 36:                 break;
  2911  003B  288F               	goto	l1082
  2912  003C                     l72:	
  2913                           ;pins.c: 37:             case PINA4 :
  2914                           
  2915                           
  2916                           ;pins.c: 38:                 TRISAbits.TRISA4 = 1;
  2917  003C  0140               	movlb	0	; select bank0
  2918  003D  1612               	bsf	18,4	;volatile
  2919                           
  2920                           ;pins.c: 39:                 ANSELAbits.ANSA4 = 0;
  2921  003E  017E               	movlb	62	; select bank62
  2922  003F  1238               	bcf	56,4	;volatile
  2923                           
  2924                           ;pins.c: 40:                 WPUAbits.WPUA4 = 1;
  2925  0040  1639               	bsf	57,4	;volatile
  2926                           
  2927                           ;pins.c: 41:                 break;
  2928  0041  288F               	goto	l1082
  2929  0042                     l73:	
  2930                           ;pins.c: 42:             case PINA5 :
  2931                           
  2932                           
  2933                           ;pins.c: 43:                 TRISAbits.TRISA5 = 1;
  2934  0042  0140               	movlb	0	; select bank0
  2935  0043  1692               	bsf	18,5	;volatile
  2936                           
  2937                           ;pins.c: 44:                 ANSELAbits.ANSA5 = 0;
  2938  0044  017E               	movlb	62	; select bank62
  2939  0045  12B8               	bcf	56,5	;volatile
  2940                           
  2941                           ;pins.c: 45:                 WPUAbits.WPUA5 = 1;
  2942  0046  16B9               	bsf	57,5	;volatile
  2943                           
  2944                           ;pins.c: 46:                 break;
  2945  0047  288F               	goto	l1082
  2946  0048                     l74:	
  2947                           ;pins.c: 47:             case PINB4 :
  2948                           
  2949                           
  2950                           ;pins.c: 48:                 TRISBbits.TRISB4 = 1;
  2951  0048  0140               	movlb	0	; select bank0
  2952  0049  1613               	bsf	19,4	;volatile
  2953                           
  2954                           ;pins.c: 49:                 ANSELBbits.ANSB4 = 0;
  2955  004A  017E               	movlb	62	; select bank62
  2956  004B  1243               	bcf	67,4	;volatile
  2957                           
  2958                           ;pins.c: 50:                 WPUBbits.WPUB4 = 1;
  2959  004C  1644               	bsf	68,4	;volatile
  2960                           
  2961                           ;pins.c: 51:                 break;
  2962  004D  288F               	goto	l1082
  2963  004E                     l75:	
  2964                           ;pins.c: 52:             case PINB5 :
  2965                           
  2966                           
  2967                           ;pins.c: 53:                 TRISBbits.TRISB5 = 1;
  2968  004E  0140               	movlb	0	; select bank0
  2969  004F  1693               	bsf	19,5	;volatile
  2970                           
  2971                           ;pins.c: 54:                 ANSELBbits.ANSB5 = 0;
  2972  0050  017E               	movlb	62	; select bank62
  2973  0051  12C3               	bcf	67,5	;volatile
  2974                           
  2975                           ;pins.c: 55:                 WPUBbits.WPUB5 = 1;
  2976  0052  16C4               	bsf	68,5	;volatile
  2977                           
  2978                           ;pins.c: 56:                 break;
  2979  0053  288F               	goto	l1082
  2980  0054                     l76:	
  2981                           ;pins.c: 57:             case PINB6 :
  2982                           
  2983                           
  2984                           ;pins.c: 58:                 TRISBbits.TRISB6 = 1;
  2985  0054  0140               	movlb	0	; select bank0
  2986  0055  1713               	bsf	19,6	;volatile
  2987                           
  2988                           ;pins.c: 59:                 ANSELBbits.ANSB6 = 0;
  2989  0056  017E               	movlb	62	; select bank62
  2990  0057  1343               	bcf	67,6	;volatile
  2991                           
  2992                           ;pins.c: 60:                 WPUBbits.WPUB6 = 1;
  2993  0058  1744               	bsf	68,6	;volatile
  2994                           
  2995                           ;pins.c: 61:                 break;
  2996  0059  288F               	goto	l1082
  2997  005A                     l77:	
  2998                           ;pins.c: 62:             case PINB7 :
  2999                           
  3000                           
  3001                           ;pins.c: 63:                 TRISBbits.TRISB7 = 1;
  3002  005A  0140               	movlb	0	; select bank0
  3003  005B  1793               	bsf	19,7	;volatile
  3004                           
  3005                           ;pins.c: 64:                 ANSELBbits.ANSB7 = 0;
  3006  005C  017E               	movlb	62	; select bank62
  3007  005D  13C3               	bcf	67,7	;volatile
  3008                           
  3009                           ;pins.c: 65:                 WPUBbits.WPUB7 = 1;
  3010  005E  17C4               	bsf	68,7	;volatile
  3011                           
  3012                           ;pins.c: 66:                 break;
  3013  005F  288F               	goto	l1082
  3014  0060                     l78:	
  3015                           ;pins.c: 67:             case PINC0 :
  3016                           
  3017                           
  3018                           ;pins.c: 68:                 TRISCbits.TRISC0 = 1;
  3019  0060  0140               	movlb	0	; select bank0
  3020  0061  1414               	bsf	20,0	;volatile
  3021                           
  3022                           ;pins.c: 69:                 ANSELCbits.ANSC0 = 0;
  3023  0062  017E               	movlb	62	; select bank62
  3024  0063  104E               	bcf	78,0	;volatile
  3025                           
  3026                           ;pins.c: 70:                 WPUCbits.WPUC0 = 1;
  3027  0064  144F               	bsf	79,0	;volatile
  3028                           
  3029                           ;pins.c: 71:                 break;
  3030  0065  288F               	goto	l1082
  3031  0066                     l79:	
  3032                           ;pins.c: 72:             case PINC1 :
  3033                           
  3034                           
  3035                           ;pins.c: 73:                 TRISCbits.TRISC1 = 1;
  3036  0066  0140               	movlb	0	; select bank0
  3037  0067  1494               	bsf	20,1	;volatile
  3038                           
  3039                           ;pins.c: 74:                 ANSELCbits.ANSC1 = 0;
  3040  0068  017E               	movlb	62	; select bank62
  3041  0069  10CE               	bcf	78,1	;volatile
  3042                           
  3043                           ;pins.c: 75:                 WPUCbits.WPUC1 = 1;
  3044  006A  14CF               	bsf	79,1	;volatile
  3045                           
  3046                           ;pins.c: 76:                 break;
  3047  006B  288F               	goto	l1082
  3048  006C                     l80:	
  3049                           ;pins.c: 77:             case PINC2 :
  3050                           
  3051                           
  3052                           ;pins.c: 78:                 TRISCbits.TRISC2 = 1;
  3053  006C  0140               	movlb	0	; select bank0
  3054  006D  1514               	bsf	20,2	;volatile
  3055                           
  3056                           ;pins.c: 79:                 ANSELCbits.ANSC2 = 0;
  3057  006E  017E               	movlb	62	; select bank62
  3058  006F  114E               	bcf	78,2	;volatile
  3059                           
  3060                           ;pins.c: 80:                 WPUCbits.WPUC2 = 1;
  3061  0070  154F               	bsf	79,2	;volatile
  3062                           
  3063                           ;pins.c: 81:                 break;
  3064  0071  288F               	goto	l1082
  3065  0072                     l81:	
  3066                           ;pins.c: 82:             case PINC3 :
  3067                           
  3068                           
  3069                           ;pins.c: 83:                 TRISCbits.TRISC3 = 1;
  3070  0072  0140               	movlb	0	; select bank0
  3071  0073  1594               	bsf	20,3	;volatile
  3072                           
  3073                           ;pins.c: 84:                 ANSELCbits.ANSC3 = 0;
  3074  0074  017E               	movlb	62	; select bank62
  3075  0075  11CE               	bcf	78,3	;volatile
  3076                           
  3077                           ;pins.c: 85:                 WPUCbits.WPUC3 = 1;
  3078  0076  15CF               	bsf	79,3	;volatile
  3079                           
  3080                           ;pins.c: 86:                 break;
  3081  0077  288F               	goto	l1082
  3082  0078                     l82:	
  3083                           ;pins.c: 87:             case PINC4 :
  3084                           
  3085                           
  3086                           ;pins.c: 88:                 TRISCbits.TRISC4 = 1;
  3087  0078  0140               	movlb	0	; select bank0
  3088  0079  1614               	bsf	20,4	;volatile
  3089                           
  3090                           ;pins.c: 89:                 ANSELCbits.ANSC4 = 0;
  3091  007A  017E               	movlb	62	; select bank62
  3092  007B  124E               	bcf	78,4	;volatile
  3093                           
  3094                           ;pins.c: 90:                 WPUCbits.WPUC4 = 1;
  3095  007C  164F               	bsf	79,4	;volatile
  3096                           
  3097                           ;pins.c: 91:                 break;
  3098  007D  288F               	goto	l1082
  3099  007E                     l83:	
  3100                           ;pins.c: 92:             case PINC5 :
  3101                           
  3102                           
  3103                           ;pins.c: 93:                 TRISCbits.TRISC5 = 1;
  3104  007E  0140               	movlb	0	; select bank0
  3105  007F  1694               	bsf	20,5	;volatile
  3106                           
  3107                           ;pins.c: 94:                 ANSELCbits.ANSC5 = 0;
  3108  0080  017E               	movlb	62	; select bank62
  3109  0081  12CE               	bcf	78,5	;volatile
  3110                           
  3111                           ;pins.c: 95:                 WPUCbits.WPUC5 = 1;
  3112  0082  16CF               	bsf	79,5	;volatile
  3113                           
  3114                           ;pins.c: 96:                 break;
  3115  0083  288F               	goto	l1082
  3116  0084                     l84:	
  3117                           ;pins.c: 97:             case PINC6 :
  3118                           
  3119                           
  3120                           ;pins.c: 98:                 TRISCbits.TRISC6 = 1;
  3121  0084  0140               	movlb	0	; select bank0
  3122  0085  1714               	bsf	20,6	;volatile
  3123                           
  3124                           ;pins.c: 99:                 ANSELCbits.ANSC6 = 0;
  3125  0086  017E               	movlb	62	; select bank62
  3126  0087  134E               	bcf	78,6	;volatile
  3127                           
  3128                           ;pins.c: 100:                 WPUCbits.WPUC6 = 1;
  3129  0088  174F               	bsf	79,6	;volatile
  3130                           
  3131                           ;pins.c: 101:                 break;
  3132  0089  288F               	goto	l1082
  3133  008A                     l85:	
  3134                           ;pins.c: 102:             case PINC7 :
  3135                           
  3136                           
  3137                           ;pins.c: 103:                 TRISCbits.TRISC7 = 1;
  3138  008A  0140               	movlb	0	; select bank0
  3139  008B  1794               	bsf	20,7	;volatile
  3140                           
  3141                           ;pins.c: 104:                 ANSELCbits.ANSC7 = 0;
  3142  008C  017E               	movlb	62	; select bank62
  3143  008D  13CE               	bcf	78,7	;volatile
  3144                           
  3145                           ;pins.c: 105:                 WPUCbits.WPUC7 = 1;
  3146  008E  17CF               	bsf	79,7	;volatile
  3147  008F                     l1082:	
  3148                           ;pins.c: 106:                 break;
  3149                           
  3150                           
  3151                           ;pins.c: 108:     }
  3152  008F  3001               	movlw	1
  3153  0090  00F3               	movwf	??_defineGPIODirection
  3154  0091  0873               	movf	??_defineGPIODirection,w
  3155  0092  07F7               	addwf	defineGPIODirection@i,f
  3156  0093                     l1084:	
  3157  0093  0871               	movf	defineGPIODirection@inputLength,w
  3158  0094  0277               	subwf	defineGPIODirection@i,w
  3159  0095  1803               	btfsc	3,0
  3160  0096  28DB               	goto	l1086
  3161  0097  0877               	movf	defineGPIODirection@i,w
  3162  0098  0776               	addwf	defineGPIODirection@input,w
  3163  0099  00F3               	movwf	??_defineGPIODirection
  3164  009A  0873               	movf	??_defineGPIODirection,w
  3165  009B  0086               	movwf	6
  3166  009C  0187               	clrf	7
  3167  009D  0801               	movf	1,w
  3168  009E  00F4               	movwf	??_defineGPIODirection+1
  3169  009F  01F5               	clrf	??_defineGPIODirection+2
  3170                           
  3171                           ; Switch on 2 bytes has been partitioned into a top level switch of size 1, and 1 sub-sw
      +                          itches
  3172                           ; Switch size 1, requested type "simple"
  3173                           ; Number of cases is 1, Range of values is 0 to 0
  3174                           ; switch strategies available:
  3175                           ; Name         Instructions Cycles
  3176                           ; simple_byte            4     3 (average)
  3177                           ; direct_byte            8     6 (fixed)
  3178                           ; jumptable            260     6 (fixed)
  3179                           ;	Chosen strategy is simple_byte
  3180  00A0  0875               	movf	??_defineGPIODirection+2,w
  3181  00A1  3A00               	xorlw	0	; case 0
  3182  00A2  1903               	skipnz
  3183  00A3  28A5               	goto	l1278
  3184  00A4  288F               	goto	l1082
  3185  00A5                     l1278:	
  3186                           
  3187                           ; Switch size 1, requested type "simple"
  3188                           ; Number of cases is 17, Range of values is 0 to 16
  3189                           ; switch strategies available:
  3190                           ; Name         Instructions Cycles
  3191                           ; direct_byte           40     6 (fixed)
  3192                           ; simple_byte           52    27 (average)
  3193                           ; jumptable            260     6 (fixed)
  3194                           ;	Chosen strategy is simple_byte
  3195  00A5  0874               	movf	??_defineGPIODirection+1,w
  3196  00A6  3A00               	xorlw	0	; case 0
  3197  00A7  1903               	skipnz
  3198  00A8  282A               	goto	l68
  3199  00A9  3A01               	xorlw	1	; case 1
  3200  00AA  1903               	skipnz
  3201  00AB  2830               	goto	l70
  3202  00AC  3A03               	xorlw	3	; case 2
  3203  00AD  1903               	skipnz
  3204  00AE  2836               	goto	l71
  3205  00AF  3A01               	xorlw	1	; case 3
  3206  00B0  1903               	skipnz
  3207  00B1  283C               	goto	l72
  3208  00B2  3A07               	xorlw	7	; case 4
  3209  00B3  1903               	skipnz
  3210  00B4  2842               	goto	l73
  3211  00B5  3A01               	xorlw	1	; case 5
  3212  00B6  1903               	skipnz
  3213  00B7  2848               	goto	l74
  3214  00B8  3A03               	xorlw	3	; case 6
  3215  00B9  1903               	skipnz
  3216  00BA  284E               	goto	l75
  3217  00BB  3A01               	xorlw	1	; case 7
  3218  00BC  1903               	skipnz
  3219  00BD  2854               	goto	l76
  3220  00BE  3A0F               	xorlw	15	; case 8
  3221  00BF  1903               	skipnz
  3222  00C0  285A               	goto	l77
  3223  00C1  3A01               	xorlw	1	; case 9
  3224  00C2  1903               	skipnz
  3225  00C3  2860               	goto	l78
  3226  00C4  3A03               	xorlw	3	; case 10
  3227  00C5  1903               	skipnz
  3228  00C6  2866               	goto	l79
  3229  00C7  3A01               	xorlw	1	; case 11
  3230  00C8  1903               	skipnz
  3231  00C9  286C               	goto	l80
  3232  00CA  3A07               	xorlw	7	; case 12
  3233  00CB  1903               	skipnz
  3234  00CC  2872               	goto	l81
  3235  00CD  3A01               	xorlw	1	; case 13
  3236  00CE  1903               	skipnz
  3237  00CF  2878               	goto	l82
  3238  00D0  3A03               	xorlw	3	; case 14
  3239  00D1  1903               	skipnz
  3240  00D2  287E               	goto	l83
  3241  00D3  3A01               	xorlw	1	; case 15
  3242  00D4  1903               	skipnz
  3243  00D5  2884               	goto	l84
  3244  00D6  3A1F               	xorlw	31	; case 16
  3245  00D7  1903               	skipnz
  3246  00D8  288A               	goto	l85
  3247  00D9  288F               	goto	l1082
  3248  00DA  288F               	goto	l1082
  3249  00DB                     l1086:	
  3250                           
  3251                           ;pins.c: 110:     for(i = 0; i < outputLength; i++) {
  3252  00DB  01F7               	clrf	defineGPIODirection@i
  3253  00DC  2913               	goto	l1094
  3254  00DD                     l90:	
  3255                           ;pins.c: 112:             case PINA0 :
  3256                           
  3257                           
  3258                           ;pins.c: 113:                 TRISAbits.TRISA0 = 0;
  3259  00DD  0140               	movlb	0	; select bank0
  3260  00DE  1012               	bcf	18,0	;volatile
  3261                           
  3262                           ;pins.c: 114:                 break;
  3263  00DF  290F               	goto	l1092
  3264  00E0                     l92:	
  3265                           ;pins.c: 115:             case PINA1 :
  3266                           
  3267                           
  3268                           ;pins.c: 116:                 TRISAbits.TRISA1 = 0;
  3269  00E0  0140               	movlb	0	; select bank0
  3270  00E1  1092               	bcf	18,1	;volatile
  3271                           
  3272                           ;pins.c: 117:                 break;
  3273  00E2  290F               	goto	l1092
  3274  00E3                     l93:	
  3275                           ;pins.c: 118:             case PINA2 :
  3276                           
  3277                           
  3278                           ;pins.c: 119:                 TRISAbits.TRISA2 = 0;
  3279  00E3  0140               	movlb	0	; select bank0
  3280  00E4  1112               	bcf	18,2	;volatile
  3281                           
  3282                           ;pins.c: 120:                 break;
  3283  00E5  290F               	goto	l1092
  3284  00E6                     l94:	
  3285                           ;pins.c: 121:             case PINA4 :
  3286                           
  3287                           
  3288                           ;pins.c: 122:                 TRISAbits.TRISA4 = 0;
  3289  00E6  0140               	movlb	0	; select bank0
  3290  00E7  1212               	bcf	18,4	;volatile
  3291                           
  3292                           ;pins.c: 123:                 break;
  3293  00E8  290F               	goto	l1092
  3294  00E9                     l95:	
  3295                           ;pins.c: 124:             case PINA5 :
  3296                           
  3297                           
  3298                           ;pins.c: 125:                 TRISAbits.TRISA5 = 0;
  3299  00E9  0140               	movlb	0	; select bank0
  3300  00EA  1292               	bcf	18,5	;volatile
  3301                           
  3302                           ;pins.c: 126:                 break;
  3303  00EB  290F               	goto	l1092
  3304  00EC                     l96:	
  3305                           ;pins.c: 127:             case PINB4 :
  3306                           
  3307                           
  3308                           ;pins.c: 128:                 TRISBbits.TRISB4 = 0;
  3309  00EC  0140               	movlb	0	; select bank0
  3310  00ED  1213               	bcf	19,4	;volatile
  3311                           
  3312                           ;pins.c: 129:                 break;
  3313  00EE  290F               	goto	l1092
  3314  00EF                     l97:	
  3315                           ;pins.c: 130:             case PINB5 :
  3316                           
  3317                           
  3318                           ;pins.c: 131:                 TRISBbits.TRISB5 = 0;
  3319  00EF  0140               	movlb	0	; select bank0
  3320  00F0  1293               	bcf	19,5	;volatile
  3321                           
  3322                           ;pins.c: 132:                 break;
  3323  00F1  290F               	goto	l1092
  3324  00F2                     l98:	
  3325                           ;pins.c: 133:             case PINB6 :
  3326                           
  3327                           
  3328                           ;pins.c: 134:                 TRISBbits.TRISB6 = 0;
  3329  00F2  0140               	movlb	0	; select bank0
  3330  00F3  1313               	bcf	19,6	;volatile
  3331                           
  3332                           ;pins.c: 135:                 break;
  3333  00F4  290F               	goto	l1092
  3334  00F5                     l99:	
  3335                           ;pins.c: 136:             case PINB7 :
  3336                           
  3337                           
  3338                           ;pins.c: 137:                 TRISBbits.TRISB7 = 0;
  3339  00F5  0140               	movlb	0	; select bank0
  3340  00F6  1393               	bcf	19,7	;volatile
  3341                           
  3342                           ;pins.c: 138:                 break;
  3343  00F7  290F               	goto	l1092
  3344  00F8                     l100:	
  3345                           ;pins.c: 139:             case PINC0 :
  3346                           
  3347                           
  3348                           ;pins.c: 140:                 TRISCbits.TRISC0 = 0;
  3349  00F8  0140               	movlb	0	; select bank0
  3350  00F9  1014               	bcf	20,0	;volatile
  3351                           
  3352                           ;pins.c: 141:                 break;
  3353  00FA  290F               	goto	l1092
  3354  00FB                     l101:	
  3355                           ;pins.c: 142:             case PINC1 :
  3356                           
  3357                           
  3358                           ;pins.c: 143:                 TRISCbits.TRISC1 = 0;
  3359  00FB  0140               	movlb	0	; select bank0
  3360  00FC  1094               	bcf	20,1	;volatile
  3361                           
  3362                           ;pins.c: 144:                 break;
  3363  00FD  290F               	goto	l1092
  3364  00FE                     l102:	
  3365                           ;pins.c: 145:             case PINC2 :
  3366                           
  3367                           
  3368                           ;pins.c: 146:                 TRISCbits.TRISC2 = 0;
  3369  00FE  0140               	movlb	0	; select bank0
  3370  00FF  1114               	bcf	20,2	;volatile
  3371                           
  3372                           ;pins.c: 147:                 break;
  3373  0100  290F               	goto	l1092
  3374  0101                     l103:	
  3375                           ;pins.c: 148:             case PINC3 :
  3376                           
  3377                           
  3378                           ;pins.c: 149:                 TRISCbits.TRISC3 = 0;
  3379  0101  0140               	movlb	0	; select bank0
  3380  0102  1194               	bcf	20,3	;volatile
  3381                           
  3382                           ;pins.c: 150:                 break;
  3383  0103  290F               	goto	l1092
  3384  0104                     l104:	
  3385                           ;pins.c: 151:             case PINC4 :
  3386                           
  3387                           
  3388                           ;pins.c: 152:                 TRISCbits.TRISC4 = 0;
  3389  0104  0140               	movlb	0	; select bank0
  3390  0105  1214               	bcf	20,4	;volatile
  3391                           
  3392                           ;pins.c: 153:                 break;
  3393  0106  290F               	goto	l1092
  3394  0107                     l105:	
  3395                           ;pins.c: 154:             case PINC5 :
  3396                           
  3397                           
  3398                           ;pins.c: 155:                 TRISCbits.TRISC5 = 0;
  3399  0107  0140               	movlb	0	; select bank0
  3400  0108  1294               	bcf	20,5	;volatile
  3401                           
  3402                           ;pins.c: 156:                 break;
  3403  0109  290F               	goto	l1092
  3404  010A                     l106:	
  3405                           ;pins.c: 157:             case PINC6 :
  3406                           
  3407                           
  3408                           ;pins.c: 158:                 TRISCbits.TRISC6 = 0;
  3409  010A  0140               	movlb	0	; select bank0
  3410  010B  1314               	bcf	20,6	;volatile
  3411                           
  3412                           ;pins.c: 159:                 break;
  3413  010C  290F               	goto	l1092
  3414  010D                     l107:	
  3415                           ;pins.c: 160:             case PINC7 :
  3416                           
  3417                           
  3418                           ;pins.c: 161:                 TRISCbits.TRISC7 = 0;
  3419  010D  0140               	movlb	0	; select bank0
  3420  010E  1394               	bcf	20,7	;volatile
  3421  010F                     l1092:	
  3422                           ;pins.c: 162:                 break;
  3423                           
  3424                           
  3425                           ;pins.c: 164:     }
  3426  010F  3001               	movlw	1
  3427  0110  00F3               	movwf	??_defineGPIODirection
  3428  0111  0873               	movf	??_defineGPIODirection,w
  3429  0112  07F7               	addwf	defineGPIODirection@i,f
  3430  0113                     l1094:	
  3431  0113  0872               	movf	defineGPIODirection@outputLength,w
  3432  0114  0277               	subwf	defineGPIODirection@i,w
  3433  0115  1803               	btfsc	3,0
  3434  0116  0008               	return
  3435  0117  0877               	movf	defineGPIODirection@i,w
  3436  0118  0770               	addwf	defineGPIODirection@output,w
  3437  0119  00F3               	movwf	??_defineGPIODirection
  3438  011A  0873               	movf	??_defineGPIODirection,w
  3439  011B  0086               	movwf	6
  3440  011C  0187               	clrf	7
  3441  011D  0801               	movf	1,w
  3442  011E  00F4               	movwf	??_defineGPIODirection+1
  3443  011F  01F5               	clrf	??_defineGPIODirection+2
  3444                           
  3445                           ; Switch on 2 bytes has been partitioned into a top level switch of size 1, and 1 sub-sw
      +                          itches
  3446                           ; Switch size 1, requested type "simple"
  3447                           ; Number of cases is 1, Range of values is 0 to 0
  3448                           ; switch strategies available:
  3449                           ; Name         Instructions Cycles
  3450                           ; simple_byte            4     3 (average)
  3451                           ; direct_byte            8     6 (fixed)
  3452                           ; jumptable            260     6 (fixed)
  3453                           ;	Chosen strategy is simple_byte
  3454  0120  0875               	movf	??_defineGPIODirection+2,w
  3455  0121  3A00               	xorlw	0	; case 0
  3456  0122  1903               	skipnz
  3457  0123  2925               	goto	l1280
  3458  0124  290F               	goto	l1092
  3459  0125                     l1280:	
  3460                           
  3461                           ; Switch size 1, requested type "simple"
  3462                           ; Number of cases is 17, Range of values is 0 to 16
  3463                           ; switch strategies available:
  3464                           ; Name         Instructions Cycles
  3465                           ; direct_byte           40     6 (fixed)
  3466                           ; simple_byte           52    27 (average)
  3467                           ; jumptable            260     6 (fixed)
  3468                           ;	Chosen strategy is simple_byte
  3469  0125  0874               	movf	??_defineGPIODirection+1,w
  3470  0126  3A00               	xorlw	0	; case 0
  3471  0127  1903               	skipnz
  3472  0128  28DD               	goto	l90
  3473  0129  3A01               	xorlw	1	; case 1
  3474  012A  1903               	skipnz
  3475  012B  28E0               	goto	l92
  3476  012C  3A03               	xorlw	3	; case 2
  3477  012D  1903               	skipnz
  3478  012E  28E3               	goto	l93
  3479  012F  3A01               	xorlw	1	; case 3
  3480  0130  1903               	skipnz
  3481  0131  28E6               	goto	l94
  3482  0132  3A07               	xorlw	7	; case 4
  3483  0133  1903               	skipnz
  3484  0134  28E9               	goto	l95
  3485  0135  3A01               	xorlw	1	; case 5
  3486  0136  1903               	skipnz
  3487  0137  28EC               	goto	l96
  3488  0138  3A03               	xorlw	3	; case 6
  3489  0139  1903               	skipnz
  3490  013A  28EF               	goto	l97
  3491  013B  3A01               	xorlw	1	; case 7
  3492  013C  1903               	skipnz
  3493  013D  28F2               	goto	l98
  3494  013E  3A0F               	xorlw	15	; case 8
  3495  013F  1903               	skipnz
  3496  0140  28F5               	goto	l99
  3497  0141  3A01               	xorlw	1	; case 9
  3498  0142  1903               	skipnz
  3499  0143  28F8               	goto	l100
  3500  0144  3A03               	xorlw	3	; case 10
  3501  0145  1903               	skipnz
  3502  0146  28FB               	goto	l101
  3503  0147  3A01               	xorlw	1	; case 11
  3504  0148  1903               	skipnz
  3505  0149  28FE               	goto	l102
  3506  014A  3A07               	xorlw	7	; case 12
  3507  014B  1903               	skipnz
  3508  014C  2901               	goto	l103
  3509  014D  3A01               	xorlw	1	; case 13
  3510  014E  1903               	skipnz
  3511  014F  2904               	goto	l104
  3512  0150  3A03               	xorlw	3	; case 14
  3513  0151  1903               	skipnz
  3514  0152  2907               	goto	l105
  3515  0153  3A01               	xorlw	1	; case 15
  3516  0154  1903               	skipnz
  3517  0155  290A               	goto	l106
  3518  0156  3A1F               	xorlw	31	; case 16
  3519  0157  1903               	skipnz
  3520  0158  290D               	goto	l107
  3521  0159  290F               	goto	l1092
  3522  015A  290F               	goto	l1092
  3523  015B                     __end_of_defineGPIODirection:	
  3524                           
  3525                           	psect	intentry
  3526  0004                     __pintentry:	
  3527 ;; *************** function _timer0ISR *****************
  3528 ;; Defined at:
  3529 ;;		line 27 in file "timer0.c"
  3530 ;; Parameters:    Size  Location     Type
  3531 ;;		None
  3532 ;; Auto vars:     Size  Location     Type
  3533 ;;		None
  3534 ;; Return value:  Size  Location     Type
  3535 ;;                  1    wreg      void 
  3536 ;; Registers used:
  3537 ;;		wreg
  3538 ;; Tracked objects:
  3539 ;;		On entry : 0/0
  3540 ;;		On exit  : 0/0
  3541 ;;		Unchanged: 0/0
  3542 ;; Data sizes:     COMMON   BANK0   BANK1   BANK2   BANK3   BANK4   BANK5   BANK6   BANK7   BANK8   BANK9  BANK10  BANK1
      +1  BANK12  BANK13  BANK14  BANK15  BANK16  BANK17  BANK18  BANK19  BANK20  BANK21  BANK22  BANK23  BANK24  BANK25
  3543 ;;      Params:         0       0       0       0       0       0       0       0       0       0       0       0       
      +0       0       0       0       0       0       0       0       0       0       0       0       0       0       0
  3544 ;;      Locals:         0       0       0       0       0       0       0       0       0       0       0       0       
      +0       0       0       0       0       0       0       0       0       0       0       0       0       0       0
  3545 ;;      Temps:          0       0       0       0       0       0       0       0       0       0       0       0       
      +0       0       0       0       0       0       0       0       0       0       0       0       0       0       0
  3546 ;;      Totals:         0       0       0       0       0       0       0       0       0       0       0       0       
      +0       0       0       0       0       0       0       0       0       0       0       0       0       0       0
  3547 ;;Total ram usage:        0 bytes
  3548 ;; Hardware stack levels used:    1
  3549 ;; This function calls:
  3550 ;;		Nothing
  3551 ;; This function is called by:
  3552 ;;		Interrupt level 1
  3553 ;; This function uses a non-reentrant model
  3554 ;;
  3555                           
  3556  0004                     _timer0ISR:	
  3557                           
  3558                           ;incstack = 0
  3559  0004  147E               	bsf	126,0	;set compiler interrupt flag (level 1)
  3560                           
  3561                           ; Regs used in _timer0ISR: [wreg]
  3562  0005  3180               	pagesel	$
  3563                           
  3564                           ;timer0.c: 28:     count++;
  3565  0006  3001               	movlw	1
  3566  0007  0140               	movlb	0	; select bank0
  3567  0008  07B5               	addwf	_count,f
  3568  0009  3000               	movlw	0
  3569  000A  3DB6               	addwfc	_count+1,f
  3570  000B  3000               	movlw	0
  3571  000C  3DB7               	addwfc	_count+2,f
  3572  000D  3000               	movlw	0
  3573  000E  3DB8               	addwfc	_count+3,f
  3574  000F  107E               	bcf	126,0	;clear compiler interrupt flag (level 1)
  3575  0010  0009               	retfie
  3576  0011                     __end_of_timer0ISR:	
  3577  007E                     btemp	set	126	;btemp
  3578  007E                     int$flags	set	126
  3579  007E                     wtemp0	set	126


Data Sizes:
    Strings     0
    Constant    0
    Data        2
    BSS         26
    Persistent  32
    Stack       0

Auto Spaces:
    Space          Size  Autos    Used
    COMMON           14     11      14
    BANK0            80      0      25
    BANK1            80      0       0
    BANK2            80      0       0
    BANK3            80      0       0
    BANK4            80      0       0
    BANK5            80      0       0
    BANK6            80      0       0
    BANK7            80      0       0
    BANK8            80      0       0
    BANK9            80      0       0
    BANK10           80      0       0
    BANK11           80      0       0
    BANK12           80      0       0
    BANK13           80      0       0
    BANK14           80      0       0
    BANK15           80      0       0
    BANK16           80      0       0
    BANK17           80      0       0
    BANK18           80      0       0
    BANK19           80      0       0
    BANK20           80      0       0
    BANK21           80      0       0
    BANK22           80      0       0
    BANK23           80      0       0
    BANK24           80      0       0
    BANK25           32      0       0

Pointer List with Targets:

    defineGPIODirection@output	PTR enum E11183 size(1) Largest target is 1
		 -> main@output(COMMON[1]), 

    defineGPIODirection@input	PTR enum E11183 size(1) Largest target is 1
		 -> main@input(COMMON[1]), 


Critical Paths under _main in COMMON

    _main->_defineGPIODirection

Critical Paths under _timer0ISR in COMMON

    None.

Critical Paths under _main in BANK0

    None.

Critical Paths under _timer0ISR in BANK0

    None.

Critical Paths under _main in BANK1

    None.

Critical Paths under _timer0ISR in BANK1

    None.

Critical Paths under _main in BANK2

    None.

Critical Paths under _timer0ISR in BANK2

    None.

Critical Paths under _main in BANK3

    None.

Critical Paths under _timer0ISR in BANK3

    None.

Critical Paths under _main in BANK4

    None.

Critical Paths under _timer0ISR in BANK4

    None.

Critical Paths under _main in BANK5

    None.

Critical Paths under _timer0ISR in BANK5

    None.

Critical Paths under _main in BANK6

    None.

Critical Paths under _timer0ISR in BANK6

    None.

Critical Paths under _main in BANK7

    None.

Critical Paths under _timer0ISR in BANK7

    None.

Critical Paths under _main in BANK8

    None.

Critical Paths under _timer0ISR in BANK8

    None.

Critical Paths under _main in BANK9

    None.

Critical Paths under _timer0ISR in BANK9

    None.

Critical Paths under _main in BANK10

    None.

Critical Paths under _timer0ISR in BANK10

    None.

Critical Paths under _main in BANK11

    None.

Critical Paths under _timer0ISR in BANK11

    None.

Critical Paths under _main in BANK12

    None.

Critical Paths under _timer0ISR in BANK12

    None.

Critical Paths under _main in BANK13

    None.

Critical Paths under _timer0ISR in BANK13

    None.

Critical Paths under _main in BANK14

    None.

Critical Paths under _timer0ISR in BANK14

    None.

Critical Paths under _main in BANK15

    None.

Critical Paths under _timer0ISR in BANK15

    None.

Critical Paths under _main in BANK16

    None.

Critical Paths under _timer0ISR in BANK16

    None.

Critical Paths under _main in BANK17

    None.

Critical Paths under _timer0ISR in BANK17

    None.

Critical Paths under _main in BANK18

    None.

Critical Paths under _timer0ISR in BANK18

    None.

Critical Paths under _main in BANK19

    None.

Critical Paths under _timer0ISR in BANK19

    None.

Critical Paths under _main in BANK20

    None.

Critical Paths under _timer0ISR in BANK20

    None.

Critical Paths under _main in BANK21

    None.

Critical Paths under _timer0ISR in BANK21

    None.

Critical Paths under _main in BANK22

    None.

Critical Paths under _timer0ISR in BANK22

    None.

Critical Paths under _main in BANK23

    None.

Critical Paths under _timer0ISR in BANK23

    None.

Critical Paths under _main in BANK24

    None.

Critical Paths under _timer0ISR in BANK24

    None.

Critical Paths under _main in BANK25

    None.

Critical Paths under _timer0ISR in BANK25

    None.

Call Graph Tables:

 ---------------------------------------------------------------------------------
 (Depth) Function   	        Calls       Base Space   Used Autos Params    Refs
 ---------------------------------------------------------------------------------
 (0) _main                                                 3     3      0    1426
                                              8 COMMON     3     3      0
                _defineGPIODirection
                            _readPin
                           _writePin
 ---------------------------------------------------------------------------------
 (1) _writePin                                             4     3      1     922
                                              0 COMMON     4     3      1
 ---------------------------------------------------------------------------------
 (1) _readPin                                              3     3      0      15
                                              0 COMMON     3     3      0
 ---------------------------------------------------------------------------------
 (1) _defineGPIODirection                                  8     5      3     441
                                              0 COMMON     8     5      3
 ---------------------------------------------------------------------------------
 Estimated maximum stack depth 1
 ---------------------------------------------------------------------------------
 (Depth) Function   	        Calls       Base Space   Used Autos Params    Refs
 ---------------------------------------------------------------------------------
 (2) _timer0ISR                                            0     0      0       0
 ---------------------------------------------------------------------------------
 Estimated maximum stack depth 2
 ---------------------------------------------------------------------------------

 Call Graph Graphs:

 _main (ROOT)
   _defineGPIODirection
   _readPin
   _writePin

 _timer0ISR (ROOT)

 Address spaces:
Name               Size   Autos  Total    Cost      Usage
BIGRAM             7F0      0       0       0        0.0%
EEDATA             100      0       0       0        0.0%
NULL                 0      0       0       0        0.0%
CODE                 0      0       0       0        0.0%
BITCOMMON            E      0       0       1        0.0%
BITSFR0              0      0       0       1        0.0%
SFR0                 0      0       0       1        0.0%
COMMON               E      B       E       2      100.0%
BITSFR1              0      0       0       2        0.0%
SFR1                 0      0       0       2        0.0%
BITSFR2              0      0       0       3        0.0%
SFR2                 0      0       0       3        0.0%
STACK                0      0       0       3        0.0%
BITBANK0            50      0       0       4        0.0%
BITSFR3              0      0       0       4        0.0%
SFR3                 0      0       0       4        0.0%
BANK0               50      0      19       5       31.3%
BITSFR4              0      0       0       5        0.0%
SFR4                 0      0       0       5        0.0%
BITSFR5              0      0       0       6        0.0%
SFR5                 0      0       0       6        0.0%
ABS                  0      0      27       6        0.0%
BITBANK1            50      0       0       7        0.0%
BITSFR6              0      0       0       7        0.0%
SFR6                 0      0       0       7        0.0%
BANK1               50      0       0       8        0.0%
BITSFR7              0      0       0       8        0.0%
SFR7                 0      0       0       8        0.0%
BITBANK2            50      0       0       9        0.0%
BITSFR8              0      0       0       9        0.0%
SFR8                 0      0       0       9        0.0%
BANK2               50      0       0      10        0.0%
BITSFR9              0      0       0      10        0.0%
SFR9                 0      0       0      10        0.0%
BITBANK3            50      0       0      11        0.0%
BITSFR10             0      0       0      11        0.0%
SFR10                0      0       0      11        0.0%
BANK3               50      0       0      12        0.0%
BITSFR11             0      0       0      12        0.0%
SFR11                0      0       0      12        0.0%
BITBANK4            50      0       0      13        0.0%
BITSFR12             0      0       0      13        0.0%
SFR12                0      0       0      13        0.0%
BANK4               50      0       0      14        0.0%
BITSFR13             0      0       0      14        0.0%
SFR13                0      0       0      14        0.0%
BITBANK5            50      0       0      15        0.0%
BITSFR14             0      0       0      15        0.0%
SFR14                0      0       0      15        0.0%
BANK5               50      0       0      16        0.0%
BITSFR15             0      0       0      16        0.0%
SFR15                0      0       0      16        0.0%
BITBANK6            50      0       0      17        0.0%
BITSFR16             0      0       0      17        0.0%
SFR16                0      0       0      17        0.0%
BANK6               50      0       0      18        0.0%
BITSFR17             0      0       0      18        0.0%
SFR17                0      0       0      18        0.0%
BITBANK7            50      0       0      19        0.0%
BITSFR18             0      0       0      19        0.0%
SFR18                0      0       0      19        0.0%
BANK7               50      0       0      20        0.0%
BITSFR19             0      0       0      20        0.0%
SFR19                0      0       0      20        0.0%
BITBANK8            50      0       0      21        0.0%
BITSFR20             0      0       0      21        0.0%
SFR20                0      0       0      21        0.0%
BANK8               50      0       0      22        0.0%
BITSFR21             0      0       0      22        0.0%
SFR21                0      0       0      22        0.0%
BITBANK9            50      0       0      23        0.0%
BITSFR22             0      0       0      23        0.0%
SFR22                0      0       0      23        0.0%
BANK9               50      0       0      24        0.0%
BITSFR23             0      0       0      24        0.0%
SFR23                0      0       0      24        0.0%
BITBANK10           50      0       0      25        0.0%
BITSFR24             0      0       0      25        0.0%
SFR24                0      0       0      25        0.0%
BANK10              50      0       0      26        0.0%
BITSFR25             0      0       0      26        0.0%
SFR25                0      0       0      26        0.0%
BITBANK11           50      0       0      27        0.0%
BITSFR26             0      0       0      27        0.0%
SFR26                0      0       0      27        0.0%
BANK11              50      0       0      28        0.0%
BITSFR27             0      0       0      28        0.0%
SFR27                0      0       0      28        0.0%
BITBANK12           50      0       0      29        0.0%
BITSFR28             0      0       0      29        0.0%
SFR28                0      0       0      29        0.0%
BANK12              50      0       0      30        0.0%
BITSFR29             0      0       0      30        0.0%
SFR29                0      0       0      30        0.0%
BITBANK13           50      0       0      31        0.0%
BITSFR30             0      0       0      31        0.0%
SFR30                0      0       0      31        0.0%
BANK13              50      0       0      32        0.0%
BITSFR31             0      0       0      32        0.0%
SFR31                0      0       0      32        0.0%
BITBANK14           50      0       0      33        0.0%
BITSFR32             0      0       0      33        0.0%
SFR32                0      0       0      33        0.0%
BANK14              50      0       0      34        0.0%
BITSFR33             0      0       0      34        0.0%
SFR33                0      0       0      34        0.0%
BITBANK15           50      0       0      35        0.0%
BITSFR34             0      0       0      35        0.0%
SFR34                0      0       0      35        0.0%
BANK15              50      0       0      36        0.0%
BITSFR35             0      0       0      36        0.0%
SFR35                0      0       0      36        0.0%
BITBANK16           50      0       0      37        0.0%
BITSFR36             0      0       0      37        0.0%
SFR36                0      0       0      37        0.0%
BANK16              50      0       0      38        0.0%
BITSFR37             0      0       0      38        0.0%
SFR37                0      0       0      38        0.0%
BITBANK17           50      0       0      39        0.0%
BITSFR38             0      0       0      39        0.0%
SFR38                0      0       0      39        0.0%
BANK17              50      0       0      40        0.0%
BITSFR39             0      0       0      40        0.0%
SFR39                0      0       0      40        0.0%
BITBANK18           50      0       0      41        0.0%
BITSFR40             0      0       0      41        0.0%
SFR40                0      0       0      41        0.0%
BANK18              50      0       0      42        0.0%
BITSFR41             0      0       0      42        0.0%
SFR41                0      0       0      42        0.0%
BITBANK19           50      0       0      43        0.0%
BITSFR42             0      0       0      43        0.0%
SFR42                0      0       0      43        0.0%
BANK19              50      0       0      44        0.0%
BITSFR43             0      0       0      44        0.0%
SFR43                0      0       0      44        0.0%
BITBANK20           50      0       0      45        0.0%
BITSFR44             0      0       0      45        0.0%
SFR44                0      0       0      45        0.0%
BANK20              50      0       0      46        0.0%
BITSFR45             0      0       0      46        0.0%
SFR45                0      0       0      46        0.0%
BITBANK21           50      0       0      47        0.0%
BITSFR46             0      0       0      47        0.0%
SFR46                0      0       0      47        0.0%
BANK21              50      0       0      48        0.0%
BITSFR47             0      0       0      48        0.0%
SFR47                0      0       0      48        0.0%
BITBANK22           50      0       0      49        0.0%
BITSFR48             0      0       0      49        0.0%
SFR48                0      0       0      49        0.0%
BANK22              50      0       0      50        0.0%
BITSFR49             0      0       0      50        0.0%
SFR49                0      0       0      50        0.0%
BITBANK23           50      0       0      51        0.0%
BITSFR50             0      0       0      51        0.0%
SFR50                0      0       0      51        0.0%
BANK23              50      0       0      52        0.0%
BITSFR51             0      0       0      52        0.0%
SFR51                0      0       0      52        0.0%
BITBANK24           50      0       0      53        0.0%
BITSFR52             0      0       0      53        0.0%
SFR52                0      0       0      53        0.0%
BANK24              50      0       0      54        0.0%
BITSFR53             0      0       0      54        0.0%
SFR53                0      0       0      54        0.0%
BITBANK25           20      0       0      55        0.0%
BITSFR54             0      0       0      55        0.0%
SFR54                0      0       0      55        0.0%
BANK25              20      0       0      56        0.0%
BITSFR55             0      0       0      56        0.0%
SFR55                0      0       0      56        0.0%
BITSFR56             0      0       0      57        0.0%
SFR56                0      0       0      57        0.0%
DATA                 0      0      27      57        0.0%
BITSFR57             0      0       0      58        0.0%
SFR57                0      0       0      58        0.0%
BITSFR58             0      0       0      59        0.0%
SFR58                0      0       0      59        0.0%
BITSFR59             0      0       0      60        0.0%
SFR59                0      0       0      60        0.0%
BITSFR60             0      0       0      61        0.0%
SFR60                0      0       0      61        0.0%
BITSFR61             0      0       0      62        0.0%
SFR61                0      0       0      62        0.0%
BITSFR62             0      0       0      63        0.0%
SFR62                0      0       0      63        0.0%
BITSFR63             0      0       0      64        0.0%
SFR63                0      0       0      64        0.0%


Microchip Technology PIC Macro Assembler V2.05 build -831301201 
Symbol Table                                                                                   Sun Mar 29 00:12:57 2020

                             l70 0030                               l71 0036                               l80 006C  
                             l72 003C                               l81 0072                               l73 0042  
                             l90 00DD                               l82 0078                               l74 0048  
                             l83 007E                               l75 004E                               l92 00E0  
                             l84 0084                               l76 0054                               l68 002A  
                             l93 00E3                               l85 008A                               l77 005A  
                             l94 00E6                               l78 0060                               l95 00E9  
                             l79 0066                               l96 00EC                               l97 00EF  
                             l98 00F2                               l99 00F5                              l100 00F8  
                            l101 00FB                              l102 00FE                              l103 0101  
                            l104 0104                              l105 0107                              l106 010A  
                            l114 02E7                              l107 010D                              l153 0255  
                            l830 0265                              l822 025C                              l850 027D  
                            l842 0272                              l834 0269                              l826 0260  
                            l818 0258                              l870 0296                              l862 028A  
                            l854 0282                              l846 0277                              l838 026E  
                            l882 02A5                              l874 029A                              l866 028F  
                            l858 0286                              l878 029F                              l888 02AA  
                            wreg 0009                             l1110 0168                             l1130 019F  
                           l1122 0189                             l1114 0173                             l1106 015D  
                           l1150 01D6                             l1142 01C0                             l1134 01AA  
                           l1126 0194                             l1118 017E                             l1082 008F  
                           l1170 020D                             l1162 01F7                             l1154 01E1  
                           l1146 01CB                             l1138 01B5                             l1092 010F  
                           l1084 0093                             l1094 0113                             l1086 00DB  
                           l1166 0202                             l1158 01EC                             l1280 0125  
                           l1176 0218                             l1274 0220                             l1186 0303  
                           l1276 02B2                             l1188 02FD                             l1278 00A5  
                           _main 02E8                             fsr0h 0005                             fsr1h 0007  
                           indf0 0000                             fsr0l 0004                             indf1 0001  
                           fsr1l 0006                             btemp 007E                             start 0011  
                          ?_main 0070                    __CFG_WDTE$OFF 0000                            _TMR0H 059D  
 defineGPIODirection@inputLength 0071                            _count 0035                  __end_of_readPin 02E8  
                          _state 007D                            wtemp0 007E                  __initialization 0013  
                   __end_of_main 030C                           ??_main 0078                      readPin@read 0072  
                      ??_readPin 0070                     __pdataCOMMON 007B                 __end_of_writePin 0256  
        __end_of__initialization 0023                   __pcstackCOMMON 0070                       __pbssBANK0 0020  
   __size_of_defineGPIODirection 0134                       __pmaintext 02E8                       __pintentry 0004  
             __size_of_timer0ISR 000D                          __ptext1 015B                          __ptext2 0256  
                        __ptext3 0027                        ?_writePin 0070                          _readPin 0256  
                        clrloop0 030D             end_of_initialization 0023                __end_of_timer0ISR 0011  
                     main@F11223 007C                       main@F11225 007B                        _PORTAbits 000C  
                      _PORTBbits 000D                       ??_writePin 0071                        _PORTCbits 000E  
       defineGPIODirection@input 0076                        _TRISAbits 0012                        _TRISBbits 0013  
                      _TRISCbits 0014                       main@output 007A                    __pidataCOMMON 0312  
defineGPIODirection@outputLength 0072              _defineGPIODirection 0027              start_initialization 0013  
      defineGPIODirection@output 0070             ?_defineGPIODirection 0070                      __pbssCOMMON 007D  
                      ___latbits 0003            ??_defineGPIODirection 0073                         ?_readPin 0070  
              __size_of_writePin 00FB                        _pinStates 0020                         _LATAbits 0018  
                       _LATBbits 0019                         _LATCbits 001A                        clear_ram0 030C  
                       _PIE0bits 0716                        _timer0ISR 0004                         _WPUAbits 1F39  
                       _WPUBbits 1F44                         _WPUCbits 1F4F                        main@input 0079  
           defineGPIODirection@i 0077                       ?_timer0ISR 0070                    _timeTurnedOff 0031  
                     _ANSELAbits 1F38                       _ANSELBbits 1F43                       _ANSELCbits 1F4E  
                     _T0CON0bits 059E                       _T0CON1bits 059F                 __size_of_readPin 0092  
                  __size_of_main 0024                         int$flags 007E                         _writePin 015B  
                     _INTCONbits 000B                         intlevel1 0000                      ??_timer0ISR 0070  
    __end_of_defineGPIODirection 015B                    writePin@value 0070                    writePin@write 0073  
