

Microchip MPLAB XC8 Assembler V2.05 build -831301201 
                                                                                               Mon Mar 30 11:55:47 2020

Microchip MPLAB XC8 C Compiler v2.05 (Free license) build 20181220022703 Og1 
     1                           	processor	16F18446
     2                           	opt	pw 120
     3                           	opt	flic
     4                           	psect	idataBANK0,global,class=CODE,delta=2
     5                           	psect	idataBANK1,global,class=CODE,delta=2
     6                           	psect	cinit,global,class=CODE,merge=1,delta=2
     7                           	psect	bssCOMMON,global,class=COMMON,space=1,delta=1
     8                           	psect	bssBANK0,global,class=BANK0,space=1,delta=1
     9                           	psect	dataBANK0,global,class=BANK0,space=1,delta=1
    10                           	psect	bssBANK1,global,class=BANK1,space=1,delta=1
    11                           	psect	dataBANK1,global,class=BANK1,space=1,delta=1
    12                           	psect	inittext,global,class=CODE,delta=2
    13                           	psect	clrtext,global,class=CODE,delta=2
    14                           	psect	cstackCOMMON,global,class=COMMON,space=1,delta=1
    15                           	psect	cstackBANK0,global,class=BANK0,space=1,delta=1
    16                           	psect	maintext,global,class=CODE,merge=1,split=1,delta=2
    17                           	psect	text1,local,class=CODE,merge=1,delta=2
    18                           	psect	text2,local,class=CODE,merge=1,delta=2
    19                           	psect	text3,local,class=CODE,merge=1,delta=2,group=2
    20                           	psect	text4,local,class=CODE,merge=1,delta=2,group=1
    21                           	psect	text5,local,class=CODE,merge=1,delta=2,group=1
    22                           	psect	text6,local,class=CODE,merge=1,delta=2
    23                           	psect	text7,local,class=CODE,merge=1,delta=2
    24                           	psect	intentry,global,class=CODE,delta=2
    25                           	dabs	1,0x7E,2
    26  0000                     
    27                           ; Version 2.05
    28                           ; Generated 20/12/2018 GMT
    29                           ; 
    30                           ; Copyright © 2018, Microchip Technology Inc. and its subsidiaries ("Microchip")
    31                           ; All rights reserved.
    32                           ; 
    33                           ; This software is developed by Microchip Technology Inc. and its subsidiaries ("Microch
      +                          ip").
    34                           ; 
    35                           ; Redistribution and use in source and binary forms, with or without modification, are
    36                           ; permitted provided that the following conditions are met:
    37                           ; 
    38                           ;     1. Redistributions of source code must retain the above copyright notice, this lis
      +                          t of
    39                           ;        conditions and the following disclaimer.
    40                           ; 
    41                           ;     2. Redistributions in binary form must reproduce the above copyright notice, this 
      +                          list
    42                           ;        of conditions and the following disclaimer in the documentation and/or other
    43                           ;        materials provided with the distribution.
    44                           ; 
    45                           ;     3. Microchip's name may not be used to endorse or promote products derived from th
      +                          is
    46                           ;        software without specific prior written permission.
    47                           ; 
    48                           ; THIS SOFTWARE IS PROVIDED BY MICROCHIP "AS IS" AND ANY EXPRESS OR IMPLIED WARRANTIES,
    49                           ; INCLUDING, BUT NOT LIMITED TO, THE IMPLIED WARRANTIES OF MERCHANTABILITY AND FITNESS F
      +                          OR
    50                           ; PURPOSE ARE DISCLAIMED.  IN NO EVENT SHALL MICROCHIP BE LIABLE FOR ANY DIRECT, INDIREC
      +                          T,
    51                           ; INCIDENTAL, SPECIAL, EXEMPLARY, OR CONSEQUENTIAL DAMAGES (INCLUDING BUT NOT LIMITED TO
    52                           ; PROCUREMENT OF SUBSTITUTE GOODS OR SERVICES; LOSS OF USE, DATA OR PROFITS; OR BUSINESS
    53                           ; INTERRUPTION) HOWSOEVER CAUSED AND ON ANY THEORY OF LIABILITY, WHETHER IN CONTRACT, ST
      +                          RICT
    54                           ; LIABILITY, OR TORT (INCLUDING NEGLIGENCE OR OTHERWISE) ARISING IN ANY WAY OUT OF THE U
      +                          SE OF
    55                           ; THIS SOFTWARE, EVEN IF ADVISED OF THE POSSIBILITY OF SUCH DAMAGE.
    56                           ; 
    57                           ; 
    58                           ; Code-generator required, PIC16F18446 Definitions
    59                           ; 
    60                           ; SFR Addresses
    61  0000                     	;# 
    62  0001                     	;# 
    63  0002                     	;# 
    64  0003                     	;# 
    65  0004                     	;# 
    66  0005                     	;# 
    67  0006                     	;# 
    68  0007                     	;# 
    69  0008                     	;# 
    70  0009                     	;# 
    71  000A                     	;# 
    72  000B                     	;# 
    73  000C                     	;# 
    74  000D                     	;# 
    75  000E                     	;# 
    76  0012                     	;# 
    77  0013                     	;# 
    78  0014                     	;# 
    79  0018                     	;# 
    80  0019                     	;# 
    81  001A                     	;# 
    82  008C                     	;# 
    83  008C                     	;# 
    84  008D                     	;# 
    85  008E                     	;# 
    86  008E                     	;# 
    87  008F                     	;# 
    88  0090                     	;# 
    89  0090                     	;# 
    90  0091                     	;# 
    91  0092                     	;# 
    92  0092                     	;# 
    93  0093                     	;# 
    94  0094                     	;# 
    95  0094                     	;# 
    96  0095                     	;# 
    97  0096                     	;# 
    98  0096                     	;# 
    99  0097                     	;# 
   100  0098                     	;# 
   101  0099                     	;# 
   102  009A                     	;# 
   103  009B                     	;# 
   104  009B                     	;# 
   105  009C                     	;# 
   106  009D                     	;# 
   107  009D                     	;# 
   108  009E                     	;# 
   109  009F                     	;# 
   110  010C                     	;# 
   111  010C                     	;# 
   112  010D                     	;# 
   113  010E                     	;# 
   114  010F                     	;# 
   115  010F                     	;# 
   116  0110                     	;# 
   117  0111                     	;# 
   118  0112                     	;# 
   119  0113                     	;# 
   120  0114                     	;# 
   121  0115                     	;# 
   122  0116                     	;# 
   123  0117                     	;# 
   124  0118                     	;# 
   125  0119                     	;# 
   126  0119                     	;# 
   127  0119                     	;# 
   128  011A                     	;# 
   129  011A                     	;# 
   130  011A                     	;# 
   131  011B                     	;# 
   132  011B                     	;# 
   133  011B                     	;# 
   134  011B                     	;# 
   135  011B                     	;# 
   136  011C                     	;# 
   137  011C                     	;# 
   138  011C                     	;# 
   139  011D                     	;# 
   140  011D                     	;# 
   141  011D                     	;# 
   142  011E                     	;# 
   143  011E                     	;# 
   144  011E                     	;# 
   145  011F                     	;# 
   146  011F                     	;# 
   147  011F                     	;# 
   148  011F                     	;# 
   149  011F                     	;# 
   150  018C                     	;# 
   151  018D                     	;# 
   152  018E                     	;# 
   153  018F                     	;# 
   154  0190                     	;# 
   155  0191                     	;# 
   156  0192                     	;# 
   157  0196                     	;# 
   158  0197                     	;# 
   159  0198                     	;# 
   160  0199                     	;# 
   161  019A                     	;# 
   162  019B                     	;# 
   163  019C                     	;# 
   164  020C                     	;# 
   165  020D                     	;# 
   166  020E                     	;# 
   167  020E                     	;# 
   168  020F                     	;# 
   169  020F                     	;# 
   170  0210                     	;# 
   171  0210                     	;# 
   172  0211                     	;# 
   173  0211                     	;# 
   174  0212                     	;# 
   175  0213                     	;# 
   176  0214                     	;# 
   177  0214                     	;# 
   178  0215                     	;# 
   179  0215                     	;# 
   180  0216                     	;# 
   181  0216                     	;# 
   182  0217                     	;# 
   183  0217                     	;# 
   184  0218                     	;# 
   185  0219                     	;# 
   186  021A                     	;# 
   187  021A                     	;# 
   188  021B                     	;# 
   189  021B                     	;# 
   190  021C                     	;# 
   191  021C                     	;# 
   192  021D                     	;# 
   193  021D                     	;# 
   194  021E                     	;# 
   195  021F                     	;# 
   196  028C                     	;# 
   197  028C                     	;# 
   198  028D                     	;# 
   199  028D                     	;# 
   200  028E                     	;# 
   201  028F                     	;# 
   202  0290                     	;# 
   203  0291                     	;# 
   204  0292                     	;# 
   205  0292                     	;# 
   206  0293                     	;# 
   207  0293                     	;# 
   208  0294                     	;# 
   209  0295                     	;# 
   210  0296                     	;# 
   211  0297                     	;# 
   212  0298                     	;# 
   213  0298                     	;# 
   214  0299                     	;# 
   215  0299                     	;# 
   216  029A                     	;# 
   217  029B                     	;# 
   218  029C                     	;# 
   219  029D                     	;# 
   220  029F                     	;# 
   221  030C                     	;# 
   222  030C                     	;# 
   223  030D                     	;# 
   224  030E                     	;# 
   225  030F                     	;# 
   226  0310                     	;# 
   227  0310                     	;# 
   228  0311                     	;# 
   229  0312                     	;# 
   230  0313                     	;# 
   231  0314                     	;# 
   232  0314                     	;# 
   233  0315                     	;# 
   234  0316                     	;# 
   235  0317                     	;# 
   236  0318                     	;# 
   237  0318                     	;# 
   238  0319                     	;# 
   239  031A                     	;# 
   240  031B                     	;# 
   241  038C                     	;# 
   242  038C                     	;# 
   243  038D                     	;# 
   244  038E                     	;# 
   245  0390                     	;# 
   246  0390                     	;# 
   247  0391                     	;# 
   248  0392                     	;# 
   249  048C                     	;# 
   250  048C                     	;# 
   251  048D                     	;# 
   252  048E                     	;# 
   253  048F                     	;# 
   254  048F                     	;# 
   255  0490                     	;# 
   256  0491                     	;# 
   257  0492                     	;# 
   258  0492                     	;# 
   259  0493                     	;# 
   260  0494                     	;# 
   261  0495                     	;# 
   262  0495                     	;# 
   263  0496                     	;# 
   264  0497                     	;# 
   265  0498                     	;# 
   266  0499                     	;# 
   267  049A                     	;# 
   268  049B                     	;# 
   269  049C                     	;# 
   270  049D                     	;# 
   271  058C                     	;# 
   272  058C                     	;# 
   273  058D                     	;# 
   274  058E                     	;# 
   275  058F                     	;# 
   276  058F                     	;# 
   277  0590                     	;# 
   278  0591                     	;# 
   279  0592                     	;# 
   280  0593                     	;# 
   281  059C                     	;# 
   282  059C                     	;# 
   283  059D                     	;# 
   284  059D                     	;# 
   285  059E                     	;# 
   286  059F                     	;# 
   287  060C                     	;# 
   288  060C                     	;# 
   289  060D                     	;# 
   290  060D                     	;# 
   291  060E                     	;# 
   292  060F                     	;# 
   293  0610                     	;# 
   294  0611                     	;# 
   295  0612                     	;# 
   296  0613                     	;# 
   297  0614                     	;# 
   298  0616                     	;# 
   299  0616                     	;# 
   300  0617                     	;# 
   301  0617                     	;# 
   302  0618                     	;# 
   303  0619                     	;# 
   304  061A                     	;# 
   305  061B                     	;# 
   306  061C                     	;# 
   307  061D                     	;# 
   308  061E                     	;# 
   309  070C                     	;# 
   310  070D                     	;# 
   311  070E                     	;# 
   312  070F                     	;# 
   313  0710                     	;# 
   314  0711                     	;# 
   315  0712                     	;# 
   316  0713                     	;# 
   317  0714                     	;# 
   318  0716                     	;# 
   319  0717                     	;# 
   320  0718                     	;# 
   321  0719                     	;# 
   322  071A                     	;# 
   323  071B                     	;# 
   324  071C                     	;# 
   325  071D                     	;# 
   326  071E                     	;# 
   327  0796                     	;# 
   328  0797                     	;# 
   329  0798                     	;# 
   330  0799                     	;# 
   331  079A                     	;# 
   332  079B                     	;# 
   333  079C                     	;# 
   334  079D                     	;# 
   335  080C                     	;# 
   336  080D                     	;# 
   337  080E                     	;# 
   338  080F                     	;# 
   339  0810                     	;# 
   340  0811                     	;# 
   341  0812                     	;# 
   342  0813                     	;# 
   343  0814                     	;# 
   344  081A                     	;# 
   345  081A                     	;# 
   346  081B                     	;# 
   347  081C                     	;# 
   348  081C                     	;# 
   349  081D                     	;# 
   350  081E                     	;# 
   351  081F                     	;# 
   352  088C                     	;# 
   353  088D                     	;# 
   354  088E                     	;# 
   355  088F                     	;# 
   356  0890                     	;# 
   357  0891                     	;# 
   358  0892                     	;# 
   359  0893                     	;# 
   360  0895                     	;# 
   361  0896                     	;# 
   362  0897                     	;# 
   363  0898                     	;# 
   364  0899                     	;# 
   365  089A                     	;# 
   366  089B                     	;# 
   367  090C                     	;# 
   368  090E                     	;# 
   369  090F                     	;# 
   370  091F                     	;# 
   371  098F                     	;# 
   372  098F                     	;# 
   373  0990                     	;# 
   374  0991                     	;# 
   375  0992                     	;# 
   376  0993                     	;# 
   377  0994                     	;# 
   378  0995                     	;# 
   379  0996                     	;# 
   380  0997                     	;# 
   381  1E0F                     	;# 
   382  1E10                     	;# 
   383  1E11                     	;# 
   384  1E12                     	;# 
   385  1E13                     	;# 
   386  1E14                     	;# 
   387  1E15                     	;# 
   388  1E16                     	;# 
   389  1E17                     	;# 
   390  1E18                     	;# 
   391  1E19                     	;# 
   392  1E1A                     	;# 
   393  1E1B                     	;# 
   394  1E1C                     	;# 
   395  1E1D                     	;# 
   396  1E1E                     	;# 
   397  1E1F                     	;# 
   398  1E20                     	;# 
   399  1E21                     	;# 
   400  1E22                     	;# 
   401  1E23                     	;# 
   402  1E24                     	;# 
   403  1E25                     	;# 
   404  1E26                     	;# 
   405  1E27                     	;# 
   406  1E28                     	;# 
   407  1E29                     	;# 
   408  1E2A                     	;# 
   409  1E2B                     	;# 
   410  1E2C                     	;# 
   411  1E2D                     	;# 
   412  1E2E                     	;# 
   413  1E2F                     	;# 
   414  1E30                     	;# 
   415  1E31                     	;# 
   416  1E32                     	;# 
   417  1E33                     	;# 
   418  1E34                     	;# 
   419  1E35                     	;# 
   420  1E36                     	;# 
   421  1E37                     	;# 
   422  1E8F                     	;# 
   423  1E90                     	;# 
   424  1E91                     	;# 
   425  1E92                     	;# 
   426  1E93                     	;# 
   427  1E94                     	;# 
   428  1E95                     	;# 
   429  1E96                     	;# 
   430  1E97                     	;# 
   431  1E9C                     	;# 
   432  1E9D                     	;# 
   433  1E9E                     	;# 
   434  1EA1                     	;# 
   435  1EA2                     	;# 
   436  1EA3                     	;# 
   437  1EA4                     	;# 
   438  1EA9                     	;# 
   439  1EAA                     	;# 
   440  1EB1                     	;# 
   441  1EB2                     	;# 
   442  1EB8                     	;# 
   443  1EB9                     	;# 
   444  1EBA                     	;# 
   445  1EBB                     	;# 
   446  1EBC                     	;# 
   447  1EBD                     	;# 
   448  1EBE                     	;# 
   449  1EC3                     	;# 
   450  1EC5                     	;# 
   451  1EC6                     	;# 
   452  1EC7                     	;# 
   453  1EC8                     	;# 
   454  1EC9                     	;# 
   455  1ECA                     	;# 
   456  1ECB                     	;# 
   457  1ECB                     	;# 
   458  1ECB                     	;# 
   459  1ECC                     	;# 
   460  1ECC                     	;# 
   461  1ECC                     	;# 
   462  1F10                     	;# 
   463  1F11                     	;# 
   464  1F12                     	;# 
   465  1F14                     	;# 
   466  1F15                     	;# 
   467  1F1C                     	;# 
   468  1F1D                     	;# 
   469  1F1E                     	;# 
   470  1F1F                     	;# 
   471  1F20                     	;# 
   472  1F21                     	;# 
   473  1F22                     	;# 
   474  1F23                     	;# 
   475  1F24                     	;# 
   476  1F25                     	;# 
   477  1F26                     	;# 
   478  1F27                     	;# 
   479  1F38                     	;# 
   480  1F39                     	;# 
   481  1F3A                     	;# 
   482  1F3B                     	;# 
   483  1F3C                     	;# 
   484  1F3D                     	;# 
   485  1F3E                     	;# 
   486  1F3F                     	;# 
   487  1F43                     	;# 
   488  1F44                     	;# 
   489  1F45                     	;# 
   490  1F46                     	;# 
   491  1F47                     	;# 
   492  1F48                     	;# 
   493  1F49                     	;# 
   494  1F4A                     	;# 
   495  1F4E                     	;# 
   496  1F4F                     	;# 
   497  1F50                     	;# 
   498  1F51                     	;# 
   499  1F52                     	;# 
   500  1F53                     	;# 
   501  1F54                     	;# 
   502  1F55                     	;# 
   503  1FE4                     	;# 
   504  1FE5                     	;# 
   505  1FE6                     	;# 
   506  1FE7                     	;# 
   507  1FE8                     	;# 
   508  1FE8                     	;# 
   509  1FE9                     	;# 
   510  1FEA                     	;# 
   511  1FEB                     	;# 
   512  1FED                     	;# 
   513  1FEE                     	;# 
   514  1FEF                     	;# 
   515  0000                     	;# 
   516  0001                     	;# 
   517  0002                     	;# 
   518  0003                     	;# 
   519  0004                     	;# 
   520  0005                     	;# 
   521  0006                     	;# 
   522  0007                     	;# 
   523  0008                     	;# 
   524  0009                     	;# 
   525  000A                     	;# 
   526  000B                     	;# 
   527  000C                     	;# 
   528  000D                     	;# 
   529  000E                     	;# 
   530  0012                     	;# 
   531  0013                     	;# 
   532  0014                     	;# 
   533  0018                     	;# 
   534  0019                     	;# 
   535  001A                     	;# 
   536  008C                     	;# 
   537  008C                     	;# 
   538  008D                     	;# 
   539  008E                     	;# 
   540  008E                     	;# 
   541  008F                     	;# 
   542  0090                     	;# 
   543  0090                     	;# 
   544  0091                     	;# 
   545  0092                     	;# 
   546  0092                     	;# 
   547  0093                     	;# 
   548  0094                     	;# 
   549  0094                     	;# 
   550  0095                     	;# 
   551  0096                     	;# 
   552  0096                     	;# 
   553  0097                     	;# 
   554  0098                     	;# 
   555  0099                     	;# 
   556  009A                     	;# 
   557  009B                     	;# 
   558  009B                     	;# 
   559  009C                     	;# 
   560  009D                     	;# 
   561  009D                     	;# 
   562  009E                     	;# 
   563  009F                     	;# 
   564  010C                     	;# 
   565  010C                     	;# 
   566  010D                     	;# 
   567  010E                     	;# 
   568  010F                     	;# 
   569  010F                     	;# 
   570  0110                     	;# 
   571  0111                     	;# 
   572  0112                     	;# 
   573  0113                     	;# 
   574  0114                     	;# 
   575  0115                     	;# 
   576  0116                     	;# 
   577  0117                     	;# 
   578  0118                     	;# 
   579  0119                     	;# 
   580  0119                     	;# 
   581  0119                     	;# 
   582  011A                     	;# 
   583  011A                     	;# 
   584  011A                     	;# 
   585  011B                     	;# 
   586  011B                     	;# 
   587  011B                     	;# 
   588  011B                     	;# 
   589  011B                     	;# 
   590  011C                     	;# 
   591  011C                     	;# 
   592  011C                     	;# 
   593  011D                     	;# 
   594  011D                     	;# 
   595  011D                     	;# 
   596  011E                     	;# 
   597  011E                     	;# 
   598  011E                     	;# 
   599  011F                     	;# 
   600  011F                     	;# 
   601  011F                     	;# 
   602  011F                     	;# 
   603  011F                     	;# 
   604  018C                     	;# 
   605  018D                     	;# 
   606  018E                     	;# 
   607  018F                     	;# 
   608  0190                     	;# 
   609  0191                     	;# 
   610  0192                     	;# 
   611  0196                     	;# 
   612  0197                     	;# 
   613  0198                     	;# 
   614  0199                     	;# 
   615  019A                     	;# 
   616  019B                     	;# 
   617  019C                     	;# 
   618  020C                     	;# 
   619  020D                     	;# 
   620  020E                     	;# 
   621  020E                     	;# 
   622  020F                     	;# 
   623  020F                     	;# 
   624  0210                     	;# 
   625  0210                     	;# 
   626  0211                     	;# 
   627  0211                     	;# 
   628  0212                     	;# 
   629  0213                     	;# 
   630  0214                     	;# 
   631  0214                     	;# 
   632  0215                     	;# 
   633  0215                     	;# 
   634  0216                     	;# 
   635  0216                     	;# 
   636  0217                     	;# 
   637  0217                     	;# 
   638  0218                     	;# 
   639  0219                     	;# 
   640  021A                     	;# 
   641  021A                     	;# 
   642  021B                     	;# 
   643  021B                     	;# 
   644  021C                     	;# 
   645  021C                     	;# 
   646  021D                     	;# 
   647  021D                     	;# 
   648  021E                     	;# 
   649  021F                     	;# 
   650  028C                     	;# 
   651  028C                     	;# 
   652  028D                     	;# 
   653  028D                     	;# 
   654  028E                     	;# 
   655  028F                     	;# 
   656  0290                     	;# 
   657  0291                     	;# 
   658  0292                     	;# 
   659  0292                     	;# 
   660  0293                     	;# 
   661  0293                     	;# 
   662  0294                     	;# 
   663  0295                     	;# 
   664  0296                     	;# 
   665  0297                     	;# 
   666  0298                     	;# 
   667  0298                     	;# 
   668  0299                     	;# 
   669  0299                     	;# 
   670  029A                     	;# 
   671  029B                     	;# 
   672  029C                     	;# 
   673  029D                     	;# 
   674  029F                     	;# 
   675  030C                     	;# 
   676  030C                     	;# 
   677  030D                     	;# 
   678  030E                     	;# 
   679  030F                     	;# 
   680  0310                     	;# 
   681  0310                     	;# 
   682  0311                     	;# 
   683  0312                     	;# 
   684  0313                     	;# 
   685  0314                     	;# 
   686  0314                     	;# 
   687  0315                     	;# 
   688  0316                     	;# 
   689  0317                     	;# 
   690  0318                     	;# 
   691  0318                     	;# 
   692  0319                     	;# 
   693  031A                     	;# 
   694  031B                     	;# 
   695  038C                     	;# 
   696  038C                     	;# 
   697  038D                     	;# 
   698  038E                     	;# 
   699  0390                     	;# 
   700  0390                     	;# 
   701  0391                     	;# 
   702  0392                     	;# 
   703  048C                     	;# 
   704  048C                     	;# 
   705  048D                     	;# 
   706  048E                     	;# 
   707  048F                     	;# 
   708  048F                     	;# 
   709  0490                     	;# 
   710  0491                     	;# 
   711  0492                     	;# 
   712  0492                     	;# 
   713  0493                     	;# 
   714  0494                     	;# 
   715  0495                     	;# 
   716  0495                     	;# 
   717  0496                     	;# 
   718  0497                     	;# 
   719  0498                     	;# 
   720  0499                     	;# 
   721  049A                     	;# 
   722  049B                     	;# 
   723  049C                     	;# 
   724  049D                     	;# 
   725  058C                     	;# 
   726  058C                     	;# 
   727  058D                     	;# 
   728  058E                     	;# 
   729  058F                     	;# 
   730  058F                     	;# 
   731  0590                     	;# 
   732  0591                     	;# 
   733  0592                     	;# 
   734  0593                     	;# 
   735  059C                     	;# 
   736  059C                     	;# 
   737  059D                     	;# 
   738  059D                     	;# 
   739  059E                     	;# 
   740  059F                     	;# 
   741  060C                     	;# 
   742  060C                     	;# 
   743  060D                     	;# 
   744  060D                     	;# 
   745  060E                     	;# 
   746  060F                     	;# 
   747  0610                     	;# 
   748  0611                     	;# 
   749  0612                     	;# 
   750  0613                     	;# 
   751  0614                     	;# 
   752  0616                     	;# 
   753  0616                     	;# 
   754  0617                     	;# 
   755  0617                     	;# 
   756  0618                     	;# 
   757  0619                     	;# 
   758  061A                     	;# 
   759  061B                     	;# 
   760  061C                     	;# 
   761  061D                     	;# 
   762  061E                     	;# 
   763  070C                     	;# 
   764  070D                     	;# 
   765  070E                     	;# 
   766  070F                     	;# 
   767  0710                     	;# 
   768  0711                     	;# 
   769  0712                     	;# 
   770  0713                     	;# 
   771  0714                     	;# 
   772  0716                     	;# 
   773  0717                     	;# 
   774  0718                     	;# 
   775  0719                     	;# 
   776  071A                     	;# 
   777  071B                     	;# 
   778  071C                     	;# 
   779  071D                     	;# 
   780  071E                     	;# 
   781  0796                     	;# 
   782  0797                     	;# 
   783  0798                     	;# 
   784  0799                     	;# 
   785  079A                     	;# 
   786  079B                     	;# 
   787  079C                     	;# 
   788  079D                     	;# 
   789  080C                     	;# 
   790  080D                     	;# 
   791  080E                     	;# 
   792  080F                     	;# 
   793  0810                     	;# 
   794  0811                     	;# 
   795  0812                     	;# 
   796  0813                     	;# 
   797  0814                     	;# 
   798  081A                     	;# 
   799  081A                     	;# 
   800  081B                     	;# 
   801  081C                     	;# 
   802  081C                     	;# 
   803  081D                     	;# 
   804  081E                     	;# 
   805  081F                     	;# 
   806  088C                     	;# 
   807  088D                     	;# 
   808  088E                     	;# 
   809  088F                     	;# 
   810  0890                     	;# 
   811  0891                     	;# 
   812  0892                     	;# 
   813  0893                     	;# 
   814  0895                     	;# 
   815  0896                     	;# 
   816  0897                     	;# 
   817  0898                     	;# 
   818  0899                     	;# 
   819  089A                     	;# 
   820  089B                     	;# 
   821  090C                     	;# 
   822  090E                     	;# 
   823  090F                     	;# 
   824  091F                     	;# 
   825  098F                     	;# 
   826  098F                     	;# 
   827  0990                     	;# 
   828  0991                     	;# 
   829  0992                     	;# 
   830  0993                     	;# 
   831  0994                     	;# 
   832  0995                     	;# 
   833  0996                     	;# 
   834  0997                     	;# 
   835  1E0F                     	;# 
   836  1E10                     	;# 
   837  1E11                     	;# 
   838  1E12                     	;# 
   839  1E13                     	;# 
   840  1E14                     	;# 
   841  1E15                     	;# 
   842  1E16                     	;# 
   843  1E17                     	;# 
   844  1E18                     	;# 
   845  1E19                     	;# 
   846  1E1A                     	;# 
   847  1E1B                     	;# 
   848  1E1C                     	;# 
   849  1E1D                     	;# 
   850  1E1E                     	;# 
   851  1E1F                     	;# 
   852  1E20                     	;# 
   853  1E21                     	;# 
   854  1E22                     	;# 
   855  1E23                     	;# 
   856  1E24                     	;# 
   857  1E25                     	;# 
   858  1E26                     	;# 
   859  1E27                     	;# 
   860  1E28                     	;# 
   861  1E29                     	;# 
   862  1E2A                     	;# 
   863  1E2B                     	;# 
   864  1E2C                     	;# 
   865  1E2D                     	;# 
   866  1E2E                     	;# 
   867  1E2F                     	;# 
   868  1E30                     	;# 
   869  1E31                     	;# 
   870  1E32                     	;# 
   871  1E33                     	;# 
   872  1E34                     	;# 
   873  1E35                     	;# 
   874  1E36                     	;# 
   875  1E37                     	;# 
   876  1E8F                     	;# 
   877  1E90                     	;# 
   878  1E91                     	;# 
   879  1E92                     	;# 
   880  1E93                     	;# 
   881  1E94                     	;# 
   882  1E95                     	;# 
   883  1E96                     	;# 
   884  1E97                     	;# 
   885  1E9C                     	;# 
   886  1E9D                     	;# 
   887  1E9E                     	;# 
   888  1EA1                     	;# 
   889  1EA2                     	;# 
   890  1EA3                     	;# 
   891  1EA4                     	;# 
   892  1EA9                     	;# 
   893  1EAA                     	;# 
   894  1EB1                     	;# 
   895  1EB2                     	;# 
   896  1EB8                     	;# 
   897  1EB9                     	;# 
   898  1EBA                     	;# 
   899  1EBB                     	;# 
   900  1EBC                     	;# 
   901  1EBD                     	;# 
   902  1EBE                     	;# 
   903  1EC3                     	;# 
   904  1EC5                     	;# 
   905  1EC6                     	;# 
   906  1EC7                     	;# 
   907  1EC8                     	;# 
   908  1EC9                     	;# 
   909  1ECA                     	;# 
   910  1ECB                     	;# 
   911  1ECB                     	;# 
   912  1ECB                     	;# 
   913  1ECC                     	;# 
   914  1ECC                     	;# 
   915  1ECC                     	;# 
   916  1F10                     	;# 
   917  1F11                     	;# 
   918  1F12                     	;# 
   919  1F14                     	;# 
   920  1F15                     	;# 
   921  1F1C                     	;# 
   922  1F1D                     	;# 
   923  1F1E                     	;# 
   924  1F1F                     	;# 
   925  1F20                     	;# 
   926  1F21                     	;# 
   927  1F22                     	;# 
   928  1F23                     	;# 
   929  1F24                     	;# 
   930  1F25                     	;# 
   931  1F26                     	;# 
   932  1F27                     	;# 
   933  1F38                     	;# 
   934  1F39                     	;# 
   935  1F3A                     	;# 
   936  1F3B                     	;# 
   937  1F3C                     	;# 
   938  1F3D                     	;# 
   939  1F3E                     	;# 
   940  1F3F                     	;# 
   941  1F43                     	;# 
   942  1F44                     	;# 
   943  1F45                     	;# 
   944  1F46                     	;# 
   945  1F47                     	;# 
   946  1F48                     	;# 
   947  1F49                     	;# 
   948  1F4A                     	;# 
   949  1F4E                     	;# 
   950  1F4F                     	;# 
   951  1F50                     	;# 
   952  1F51                     	;# 
   953  1F52                     	;# 
   954  1F53                     	;# 
   955  1F54                     	;# 
   956  1F55                     	;# 
   957  1FE4                     	;# 
   958  1FE5                     	;# 
   959  1FE6                     	;# 
   960  1FE7                     	;# 
   961  1FE8                     	;# 
   962  1FE8                     	;# 
   963  1FE9                     	;# 
   964  1FEA                     	;# 
   965  1FEB                     	;# 
   966  1FED                     	;# 
   967  1FEE                     	;# 
   968  1FEF                     	;# 
   969  0000                     	;# 
   970  0001                     	;# 
   971  0002                     	;# 
   972  0003                     	;# 
   973  0004                     	;# 
   974  0005                     	;# 
   975  0006                     	;# 
   976  0007                     	;# 
   977  0008                     	;# 
   978  0009                     	;# 
   979  000A                     	;# 
   980  000B                     	;# 
   981  000C                     	;# 
   982  000D                     	;# 
   983  000E                     	;# 
   984  0012                     	;# 
   985  0013                     	;# 
   986  0014                     	;# 
   987  0018                     	;# 
   988  0019                     	;# 
   989  001A                     	;# 
   990  008C                     	;# 
   991  008C                     	;# 
   992  008D                     	;# 
   993  008E                     	;# 
   994  008E                     	;# 
   995  008F                     	;# 
   996  0090                     	;# 
   997  0090                     	;# 
   998  0091                     	;# 
   999  0092                     	;# 
  1000  0092                     	;# 
  1001  0093                     	;# 
  1002  0094                     	;# 
  1003  0094                     	;# 
  1004  0095                     	;# 
  1005  0096                     	;# 
  1006  0096                     	;# 
  1007  0097                     	;# 
  1008  0098                     	;# 
  1009  0099                     	;# 
  1010  009A                     	;# 
  1011  009B                     	;# 
  1012  009B                     	;# 
  1013  009C                     	;# 
  1014  009D                     	;# 
  1015  009D                     	;# 
  1016  009E                     	;# 
  1017  009F                     	;# 
  1018  010C                     	;# 
  1019  010C                     	;# 
  1020  010D                     	;# 
  1021  010E                     	;# 
  1022  010F                     	;# 
  1023  010F                     	;# 
  1024  0110                     	;# 
  1025  0111                     	;# 
  1026  0112                     	;# 
  1027  0113                     	;# 
  1028  0114                     	;# 
  1029  0115                     	;# 
  1030  0116                     	;# 
  1031  0117                     	;# 
  1032  0118                     	;# 
  1033  0119                     	;# 
  1034  0119                     	;# 
  1035  0119                     	;# 
  1036  011A                     	;# 
  1037  011A                     	;# 
  1038  011A                     	;# 
  1039  011B                     	;# 
  1040  011B                     	;# 
  1041  011B                     	;# 
  1042  011B                     	;# 
  1043  011B                     	;# 
  1044  011C                     	;# 
  1045  011C                     	;# 
  1046  011C                     	;# 
  1047  011D                     	;# 
  1048  011D                     	;# 
  1049  011D                     	;# 
  1050  011E                     	;# 
  1051  011E                     	;# 
  1052  011E                     	;# 
  1053  011F                     	;# 
  1054  011F                     	;# 
  1055  011F                     	;# 
  1056  011F                     	;# 
  1057  011F                     	;# 
  1058  018C                     	;# 
  1059  018D                     	;# 
  1060  018E                     	;# 
  1061  018F                     	;# 
  1062  0190                     	;# 
  1063  0191                     	;# 
  1064  0192                     	;# 
  1065  0196                     	;# 
  1066  0197                     	;# 
  1067  0198                     	;# 
  1068  0199                     	;# 
  1069  019A                     	;# 
  1070  019B                     	;# 
  1071  019C                     	;# 
  1072  020C                     	;# 
  1073  020D                     	;# 
  1074  020E                     	;# 
  1075  020E                     	;# 
  1076  020F                     	;# 
  1077  020F                     	;# 
  1078  0210                     	;# 
  1079  0210                     	;# 
  1080  0211                     	;# 
  1081  0211                     	;# 
  1082  0212                     	;# 
  1083  0213                     	;# 
  1084  0214                     	;# 
  1085  0214                     	;# 
  1086  0215                     	;# 
  1087  0215                     	;# 
  1088  0216                     	;# 
  1089  0216                     	;# 
  1090  0217                     	;# 
  1091  0217                     	;# 
  1092  0218                     	;# 
  1093  0219                     	;# 
  1094  021A                     	;# 
  1095  021A                     	;# 
  1096  021B                     	;# 
  1097  021B                     	;# 
  1098  021C                     	;# 
  1099  021C                     	;# 
  1100  021D                     	;# 
  1101  021D                     	;# 
  1102  021E                     	;# 
  1103  021F                     	;# 
  1104  028C                     	;# 
  1105  028C                     	;# 
  1106  028D                     	;# 
  1107  028D                     	;# 
  1108  028E                     	;# 
  1109  028F                     	;# 
  1110  0290                     	;# 
  1111  0291                     	;# 
  1112  0292                     	;# 
  1113  0292                     	;# 
  1114  0293                     	;# 
  1115  0293                     	;# 
  1116  0294                     	;# 
  1117  0295                     	;# 
  1118  0296                     	;# 
  1119  0297                     	;# 
  1120  0298                     	;# 
  1121  0298                     	;# 
  1122  0299                     	;# 
  1123  0299                     	;# 
  1124  029A                     	;# 
  1125  029B                     	;# 
  1126  029C                     	;# 
  1127  029D                     	;# 
  1128  029F                     	;# 
  1129  030C                     	;# 
  1130  030C                     	;# 
  1131  030D                     	;# 
  1132  030E                     	;# 
  1133  030F                     	;# 
  1134  0310                     	;# 
  1135  0310                     	;# 
  1136  0311                     	;# 
  1137  0312                     	;# 
  1138  0313                     	;# 
  1139  0314                     	;# 
  1140  0314                     	;# 
  1141  0315                     	;# 
  1142  0316                     	;# 
  1143  0317                     	;# 
  1144  0318                     	;# 
  1145  0318                     	;# 
  1146  0319                     	;# 
  1147  031A                     	;# 
  1148  031B                     	;# 
  1149  038C                     	;# 
  1150  038C                     	;# 
  1151  038D                     	;# 
  1152  038E                     	;# 
  1153  0390                     	;# 
  1154  0390                     	;# 
  1155  0391                     	;# 
  1156  0392                     	;# 
  1157  048C                     	;# 
  1158  048C                     	;# 
  1159  048D                     	;# 
  1160  048E                     	;# 
  1161  048F                     	;# 
  1162  048F                     	;# 
  1163  0490                     	;# 
  1164  0491                     	;# 
  1165  0492                     	;# 
  1166  0492                     	;# 
  1167  0493                     	;# 
  1168  0494                     	;# 
  1169  0495                     	;# 
  1170  0495                     	;# 
  1171  0496                     	;# 
  1172  0497                     	;# 
  1173  0498                     	;# 
  1174  0499                     	;# 
  1175  049A                     	;# 
  1176  049B                     	;# 
  1177  049C                     	;# 
  1178  049D                     	;# 
  1179  058C                     	;# 
  1180  058C                     	;# 
  1181  058D                     	;# 
  1182  058E                     	;# 
  1183  058F                     	;# 
  1184  058F                     	;# 
  1185  0590                     	;# 
  1186  0591                     	;# 
  1187  0592                     	;# 
  1188  0593                     	;# 
  1189  059C                     	;# 
  1190  059C                     	;# 
  1191  059D                     	;# 
  1192  059D                     	;# 
  1193  059E                     	;# 
  1194  059F                     	;# 
  1195  060C                     	;# 
  1196  060C                     	;# 
  1197  060D                     	;# 
  1198  060D                     	;# 
  1199  060E                     	;# 
  1200  060F                     	;# 
  1201  0610                     	;# 
  1202  0611                     	;# 
  1203  0612                     	;# 
  1204  0613                     	;# 
  1205  0614                     	;# 
  1206  0616                     	;# 
  1207  0616                     	;# 
  1208  0617                     	;# 
  1209  0617                     	;# 
  1210  0618                     	;# 
  1211  0619                     	;# 
  1212  061A                     	;# 
  1213  061B                     	;# 
  1214  061C                     	;# 
  1215  061D                     	;# 
  1216  061E                     	;# 
  1217  070C                     	;# 
  1218  070D                     	;# 
  1219  070E                     	;# 
  1220  070F                     	;# 
  1221  0710                     	;# 
  1222  0711                     	;# 
  1223  0712                     	;# 
  1224  0713                     	;# 
  1225  0714                     	;# 
  1226  0716                     	;# 
  1227  0717                     	;# 
  1228  0718                     	;# 
  1229  0719                     	;# 
  1230  071A                     	;# 
  1231  071B                     	;# 
  1232  071C                     	;# 
  1233  071D                     	;# 
  1234  071E                     	;# 
  1235  0796                     	;# 
  1236  0797                     	;# 
  1237  0798                     	;# 
  1238  0799                     	;# 
  1239  079A                     	;# 
  1240  079B                     	;# 
  1241  079C                     	;# 
  1242  079D                     	;# 
  1243  080C                     	;# 
  1244  080D                     	;# 
  1245  080E                     	;# 
  1246  080F                     	;# 
  1247  0810                     	;# 
  1248  0811                     	;# 
  1249  0812                     	;# 
  1250  0813                     	;# 
  1251  0814                     	;# 
  1252  081A                     	;# 
  1253  081A                     	;# 
  1254  081B                     	;# 
  1255  081C                     	;# 
  1256  081C                     	;# 
  1257  081D                     	;# 
  1258  081E                     	;# 
  1259  081F                     	;# 
  1260  088C                     	;# 
  1261  088D                     	;# 
  1262  088E                     	;# 
  1263  088F                     	;# 
  1264  0890                     	;# 
  1265  0891                     	;# 
  1266  0892                     	;# 
  1267  0893                     	;# 
  1268  0895                     	;# 
  1269  0896                     	;# 
  1270  0897                     	;# 
  1271  0898                     	;# 
  1272  0899                     	;# 
  1273  089A                     	;# 
  1274  089B                     	;# 
  1275  090C                     	;# 
  1276  090E                     	;# 
  1277  090F                     	;# 
  1278  091F                     	;# 
  1279  098F                     	;# 
  1280  098F                     	;# 
  1281  0990                     	;# 
  1282  0991                     	;# 
  1283  0992                     	;# 
  1284  0993                     	;# 
  1285  0994                     	;# 
  1286  0995                     	;# 
  1287  0996                     	;# 
  1288  0997                     	;# 
  1289  1E0F                     	;# 
  1290  1E10                     	;# 
  1291  1E11                     	;# 
  1292  1E12                     	;# 
  1293  1E13                     	;# 
  1294  1E14                     	;# 
  1295  1E15                     	;# 
  1296  1E16                     	;# 
  1297  1E17                     	;# 
  1298  1E18                     	;# 
  1299  1E19                     	;# 
  1300  1E1A                     	;# 
  1301  1E1B                     	;# 
  1302  1E1C                     	;# 
  1303  1E1D                     	;# 
  1304  1E1E                     	;# 
  1305  1E1F                     	;# 
  1306  1E20                     	;# 
  1307  1E21                     	;# 
  1308  1E22                     	;# 
  1309  1E23                     	;# 
  1310  1E24                     	;# 
  1311  1E25                     	;# 
  1312  1E26                     	;# 
  1313  1E27                     	;# 
  1314  1E28                     	;# 
  1315  1E29                     	;# 
  1316  1E2A                     	;# 
  1317  1E2B                     	;# 
  1318  1E2C                     	;# 
  1319  1E2D                     	;# 
  1320  1E2E                     	;# 
  1321  1E2F                     	;# 
  1322  1E30                     	;# 
  1323  1E31                     	;# 
  1324  1E32                     	;# 
  1325  1E33                     	;# 
  1326  1E34                     	;# 
  1327  1E35                     	;# 
  1328  1E36                     	;# 
  1329  1E37                     	;# 
  1330  1E8F                     	;# 
  1331  1E90                     	;# 
  1332  1E91                     	;# 
  1333  1E92                     	;# 
  1334  1E93                     	;# 
  1335  1E94                     	;# 
  1336  1E95                     	;# 
  1337  1E96                     	;# 
  1338  1E97                     	;# 
  1339  1E9C                     	;# 
  1340  1E9D                     	;# 
  1341  1E9E                     	;# 
  1342  1EA1                     	;# 
  1343  1EA2                     	;# 
  1344  1EA3                     	;# 
  1345  1EA4                     	;# 
  1346  1EA9                     	;# 
  1347  1EAA                     	;# 
  1348  1EB1                     	;# 
  1349  1EB2                     	;# 
  1350  1EB8                     	;# 
  1351  1EB9                     	;# 
  1352  1EBA                     	;# 
  1353  1EBB                     	;# 
  1354  1EBC                     	;# 
  1355  1EBD                     	;# 
  1356  1EBE                     	;# 
  1357  1EC3                     	;# 
  1358  1EC5                     	;# 
  1359  1EC6                     	;# 
  1360  1EC7                     	;# 
  1361  1EC8                     	;# 
  1362  1EC9                     	;# 
  1363  1ECA                     	;# 
  1364  1ECB                     	;# 
  1365  1ECB                     	;# 
  1366  1ECB                     	;# 
  1367  1ECC                     	;# 
  1368  1ECC                     	;# 
  1369  1ECC                     	;# 
  1370  1F10                     	;# 
  1371  1F11                     	;# 
  1372  1F12                     	;# 
  1373  1F14                     	;# 
  1374  1F15                     	;# 
  1375  1F1C                     	;# 
  1376  1F1D                     	;# 
  1377  1F1E                     	;# 
  1378  1F1F                     	;# 
  1379  1F20                     	;# 
  1380  1F21                     	;# 
  1381  1F22                     	;# 
  1382  1F23                     	;# 
  1383  1F24                     	;# 
  1384  1F25                     	;# 
  1385  1F26                     	;# 
  1386  1F27                     	;# 
  1387  1F38                     	;# 
  1388  1F39                     	;# 
  1389  1F3A                     	;# 
  1390  1F3B                     	;# 
  1391  1F3C                     	;# 
  1392  1F3D                     	;# 
  1393  1F3E                     	;# 
  1394  1F3F                     	;# 
  1395  1F43                     	;# 
  1396  1F44                     	;# 
  1397  1F45                     	;# 
  1398  1F46                     	;# 
  1399  1F47                     	;# 
  1400  1F48                     	;# 
  1401  1F49                     	;# 
  1402  1F4A                     	;# 
  1403  1F4E                     	;# 
  1404  1F4F                     	;# 
  1405  1F50                     	;# 
  1406  1F51                     	;# 
  1407  1F52                     	;# 
  1408  1F53                     	;# 
  1409  1F54                     	;# 
  1410  1F55                     	;# 
  1411  1FE4                     	;# 
  1412  1FE5                     	;# 
  1413  1FE6                     	;# 
  1414  1FE7                     	;# 
  1415  1FE8                     	;# 
  1416  1FE8                     	;# 
  1417  1FE9                     	;# 
  1418  1FEA                     	;# 
  1419  1FEB                     	;# 
  1420  1FED                     	;# 
  1421  1FEE                     	;# 
  1422  1FEF                     	;# 
  1423  0000                     	;# 
  1424  0001                     	;# 
  1425  0002                     	;# 
  1426  0003                     	;# 
  1427  0004                     	;# 
  1428  0005                     	;# 
  1429  0006                     	;# 
  1430  0007                     	;# 
  1431  0008                     	;# 
  1432  0009                     	;# 
  1433  000A                     	;# 
  1434  000B                     	;# 
  1435  000C                     	;# 
  1436  000D                     	;# 
  1437  000E                     	;# 
  1438  0012                     	;# 
  1439  0013                     	;# 
  1440  0014                     	;# 
  1441  0018                     	;# 
  1442  0019                     	;# 
  1443  001A                     	;# 
  1444  008C                     	;# 
  1445  008C                     	;# 
  1446  008D                     	;# 
  1447  008E                     	;# 
  1448  008E                     	;# 
  1449  008F                     	;# 
  1450  0090                     	;# 
  1451  0090                     	;# 
  1452  0091                     	;# 
  1453  0092                     	;# 
  1454  0092                     	;# 
  1455  0093                     	;# 
  1456  0094                     	;# 
  1457  0094                     	;# 
  1458  0095                     	;# 
  1459  0096                     	;# 
  1460  0096                     	;# 
  1461  0097                     	;# 
  1462  0098                     	;# 
  1463  0099                     	;# 
  1464  009A                     	;# 
  1465  009B                     	;# 
  1466  009B                     	;# 
  1467  009C                     	;# 
  1468  009D                     	;# 
  1469  009D                     	;# 
  1470  009E                     	;# 
  1471  009F                     	;# 
  1472  010C                     	;# 
  1473  010C                     	;# 
  1474  010D                     	;# 
  1475  010E                     	;# 
  1476  010F                     	;# 
  1477  010F                     	;# 
  1478  0110                     	;# 
  1479  0111                     	;# 
  1480  0112                     	;# 
  1481  0113                     	;# 
  1482  0114                     	;# 
  1483  0115                     	;# 
  1484  0116                     	;# 
  1485  0117                     	;# 
  1486  0118                     	;# 
  1487  0119                     	;# 
  1488  0119                     	;# 
  1489  0119                     	;# 
  1490  011A                     	;# 
  1491  011A                     	;# 
  1492  011A                     	;# 
  1493  011B                     	;# 
  1494  011B                     	;# 
  1495  011B                     	;# 
  1496  011B                     	;# 
  1497  011B                     	;# 
  1498  011C                     	;# 
  1499  011C                     	;# 
  1500  011C                     	;# 
  1501  011D                     	;# 
  1502  011D                     	;# 
  1503  011D                     	;# 
  1504  011E                     	;# 
  1505  011E                     	;# 
  1506  011E                     	;# 
  1507  011F                     	;# 
  1508  011F                     	;# 
  1509  011F                     	;# 
  1510  011F                     	;# 
  1511  011F                     	;# 
  1512  018C                     	;# 
  1513  018D                     	;# 
  1514  018E                     	;# 
  1515  018F                     	;# 
  1516  0190                     	;# 
  1517  0191                     	;# 
  1518  0192                     	;# 
  1519  0196                     	;# 
  1520  0197                     	;# 
  1521  0198                     	;# 
  1522  0199                     	;# 
  1523  019A                     	;# 
  1524  019B                     	;# 
  1525  019C                     	;# 
  1526  020C                     	;# 
  1527  020D                     	;# 
  1528  020E                     	;# 
  1529  020E                     	;# 
  1530  020F                     	;# 
  1531  020F                     	;# 
  1532  0210                     	;# 
  1533  0210                     	;# 
  1534  0211                     	;# 
  1535  0211                     	;# 
  1536  0212                     	;# 
  1537  0213                     	;# 
  1538  0214                     	;# 
  1539  0214                     	;# 
  1540  0215                     	;# 
  1541  0215                     	;# 
  1542  0216                     	;# 
  1543  0216                     	;# 
  1544  0217                     	;# 
  1545  0217                     	;# 
  1546  0218                     	;# 
  1547  0219                     	;# 
  1548  021A                     	;# 
  1549  021A                     	;# 
  1550  021B                     	;# 
  1551  021B                     	;# 
  1552  021C                     	;# 
  1553  021C                     	;# 
  1554  021D                     	;# 
  1555  021D                     	;# 
  1556  021E                     	;# 
  1557  021F                     	;# 
  1558  028C                     	;# 
  1559  028C                     	;# 
  1560  028D                     	;# 
  1561  028D                     	;# 
  1562  028E                     	;# 
  1563  028F                     	;# 
  1564  0290                     	;# 
  1565  0291                     	;# 
  1566  0292                     	;# 
  1567  0292                     	;# 
  1568  0293                     	;# 
  1569  0293                     	;# 
  1570  0294                     	;# 
  1571  0295                     	;# 
  1572  0296                     	;# 
  1573  0297                     	;# 
  1574  0298                     	;# 
  1575  0298                     	;# 
  1576  0299                     	;# 
  1577  0299                     	;# 
  1578  029A                     	;# 
  1579  029B                     	;# 
  1580  029C                     	;# 
  1581  029D                     	;# 
  1582  029F                     	;# 
  1583  030C                     	;# 
  1584  030C                     	;# 
  1585  030D                     	;# 
  1586  030E                     	;# 
  1587  030F                     	;# 
  1588  0310                     	;# 
  1589  0310                     	;# 
  1590  0311                     	;# 
  1591  0312                     	;# 
  1592  0313                     	;# 
  1593  0314                     	;# 
  1594  0314                     	;# 
  1595  0315                     	;# 
  1596  0316                     	;# 
  1597  0317                     	;# 
  1598  0318                     	;# 
  1599  0318                     	;# 
  1600  0319                     	;# 
  1601  031A                     	;# 
  1602  031B                     	;# 
  1603  038C                     	;# 
  1604  038C                     	;# 
  1605  038D                     	;# 
  1606  038E                     	;# 
  1607  0390                     	;# 
  1608  0390                     	;# 
  1609  0391                     	;# 
  1610  0392                     	;# 
  1611  048C                     	;# 
  1612  048C                     	;# 
  1613  048D                     	;# 
  1614  048E                     	;# 
  1615  048F                     	;# 
  1616  048F                     	;# 
  1617  0490                     	;# 
  1618  0491                     	;# 
  1619  0492                     	;# 
  1620  0492                     	;# 
  1621  0493                     	;# 
  1622  0494                     	;# 
  1623  0495                     	;# 
  1624  0495                     	;# 
  1625  0496                     	;# 
  1626  0497                     	;# 
  1627  0498                     	;# 
  1628  0499                     	;# 
  1629  049A                     	;# 
  1630  049B                     	;# 
  1631  049C                     	;# 
  1632  049D                     	;# 
  1633  058C                     	;# 
  1634  058C                     	;# 
  1635  058D                     	;# 
  1636  058E                     	;# 
  1637  058F                     	;# 
  1638  058F                     	;# 
  1639  0590                     	;# 
  1640  0591                     	;# 
  1641  0592                     	;# 
  1642  0593                     	;# 
  1643  059C                     	;# 
  1644  059C                     	;# 
  1645  059D                     	;# 
  1646  059D                     	;# 
  1647  059E                     	;# 
  1648  059F                     	;# 
  1649  060C                     	;# 
  1650  060C                     	;# 
  1651  060D                     	;# 
  1652  060D                     	;# 
  1653  060E                     	;# 
  1654  060F                     	;# 
  1655  0610                     	;# 
  1656  0611                     	;# 
  1657  0612                     	;# 
  1658  0613                     	;# 
  1659  0614                     	;# 
  1660  0616                     	;# 
  1661  0616                     	;# 
  1662  0617                     	;# 
  1663  0617                     	;# 
  1664  0618                     	;# 
  1665  0619                     	;# 
  1666  061A                     	;# 
  1667  061B                     	;# 
  1668  061C                     	;# 
  1669  061D                     	;# 
  1670  061E                     	;# 
  1671  070C                     	;# 
  1672  070D                     	;# 
  1673  070E                     	;# 
  1674  070F                     	;# 
  1675  0710                     	;# 
  1676  0711                     	;# 
  1677  0712                     	;# 
  1678  0713                     	;# 
  1679  0714                     	;# 
  1680  0716                     	;# 
  1681  0717                     	;# 
  1682  0718                     	;# 
  1683  0719                     	;# 
  1684  071A                     	;# 
  1685  071B                     	;# 
  1686  071C                     	;# 
  1687  071D                     	;# 
  1688  071E                     	;# 
  1689  0796                     	;# 
  1690  0797                     	;# 
  1691  0798                     	;# 
  1692  0799                     	;# 
  1693  079A                     	;# 
  1694  079B                     	;# 
  1695  079C                     	;# 
  1696  079D                     	;# 
  1697  080C                     	;# 
  1698  080D                     	;# 
  1699  080E                     	;# 
  1700  080F                     	;# 
  1701  0810                     	;# 
  1702  0811                     	;# 
  1703  0812                     	;# 
  1704  0813                     	;# 
  1705  0814                     	;# 
  1706  081A                     	;# 
  1707  081A                     	;# 
  1708  081B                     	;# 
  1709  081C                     	;# 
  1710  081C                     	;# 
  1711  081D                     	;# 
  1712  081E                     	;# 
  1713  081F                     	;# 
  1714  088C                     	;# 
  1715  088D                     	;# 
  1716  088E                     	;# 
  1717  088F                     	;# 
  1718  0890                     	;# 
  1719  0891                     	;# 
  1720  0892                     	;# 
  1721  0893                     	;# 
  1722  0895                     	;# 
  1723  0896                     	;# 
  1724  0897                     	;# 
  1725  0898                     	;# 
  1726  0899                     	;# 
  1727  089A                     	;# 
  1728  089B                     	;# 
  1729  090C                     	;# 
  1730  090E                     	;# 
  1731  090F                     	;# 
  1732  091F                     	;# 
  1733  098F                     	;# 
  1734  098F                     	;# 
  1735  0990                     	;# 
  1736  0991                     	;# 
  1737  0992                     	;# 
  1738  0993                     	;# 
  1739  0994                     	;# 
  1740  0995                     	;# 
  1741  0996                     	;# 
  1742  0997                     	;# 
  1743  1E0F                     	;# 
  1744  1E10                     	;# 
  1745  1E11                     	;# 
  1746  1E12                     	;# 
  1747  1E13                     	;# 
  1748  1E14                     	;# 
  1749  1E15                     	;# 
  1750  1E16                     	;# 
  1751  1E17                     	;# 
  1752  1E18                     	;# 
  1753  1E19                     	;# 
  1754  1E1A                     	;# 
  1755  1E1B                     	;# 
  1756  1E1C                     	;# 
  1757  1E1D                     	;# 
  1758  1E1E                     	;# 
  1759  1E1F                     	;# 
  1760  1E20                     	;# 
  1761  1E21                     	;# 
  1762  1E22                     	;# 
  1763  1E23                     	;# 
  1764  1E24                     	;# 
  1765  1E25                     	;# 
  1766  1E26                     	;# 
  1767  1E27                     	;# 
  1768  1E28                     	;# 
  1769  1E29                     	;# 
  1770  1E2A                     	;# 
  1771  1E2B                     	;# 
  1772  1E2C                     	;# 
  1773  1E2D                     	;# 
  1774  1E2E                     	;# 
  1775  1E2F                     	;# 
  1776  1E30                     	;# 
  1777  1E31                     	;# 
  1778  1E32                     	;# 
  1779  1E33                     	;# 
  1780  1E34                     	;# 
  1781  1E35                     	;# 
  1782  1E36                     	;# 
  1783  1E37                     	;# 
  1784  1E8F                     	;# 
  1785  1E90                     	;# 
  1786  1E91                     	;# 
  1787  1E92                     	;# 
  1788  1E93                     	;# 
  1789  1E94                     	;# 
  1790  1E95                     	;# 
  1791  1E96                     	;# 
  1792  1E97                     	;# 
  1793  1E9C                     	;# 
  1794  1E9D                     	;# 
  1795  1E9E                     	;# 
  1796  1EA1                     	;# 
  1797  1EA2                     	;# 
  1798  1EA3                     	;# 
  1799  1EA4                     	;# 
  1800  1EA9                     	;# 
  1801  1EAA                     	;# 
  1802  1EB1                     	;# 
  1803  1EB2                     	;# 
  1804  1EB8                     	;# 
  1805  1EB9                     	;# 
  1806  1EBA                     	;# 
  1807  1EBB                     	;# 
  1808  1EBC                     	;# 
  1809  1EBD                     	;# 
  1810  1EBE                     	;# 
  1811  1EC3                     	;# 
  1812  1EC5                     	;# 
  1813  1EC6                     	;# 
  1814  1EC7                     	;# 
  1815  1EC8                     	;# 
  1816  1EC9                     	;# 
  1817  1ECA                     	;# 
  1818  1ECB                     	;# 
  1819  1ECB                     	;# 
  1820  1ECB                     	;# 
  1821  1ECC                     	;# 
  1822  1ECC                     	;# 
  1823  1ECC                     	;# 
  1824  1F10                     	;# 
  1825  1F11                     	;# 
  1826  1F12                     	;# 
  1827  1F14                     	;# 
  1828  1F15                     	;# 
  1829  1F1C                     	;# 
  1830  1F1D                     	;# 
  1831  1F1E                     	;# 
  1832  1F1F                     	;# 
  1833  1F20                     	;# 
  1834  1F21                     	;# 
  1835  1F22                     	;# 
  1836  1F23                     	;# 
  1837  1F24                     	;# 
  1838  1F25                     	;# 
  1839  1F26                     	;# 
  1840  1F27                     	;# 
  1841  1F38                     	;# 
  1842  1F39                     	;# 
  1843  1F3A                     	;# 
  1844  1F3B                     	;# 
  1845  1F3C                     	;# 
  1846  1F3D                     	;# 
  1847  1F3E                     	;# 
  1848  1F3F                     	;# 
  1849  1F43                     	;# 
  1850  1F44                     	;# 
  1851  1F45                     	;# 
  1852  1F46                     	;# 
  1853  1F47                     	;# 
  1854  1F48                     	;# 
  1855  1F49                     	;# 
  1856  1F4A                     	;# 
  1857  1F4E                     	;# 
  1858  1F4F                     	;# 
  1859  1F50                     	;# 
  1860  1F51                     	;# 
  1861  1F52                     	;# 
  1862  1F53                     	;# 
  1863  1F54                     	;# 
  1864  1F55                     	;# 
  1865  1FE4                     	;# 
  1866  1FE5                     	;# 
  1867  1FE6                     	;# 
  1868  1FE7                     	;# 
  1869  1FE8                     	;# 
  1870  1FE8                     	;# 
  1871  1FE9                     	;# 
  1872  1FEA                     	;# 
  1873  1FEB                     	;# 
  1874  1FED                     	;# 
  1875  1FEE                     	;# 
  1876  1FEF                     	;# 
  1877                           
  1878                           	psect	idataBANK0
  1879  04ED                     __pidataBANK0:	
  1880                           
  1881                           ;initializer for main@F11235
  1882  04ED  340D               	retlw	13
  1883  04EE  340C               	retlw	12
  1884  04EF  340F               	retlw	15
  1885  04F0  3410               	retlw	16
  1886  04F1  3408               	retlw	8
  1887                           
  1888                           	psect	idataBANK1
  1889  04F2                     __pidataBANK1:	
  1890                           
  1891                           ;initializer for main@F11237
  1892  04F2  340A               	retlw	10
  1893  04F3  340B               	retlw	11
  1894  04F4  3405               	retlw	5
  1895  04F5  3406               	retlw	6
  1896  04F6  3407               	retlw	7
  1897  000B                     _INTCONbits	set	11
  1898  001A                     _LATCbits	set	26
  1899  0019                     _LATBbits	set	25
  1900  0018                     _LATAbits	set	24
  1901  000E                     _PORTCbits	set	14
  1902  000D                     _PORTBbits	set	13
  1903  000C                     _PORTAbits	set	12
  1904  0014                     _TRISCbits	set	20
  1905  0013                     _TRISBbits	set	19
  1906  0012                     _TRISAbits	set	18
  1907  059D                     _TMR0H	set	1437
  1908  059F                     _T0CON1bits	set	1439
  1909  059E                     _T0CON0bits	set	1438
  1910  0716                     _PIE0bits	set	1814
  1911  1F4F                     _WPUCbits	set	8015
  1912  1F4E                     _ANSELCbits	set	8014
  1913  1F44                     _WPUBbits	set	8004
  1914  1F43                     _ANSELBbits	set	8003
  1915  1F39                     _WPUAbits	set	7993
  1916  1F38                     _ANSELAbits	set	7992
  1917                           
  1918                           ; #config settings
  1919  0000                     
  1920                           	psect	cinit
  1921  000F                     start_initialization:	
  1922  000F                     __initialization:	
  1923                           
  1924                           ; Initialize objects allocated to BANK0
  1925  000F  30ED               	movlw	low __pidataBANK0
  1926  0010  0084               	movwf	4
  1927  0011  3084               	movlw	(high __pidataBANK0)| (0+128)
  1928  0012  0085               	movwf	5
  1929  0013  306A               	movlw	low __pdataBANK0
  1930  0014  0086               	movwf	6
  1931  0015  3000               	movlw	high __pdataBANK0
  1932  0016  0087               	movwf	7
  1933  0017  3005               	movlw	5
  1934  0018  3184  24E1  3180   	fcall	init_ram
  1935                           
  1936                           ; Initialize objects allocated to BANK1
  1937  001B  30F2               	movlw	low __pidataBANK1
  1938  001C  0084               	movwf	4
  1939  001D  3084               	movlw	(high __pidataBANK1)| (0+128)
  1940  001E  0085               	movwf	5
  1941  001F  30B1               	movlw	low __pdataBANK1
  1942  0020  0086               	movwf	6
  1943  0021  3000               	movlw	high __pdataBANK1
  1944  0022  0087               	movwf	7
  1945  0023  3005               	movlw	5
  1946  0024  3184  24E1  3180   	fcall	init_ram
  1947                           
  1948                           ; Clear objects allocated to COMMON
  1949  0027  01FC               	clrf	__pbssCOMMON& (0+127)
  1950  0028  01FD               	clrf	(__pbssCOMMON+1)& (0+127)
  1951                           
  1952                           ; Clear objects allocated to BANK0
  1953  0029  305A               	movlw	low __pbssBANK0
  1954  002A  0084               	movwf	4
  1955  002B  3000               	movlw	high __pbssBANK0
  1956  002C  0085               	movwf	5
  1957  002D  3010               	movlw	16
  1958  002E  3184  24E7  3180   	fcall	clear_ram0
  1959                           
  1960                           ; Clear objects allocated to BANK1
  1961  0031  30A0               	movlw	low __pbssBANK1
  1962  0032  0084               	movwf	4
  1963  0033  3000               	movlw	high __pbssBANK1
  1964  0034  0085               	movwf	5
  1965  0035  3011               	movlw	17
  1966  0036  3184  24E7         	fcall	clear_ram0
  1967  0038                     end_of_initialization:	
  1968                           ;End of C runtime variable initialization code
  1969                           
  1970  0038                     __end_of__initialization:	
  1971  0038  107E               	bcf	int$flags,0	;clear compiler interrupt flag (level 1)
  1972  0039  0140               	movlb	0
  1973  003A  3184  2C4A         	ljmp	_main	;jump to C main() function
  1974                           
  1975                           	psect	bssCOMMON
  1976  007C                     __pbssCOMMON:	
  1977  007C                     _buttonLastState:	
  1978  007C                     	ds	1
  1979  007D                     _buttonState:	
  1980  007D                     	ds	1
  1981                           
  1982                           	psect	bssBANK0
  1983  005A                     __pbssBANK0:	
  1984  005A                     _timeButtonReleased:	
  1985  005A                     	ds	2
  1986  005C                     _timeTurnedOff:	
  1987  005C                     	ds	2
  1988  005E                     _time:	
  1989  005E                     	ds	2
  1990  0060                     _ledLasteState:	
  1991  0060                     	ds	1
  1992  0061                     _ledState:	
  1993  0061                     	ds	1
  1994  0062                     _seed:	
  1995  0062                     	ds	8
  1996                           
  1997                           	psect	dataBANK0
  1998  006A                     __pdataBANK0:	
  1999  006A                     main@F11235:	
  2000  006A                     	ds	5
  2001                           
  2002                           	psect	bssBANK1
  2003  00A0                     __pbssBANK1:	
  2004  00A0                     _pinStates:	
  2005  00A0                     	ds	17
  2006                           
  2007                           	psect	dataBANK1
  2008  00B1                     __pdataBANK1:	
  2009  00B1                     main@F11237:	
  2010  00B1                     	ds	5
  2011                           
  2012                           	psect	inittext
  2013  04E1                     init_ram:	
  2014  04E1  00FE               	movwf	126
  2015  04E2                     initloop:	
  2016  04E2  0012               	moviw fsr0++
  2017  04E3  001E               	movwi fsr1++
  2018  04E4  0BFE               	decfsz	126,f
  2019  04E5  2CE2               	goto	initloop
  2020  04E6  3400               	retlw	0
  2021                           
  2022                           	psect	clrtext
  2023  04E7                     clear_ram0:	
  2024                           ;	Called with FSR0 containing the base address, and
  2025                           ;	WREG with the size to clear
  2026                           
  2027  04E7  0064               	clrwdt	;clear the watchdog before getting into this loop
  2028  04E8                     clrloop0:	
  2029  04E8  0180               	clrf	0	;clear RAM location pointed to by FSR
  2030  04E9  3101               	addfsr 0,1
  2031  04EA  0B89               	decfsz	9,f	;Have we reached the end of clearing yet?
  2032  04EB  2CE8               	goto	clrloop0	;have we reached the end yet?
  2033  04EC  3400               	retlw	0	;all done for this memory range, return
  2034                           
  2035                           	psect	cstackCOMMON
  2036  0070                     __pcstackCOMMON:	
  2037  0070                     ?_defineGPIODirection:	
  2038  0070                     ?_readPin:	
  2039                           ; 1 bytes @ 0x0
  2040                           
  2041  0070                     ??_readPin:	
  2042                           ; 1 bytes @ 0x0
  2043                           
  2044  0070                     ?_writePin:	
  2045                           ; 1 bytes @ 0x0
  2046                           
  2047  0070                     ?_main:	
  2048                           ; 1 bytes @ 0x0
  2049                           
  2050  0070                     ?_timer0ISR:	
  2051                           ; 1 bytes @ 0x0
  2052                           
  2053  0070                     ??_timer0ISR:	
  2054                           ; 1 bytes @ 0x0
  2055                           
  2056  0070                     ??___omul:	
  2057                           ; 1 bytes @ 0x0
  2058                           
  2059  0070                     defineGPIODirection@output:	
  2060                           ; 1 bytes @ 0x0
  2061                           
  2062  0070                     writePin@value:	
  2063                           ; 1 bytes @ 0x0
  2064                           
  2065                           
  2066                           ; 1 bytes @ 0x0
  2067  0070                     	ds	1
  2068  0071                     ??_writePin:	
  2069  0071                     defineGPIODirection@inputLength:	
  2070                           ; 1 bytes @ 0x1
  2071                           
  2072  0071                     ___omul@product:	
  2073                           ; 1 bytes @ 0x1
  2074                           
  2075                           
  2076                           ; 8 bytes @ 0x1
  2077  0071                     	ds	1
  2078  0072                     defineGPIODirection@outputLength:	
  2079  0072                     readPin@read:	
  2080                           ; 1 bytes @ 0x2
  2081                           
  2082                           
  2083                           ; 1 bytes @ 0x2
  2084  0072                     	ds	1
  2085  0073                     ??_defineGPIODirection:	
  2086  0073                     writePin@write:	
  2087                           ; 1 bytes @ 0x3
  2088                           
  2089                           
  2090                           ; 1 bytes @ 0x3
  2091  0073                     	ds	3
  2092  0076                     defineGPIODirection@input:	
  2093                           
  2094                           ; 1 bytes @ 0x6
  2095  0076                     	ds	1
  2096  0077                     defineGPIODirection@i:	
  2097                           
  2098                           ; 1 bytes @ 0x7
  2099  0077                     	ds	2
  2100  0079                     ?_rand:	
  2101                           
  2102                           ; 2 bytes @ 0x9
  2103  0079                     	ds	2
  2104  007B                     ??___awdiv:	
  2105                           
  2106                           ; 1 bytes @ 0xB
  2107  007B                     	ds	1
  2108                           
  2109                           	psect	cstackBANK0
  2110  0020                     __pcstackBANK0:	
  2111  0020                     ?___omul:	
  2112  0020                     ___omul@multiplier:	
  2113                           ; 8 bytes @ 0x0
  2114                           
  2115                           
  2116                           ; 8 bytes @ 0x0
  2117  0020                     	ds	8
  2118  0028                     ___omul@multiplicand:	
  2119                           
  2120                           ; 8 bytes @ 0x8
  2121  0028                     	ds	8
  2122  0030                     ??_rand:	
  2123                           
  2124                           ; 1 bytes @ 0x10
  2125  0030                     	ds	8
  2126  0038                     ?___awdiv:	
  2127  0038                     ___awdiv@divisor:	
  2128                           ; 2 bytes @ 0x18
  2129                           
  2130                           
  2131                           ; 2 bytes @ 0x18
  2132  0038                     	ds	2
  2133  003A                     ___awdiv@dividend:	
  2134                           
  2135                           ; 2 bytes @ 0x1A
  2136  003A                     	ds	2
  2137  003C                     ___awdiv@counter:	
  2138                           
  2139                           ; 1 bytes @ 0x1C
  2140  003C                     	ds	1
  2141  003D                     ___awdiv@sign:	
  2142                           
  2143                           ; 1 bytes @ 0x1D
  2144  003D                     	ds	1
  2145  003E                     ___awdiv@quotient:	
  2146                           
  2147                           ; 2 bytes @ 0x1E
  2148  003E                     	ds	2
  2149  0040                     ?_shuffle:	
  2150  0040                     shuffle@size:	
  2151                           ; 1 bytes @ 0x20
  2152                           
  2153                           
  2154                           ; 2 bytes @ 0x20
  2155  0040                     	ds	2
  2156  0042                     ??_shuffle:	
  2157                           
  2158                           ; 1 bytes @ 0x22
  2159  0042                     	ds	3
  2160  0045                     _shuffle$1250:	
  2161                           
  2162                           ; 2 bytes @ 0x25
  2163  0045                     	ds	2
  2164  0047                     shuffle@temp:	
  2165                           
  2166                           ; 1 bytes @ 0x27
  2167  0047                     	ds	1
  2168  0048                     shuffle@j:	
  2169                           
  2170                           ; 2 bytes @ 0x28
  2171  0048                     	ds	2
  2172  004A                     shuffle@array:	
  2173                           
  2174                           ; 1 bytes @ 0x2A
  2175  004A                     	ds	1
  2176  004B                     shuffle@i:	
  2177                           
  2178                           ; 2 bytes @ 0x2B
  2179  004B                     	ds	2
  2180  004D                     ??_main:	
  2181                           
  2182                           ; 1 bytes @ 0x2D
  2183  004D                     	ds	3
  2184  0050                     main@input:	
  2185                           
  2186                           ; 5 bytes @ 0x30
  2187  0050                     	ds	5
  2188  0055                     main@output:	
  2189                           
  2190                           ; 5 bytes @ 0x35
  2191  0055                     	ds	5
  2192                           
  2193                           	psect	maintext
  2194  044A                     __pmaintext:	
  2195 ;;
  2196 ;;Main: autosize = 0, tempsize = 3, incstack = 0, save=0
  2197 ;;
  2198 ;; *************** function _main *****************
  2199 ;; Defined at:
  2200 ;;		line 27 in file "main.c"
  2201 ;; Parameters:    Size  Location     Type
  2202 ;;		None
  2203 ;; Auto vars:     Size  Location     Type
  2204 ;;  output          5   53[BANK0 ] enum E11183[5]
  2205 ;;  input           5   48[BANK0 ] enum E11183[5]
  2206 ;; Return value:  Size  Location     Type
  2207 ;;                  1    wreg      void 
  2208 ;; Registers used:
  2209 ;;		wreg, fsr0l, fsr0h, fsr1l, fsr1h, status,2, status,0, pclath, cstack
  2210 ;; Tracked objects:
  2211 ;;		On entry : B3F/0
  2212 ;;		On exit  : 0/0
  2213 ;;		Unchanged: 0/0
  2214 ;; Data sizes:     COMMON   BANK0   BANK1   BANK2   BANK3   BANK4   BANK5   BANK6   BANK7   BANK8   BANK9  BANK10  BANK1
      +1  BANK12  BANK13  BANK14  BANK15  BANK16  BANK17  BANK18  BANK19  BANK20  BANK21  BANK22  BANK23  BANK24  BANK25
  2215 ;;      Params:         0       0       0       0       0       0       0       0       0       0       0       0       
      +0       0       0       0       0       0       0       0       0       0       0       0       0       0       0
  2216 ;;      Locals:         0      10       0       0       0       0       0       0       0       0       0       0       
      +0       0       0       0       0       0       0       0       0       0       0       0       0       0       0
  2217 ;;      Temps:          0       3       0       0       0       0       0       0       0       0       0       0       
      +0       0       0       0       0       0       0       0       0       0       0       0       0       0       0
  2218 ;;      Totals:         0      13       0       0       0       0       0       0       0       0       0       0       
      +0       0       0       0       0       0       0       0       0       0       0       0       0       0       0
  2219 ;;Total ram usage:       13 bytes
  2220 ;; Hardware stack levels required when called:    4
  2221 ;; This function calls:
  2222 ;;		_defineGPIODirection
  2223 ;;		_readPin
  2224 ;;		_shuffle
  2225 ;;		_writePin
  2226 ;; This function is called by:
  2227 ;;		Startup code after reset
  2228 ;; This function uses a non-reentrant model
  2229 ;;
  2230                           
  2231                           
  2232                           ;psect for function _main
  2233  044A                     _main:	
  2234                           
  2235                           ;incstack = 0
  2236                           ; Regs used in _main: [wreg-fsr1h+status,2+status,0+pclath+cstack]
  2237  044A  306A               	movlw	low main@F11235
  2238  044B  0086               	movwf	6
  2239  044C  3000               	movlw	high main@F11235
  2240  044D  0087               	movwf	7
  2241  044E  3050               	movlw	low main@input
  2242  044F  0084               	movwf	4
  2243  0450  3000               	movlw	high main@input
  2244  0451  0085               	movwf	5
  2245  0452  3005               	movlw	5
  2246  0453  0140               	movlb	0	; select bank0
  2247  0454  00CD               	movwf	??_main
  2248  0455                     u740:	
  2249  0455  0016               	moviw fsr1++
  2250  0456  001A               	movwi fsr0++
  2251  0457  0BCD               	decfsz	??_main,f
  2252  0458  2C55               	goto	u740
  2253  0459  30B1               	movlw	low main@F11237
  2254  045A  0086               	movwf	6
  2255  045B  3000               	movlw	high main@F11237
  2256  045C  0087               	movwf	7
  2257  045D  3055               	movlw	low main@output
  2258  045E  0084               	movwf	4
  2259  045F  3000               	movlw	high main@output
  2260  0460  0085               	movwf	5
  2261  0461  3005               	movlw	5
  2262  0462  00CD               	movwf	??_main
  2263  0463                     u750:	
  2264  0463  0016               	moviw fsr1++
  2265  0464  001A               	movwi fsr0++
  2266  0465  0BCD               	decfsz	??_main,f
  2267  0466  2C63               	goto	u750
  2268  0467  3005               	movlw	5
  2269  0468  00C0               	movwf	shuffle@size
  2270  0469  3000               	movlw	0
  2271  046A  00C1               	movwf	shuffle@size+1
  2272  046B  3050               	movlw	(low (main@input| 0))& (0+255)
  2273  046C  3183  2382  3184   	fcall	_shuffle
  2274  046F  3005               	movlw	5
  2275  0470  0140               	movlb	0	; select bank0
  2276  0471  00C0               	movwf	shuffle@size
  2277  0472  3000               	movlw	0
  2278  0473  00C1               	movwf	shuffle@size+1
  2279  0474  3055               	movlw	(low (main@output| 0))& (0+255)
  2280  0475  3183  2382  3184   	fcall	_shuffle
  2281  0478  3055               	movlw	(low (main@output| 0))& (0+255)
  2282  0479  0140               	movlb	0	; select bank0
  2283  047A  00CD               	movwf	??_main
  2284  047B  084D               	movf	??_main,w
  2285  047C  00F0               	movwf	defineGPIODirection@output
  2286  047D  3005               	movlw	5
  2287  047E  00CE               	movwf	??_main+1
  2288  047F  084E               	movf	??_main+1,w
  2289  0480  00F1               	movwf	defineGPIODirection@inputLength
  2290  0481  3005               	movlw	5
  2291  0482  00CF               	movwf	??_main+2
  2292  0483  084F               	movf	??_main+2,w
  2293  0484  00F2               	movwf	defineGPIODirection@outputLength
  2294  0485  3050               	movlw	(low (main@input| 0))& (0+255)
  2295  0486  3180  203C  3184   	fcall	_defineGPIODirection
  2296  0489  2C90               	goto	l1705
  2297  048A                     l1707:	
  2298  048A  01F0               	clrf	writePin@value
  2299  048B  0AF0               	incf	writePin@value,f
  2300  048C                     L1:	
  2301  048C  3010               	movlw	16
  2302  048D  3181  2170  3184   	fcall	_writePin
  2303  0490                     l1705:	
  2304  0490  3008               	movlw	8
  2305  0491  3182  227C  3184   	fcall	_readPin
  2306  0494  3A00               	xorlw	0
  2307  0495  1903               	btfsc	3,2
  2308  0496  2C8A               	goto	l1707
  2309  0497  01F0               	clrf	writePin@value
  2310  0498  2C8C               	goto	L1
  2311  0499                     __end_of_main:	
  2312                           
  2313                           	psect	text1
  2314  0170                     __ptext1:	
  2315 ;; *************** function _writePin *****************
  2316 ;; Defined at:
  2317 ;;		line 274 in file "pins.c"
  2318 ;; Parameters:    Size  Location     Type
  2319 ;;  write           1    wreg     enum E11183
  2320 ;;  value           1    0[COMMON] unsigned char 
  2321 ;; Auto vars:     Size  Location     Type
  2322 ;;  write           1    3[COMMON] enum E11183
  2323 ;; Return value:  Size  Location     Type
  2324 ;;                  1    wreg      void 
  2325 ;; Registers used:
  2326 ;;		wreg, fsr0l, fsr0h, status,2, status,0
  2327 ;; Tracked objects:
  2328 ;;		On entry : 0/0
  2329 ;;		On exit  : 0/0
  2330 ;;		Unchanged: 0/0
  2331 ;; Data sizes:     COMMON   BANK0   BANK1   BANK2   BANK3   BANK4   BANK5   BANK6   BANK7   BANK8   BANK9  BANK10  BANK1
      +1  BANK12  BANK13  BANK14  BANK15  BANK16  BANK17  BANK18  BANK19  BANK20  BANK21  BANK22  BANK23  BANK24  BANK25
  2332 ;;      Params:         1       0       0       0       0       0       0       0       0       0       0       0       
      +0       0       0       0       0       0       0       0       0       0       0       0       0       0       0
  2333 ;;      Locals:         1       0       0       0       0       0       0       0       0       0       0       0       
      +0       0       0       0       0       0       0       0       0       0       0       0       0       0       0
  2334 ;;      Temps:          2       0       0       0       0       0       0       0       0       0       0       0       
      +0       0       0       0       0       0       0       0       0       0       0       0       0       0       0
  2335 ;;      Totals:         4       0       0       0       0       0       0       0       0       0       0       0       
      +0       0       0       0       0       0       0       0       0       0       0       0       0       0       0
  2336 ;;Total ram usage:        4 bytes
  2337 ;; Hardware stack levels used:    1
  2338 ;; Hardware stack levels required when called:    1
  2339 ;; This function calls:
  2340 ;;		Nothing
  2341 ;; This function is called by:
  2342 ;;		_main
  2343 ;; This function uses a non-reentrant model
  2344 ;;
  2345                           
  2346                           
  2347                           ;psect for function _writePin
  2348  0170                     _writePin:	
  2349                           
  2350                           ;incstack = 0
  2351                           ; Regs used in _writePin: [wreg-fsr0h+status,2+status,0]
  2352                           ;writePin@write stored from wreg
  2353  0170  00F3               	movwf	writePin@write
  2354                           
  2355                           ;pins.c: 275:     switch(write) {
  2356  0171  2A3E               	goto	l1691
  2357  0172                     l1621:	
  2358                           
  2359                           ;pins.c: 277:             LATAbits.LATA0 = value;
  2360  0172  0C70               	rrf	writePin@value,w
  2361  0173  0140               	movlb	0	; select bank0
  2362  0174  1C03               	skipc
  2363  0175  1018               	bcf	24,0	;volatile
  2364  0176  1803               	skipnc
  2365  0177  1418               	bsf	24,0	;volatile
  2366                           
  2367                           ;pins.c: 278:             pinStates[PINA0] = value;
  2368  0178  0870               	movf	writePin@value,w
  2369  0179  00F1               	movwf	??_writePin
  2370  017A  0871               	movf	??_writePin,w
  2371  017B  0141               	movlb	1	; select bank1
  2372  017C  00A0               	movwf	_pinStates^(0+128)
  2373                           
  2374                           ;pins.c: 279:             break;
  2375  017D  0008               	return
  2376  017E                     l1625:	
  2377                           
  2378                           ;pins.c: 281:             LATAbits.LATA1 = value;
  2379  017E  0C70               	rrf	writePin@value,w
  2380  017F  0140               	movlb	0	; select bank0
  2381  0180  1C03               	skipc
  2382  0181  1098               	bcf	24,1	;volatile
  2383  0182  1803               	skipnc
  2384  0183  1498               	bsf	24,1	;volatile
  2385                           
  2386                           ;pins.c: 282:             pinStates[PINA1] = value;
  2387  0184  0870               	movf	writePin@value,w
  2388  0185  00F1               	movwf	??_writePin
  2389  0186  0871               	movf	??_writePin,w
  2390  0187  0141               	movlb	1	; select bank1
  2391  0188  00A1               	movwf	(_pinStates^(0+128)+1)
  2392                           
  2393                           ;pins.c: 283:             break;
  2394  0189  0008               	return
  2395  018A                     l1629:	
  2396                           
  2397                           ;pins.c: 285:             LATAbits.LATA2 = value;
  2398  018A  0C70               	rrf	writePin@value,w
  2399  018B  0140               	movlb	0	; select bank0
  2400  018C  1C03               	skipc
  2401  018D  1118               	bcf	24,2	;volatile
  2402  018E  1803               	skipnc
  2403  018F  1518               	bsf	24,2	;volatile
  2404                           
  2405                           ;pins.c: 286:             pinStates[PINA2] = value;
  2406  0190  0870               	movf	writePin@value,w
  2407  0191  00F1               	movwf	??_writePin
  2408  0192  0871               	movf	??_writePin,w
  2409  0193  0141               	movlb	1	; select bank1
  2410  0194  00A2               	movwf	(_pinStates^(0+128)+2)
  2411                           
  2412                           ;pins.c: 287:             break;
  2413  0195  0008               	return
  2414  0196                     l1633:	
  2415                           
  2416                           ;pins.c: 289:             LATAbits.LATA4 = value;
  2417  0196  0C70               	rrf	writePin@value,w
  2418  0197  0140               	movlb	0	; select bank0
  2419  0198  1C03               	skipc
  2420  0199  1218               	bcf	24,4	;volatile
  2421  019A  1803               	skipnc
  2422  019B  1618               	bsf	24,4	;volatile
  2423                           
  2424                           ;pins.c: 290:             pinStates[PINA4] = value;
  2425  019C  0870               	movf	writePin@value,w
  2426  019D  00F1               	movwf	??_writePin
  2427  019E  0871               	movf	??_writePin,w
  2428  019F  0141               	movlb	1	; select bank1
  2429  01A0  00A3               	movwf	(_pinStates^(0+128)+3)
  2430                           
  2431                           ;pins.c: 291:             break;
  2432  01A1  0008               	return
  2433  01A2                     l1637:	
  2434                           
  2435                           ;pins.c: 293:             LATAbits.LATA5 = value;
  2436  01A2  0C70               	rrf	writePin@value,w
  2437  01A3  0140               	movlb	0	; select bank0
  2438  01A4  1C03               	skipc
  2439  01A5  1298               	bcf	24,5	;volatile
  2440  01A6  1803               	skipnc
  2441  01A7  1698               	bsf	24,5	;volatile
  2442                           
  2443                           ;pins.c: 294:             pinStates[PINA5] = value;
  2444  01A8  0870               	movf	writePin@value,w
  2445  01A9  00F1               	movwf	??_writePin
  2446  01AA  0871               	movf	??_writePin,w
  2447  01AB  0141               	movlb	1	; select bank1
  2448  01AC  00A4               	movwf	(_pinStates^(0+128)+4)
  2449                           
  2450                           ;pins.c: 295:             break;
  2451  01AD  0008               	return
  2452  01AE                     l1641:	
  2453                           
  2454                           ;pins.c: 297:             LATBbits.LATB4 = value;
  2455  01AE  0C70               	rrf	writePin@value,w
  2456  01AF  0140               	movlb	0	; select bank0
  2457  01B0  1C03               	skipc
  2458  01B1  1219               	bcf	25,4	;volatile
  2459  01B2  1803               	skipnc
  2460  01B3  1619               	bsf	25,4	;volatile
  2461                           
  2462                           ;pins.c: 298:             pinStates[PINB4] = value;
  2463  01B4  0870               	movf	writePin@value,w
  2464  01B5  00F1               	movwf	??_writePin
  2465  01B6  0871               	movf	??_writePin,w
  2466  01B7  0141               	movlb	1	; select bank1
  2467  01B8  00A5               	movwf	(_pinStates^(0+128)+5)
  2468                           
  2469                           ;pins.c: 299:             break;
  2470  01B9  0008               	return
  2471  01BA                     l1645:	
  2472                           
  2473                           ;pins.c: 301:             LATBbits.LATB5 = value;
  2474  01BA  0C70               	rrf	writePin@value,w
  2475  01BB  0140               	movlb	0	; select bank0
  2476  01BC  1C03               	skipc
  2477  01BD  1299               	bcf	25,5	;volatile
  2478  01BE  1803               	skipnc
  2479  01BF  1699               	bsf	25,5	;volatile
  2480                           
  2481                           ;pins.c: 302:             pinStates[PINB5] = value;
  2482  01C0  0870               	movf	writePin@value,w
  2483  01C1  00F1               	movwf	??_writePin
  2484  01C2  0871               	movf	??_writePin,w
  2485  01C3  0141               	movlb	1	; select bank1
  2486  01C4  00A6               	movwf	(_pinStates^(0+128)+6)
  2487                           
  2488                           ;pins.c: 303:             break;
  2489  01C5  0008               	return
  2490  01C6                     l1649:	
  2491                           
  2492                           ;pins.c: 305:             LATBbits.LATB6 = value;
  2493  01C6  0C70               	rrf	writePin@value,w
  2494  01C7  0140               	movlb	0	; select bank0
  2495  01C8  1C03               	skipc
  2496  01C9  1319               	bcf	25,6	;volatile
  2497  01CA  1803               	skipnc
  2498  01CB  1719               	bsf	25,6	;volatile
  2499                           
  2500                           ;pins.c: 306:             pinStates[PINB6] = value;
  2501  01CC  0870               	movf	writePin@value,w
  2502  01CD  00F1               	movwf	??_writePin
  2503  01CE  0871               	movf	??_writePin,w
  2504  01CF  0141               	movlb	1	; select bank1
  2505  01D0  00A7               	movwf	(_pinStates^(0+128)+7)
  2506                           
  2507                           ;pins.c: 307:             break;
  2508  01D1  0008               	return
  2509  01D2                     l1653:	
  2510                           
  2511                           ;pins.c: 309:             LATBbits.LATB7 = value;
  2512  01D2  0C70               	rrf	writePin@value,w
  2513  01D3  0140               	movlb	0	; select bank0
  2514  01D4  1C03               	skipc
  2515  01D5  1399               	bcf	25,7	;volatile
  2516  01D6  1803               	skipnc
  2517  01D7  1799               	bsf	25,7	;volatile
  2518                           
  2519                           ;pins.c: 310:             pinStates[PINB7] = value;
  2520  01D8  0870               	movf	writePin@value,w
  2521  01D9  00F1               	movwf	??_writePin
  2522  01DA  0871               	movf	??_writePin,w
  2523  01DB  0141               	movlb	1	; select bank1
  2524  01DC  00A8               	movwf	(_pinStates^(0+128)+8)
  2525                           
  2526                           ;pins.c: 311:             break;
  2527  01DD  0008               	return
  2528  01DE                     l1657:	
  2529                           
  2530                           ;pins.c: 313:             LATCbits.LATC0 = value;
  2531  01DE  0C70               	rrf	writePin@value,w
  2532  01DF  0140               	movlb	0	; select bank0
  2533  01E0  1C03               	skipc
  2534  01E1  101A               	bcf	26,0	;volatile
  2535  01E2  1803               	skipnc
  2536  01E3  141A               	bsf	26,0	;volatile
  2537                           
  2538                           ;pins.c: 314:             pinStates[PINC0] = value;
  2539  01E4  0870               	movf	writePin@value,w
  2540  01E5  00F1               	movwf	??_writePin
  2541  01E6  0871               	movf	??_writePin,w
  2542  01E7  0141               	movlb	1	; select bank1
  2543  01E8  00A9               	movwf	(_pinStates^(0+128)+9)
  2544                           
  2545                           ;pins.c: 315:             break;
  2546  01E9  0008               	return
  2547  01EA                     l1661:	
  2548                           
  2549                           ;pins.c: 317:             LATCbits.LATC1 = value;
  2550  01EA  0C70               	rrf	writePin@value,w
  2551  01EB  0140               	movlb	0	; select bank0
  2552  01EC  1C03               	skipc
  2553  01ED  109A               	bcf	26,1	;volatile
  2554  01EE  1803               	skipnc
  2555  01EF  149A               	bsf	26,1	;volatile
  2556                           
  2557                           ;pins.c: 318:             pinStates[PINC1] = value;
  2558  01F0  0870               	movf	writePin@value,w
  2559  01F1  00F1               	movwf	??_writePin
  2560  01F2  0871               	movf	??_writePin,w
  2561  01F3  0141               	movlb	1	; select bank1
  2562  01F4  00AA               	movwf	(_pinStates^(0+128)+10)
  2563                           
  2564                           ;pins.c: 319:             break;
  2565  01F5  0008               	return
  2566  01F6                     l1665:	
  2567                           
  2568                           ;pins.c: 321:             LATCbits.LATC2 = value;
  2569  01F6  0C70               	rrf	writePin@value,w
  2570  01F7  0140               	movlb	0	; select bank0
  2571  01F8  1C03               	skipc
  2572  01F9  111A               	bcf	26,2	;volatile
  2573  01FA  1803               	skipnc
  2574  01FB  151A               	bsf	26,2	;volatile
  2575                           
  2576                           ;pins.c: 322:             pinStates[PINC2] = value;
  2577  01FC  0870               	movf	writePin@value,w
  2578  01FD  00F1               	movwf	??_writePin
  2579  01FE  0871               	movf	??_writePin,w
  2580  01FF  0141               	movlb	1	; select bank1
  2581  0200  00AB               	movwf	(_pinStates^(0+128)+11)
  2582                           
  2583                           ;pins.c: 323:             break;
  2584  0201  0008               	return
  2585  0202                     l1669:	
  2586                           
  2587                           ;pins.c: 325:             LATCbits.LATC3 = value;
  2588  0202  0C70               	rrf	writePin@value,w
  2589  0203  0140               	movlb	0	; select bank0
  2590  0204  1C03               	skipc
  2591  0205  119A               	bcf	26,3	;volatile
  2592  0206  1803               	skipnc
  2593  0207  159A               	bsf	26,3	;volatile
  2594                           
  2595                           ;pins.c: 326:             pinStates[PINC3] = value;
  2596  0208  0870               	movf	writePin@value,w
  2597  0209  00F1               	movwf	??_writePin
  2598  020A  0871               	movf	??_writePin,w
  2599  020B  0141               	movlb	1	; select bank1
  2600  020C  00AC               	movwf	(_pinStates^(0+128)+12)
  2601                           
  2602                           ;pins.c: 327:             break;
  2603  020D  0008               	return
  2604  020E                     l1673:	
  2605                           
  2606                           ;pins.c: 329:             LATCbits.LATC4 = value;
  2607  020E  0C70               	rrf	writePin@value,w
  2608  020F  0140               	movlb	0	; select bank0
  2609  0210  1C03               	skipc
  2610  0211  121A               	bcf	26,4	;volatile
  2611  0212  1803               	skipnc
  2612  0213  161A               	bsf	26,4	;volatile
  2613                           
  2614                           ;pins.c: 330:             pinStates[PINC4] = value;
  2615  0214  0870               	movf	writePin@value,w
  2616  0215  00F1               	movwf	??_writePin
  2617  0216  0871               	movf	??_writePin,w
  2618  0217  0141               	movlb	1	; select bank1
  2619  0218  00AD               	movwf	(_pinStates^(0+128)+13)
  2620                           
  2621                           ;pins.c: 331:             break;
  2622  0219  0008               	return
  2623  021A                     l1677:	
  2624                           
  2625                           ;pins.c: 333:             LATCbits.LATC5 = value;
  2626  021A  0C70               	rrf	writePin@value,w
  2627  021B  0140               	movlb	0	; select bank0
  2628  021C  1C03               	skipc
  2629  021D  129A               	bcf	26,5	;volatile
  2630  021E  1803               	skipnc
  2631  021F  169A               	bsf	26,5	;volatile
  2632                           
  2633                           ;pins.c: 334:             pinStates[PINC5] = value;
  2634  0220  0870               	movf	writePin@value,w
  2635  0221  00F1               	movwf	??_writePin
  2636  0222  0871               	movf	??_writePin,w
  2637  0223  0141               	movlb	1	; select bank1
  2638  0224  00AE               	movwf	(_pinStates^(0+128)+14)
  2639                           
  2640                           ;pins.c: 335:             break;
  2641  0225  0008               	return
  2642  0226                     l1681:	
  2643                           
  2644                           ;pins.c: 337:             LATCbits.LATC6 = value;
  2645  0226  0C70               	rrf	writePin@value,w
  2646  0227  0140               	movlb	0	; select bank0
  2647  0228  1C03               	skipc
  2648  0229  131A               	bcf	26,6	;volatile
  2649  022A  1803               	skipnc
  2650  022B  171A               	bsf	26,6	;volatile
  2651                           
  2652                           ;pins.c: 338:             pinStates[PINC6] = value;
  2653  022C  0870               	movf	writePin@value,w
  2654  022D  00F1               	movwf	??_writePin
  2655  022E  0871               	movf	??_writePin,w
  2656  022F  0141               	movlb	1	; select bank1
  2657  0230  00AF               	movwf	(_pinStates^(0+128)+15)
  2658                           
  2659                           ;pins.c: 339:             break;
  2660  0231  0008               	return
  2661  0232                     l1685:	
  2662                           
  2663                           ;pins.c: 341:             LATCbits.LATC7 = value;
  2664  0232  0C70               	rrf	writePin@value,w
  2665  0233  0140               	movlb	0	; select bank0
  2666  0234  1C03               	skipc
  2667  0235  139A               	bcf	26,7	;volatile
  2668  0236  1803               	skipnc
  2669  0237  179A               	bsf	26,7	;volatile
  2670                           
  2671                           ;pins.c: 342:             pinStates[PINC7] = value;
  2672  0238  0870               	movf	writePin@value,w
  2673  0239  00F1               	movwf	??_writePin
  2674  023A  0871               	movf	??_writePin,w
  2675  023B  0141               	movlb	1	; select bank1
  2676  023C  00B0               	movwf	(_pinStates^(0+128)+16)
  2677                           
  2678                           ;pins.c: 343:             break;
  2679  023D  0008               	return
  2680  023E                     l1691:	
  2681  023E  0873               	movf	writePin@write,w
  2682  023F  00F1               	movwf	??_writePin
  2683  0240  01F2               	clrf	??_writePin+1
  2684                           
  2685                           ; Switch on 2 bytes has been partitioned into a top level switch of size 1, and 1 sub-sw
      +                          itches
  2686                           ; Switch size 1, requested type "simple"
  2687                           ; Number of cases is 1, Range of values is 0 to 0
  2688                           ; switch strategies available:
  2689                           ; Name         Instructions Cycles
  2690                           ; simple_byte            4     3 (average)
  2691                           ; direct_byte            8     6 (fixed)
  2692                           ; jumptable            260     6 (fixed)
  2693                           ;	Chosen strategy is simple_byte
  2694  0241  0872               	movf	??_writePin+1,w
  2695  0242  3A00               	xorlw	0	; case 0
  2696  0243  1903               	skipnz
  2697  0244  2A46               	goto	l1803
  2698  0245  2A7B               	goto	l199
  2699  0246                     l1803:	
  2700                           
  2701                           ; Switch size 1, requested type "simple"
  2702                           ; Number of cases is 17, Range of values is 0 to 16
  2703                           ; switch strategies available:
  2704                           ; Name         Instructions Cycles
  2705                           ; direct_byte           40     6 (fixed)
  2706                           ; simple_byte           52    27 (average)
  2707                           ; jumptable            260     6 (fixed)
  2708                           ;	Chosen strategy is simple_byte
  2709  0246  0871               	movf	??_writePin,w
  2710  0247  3A00               	xorlw	0	; case 0
  2711  0248  1903               	skipnz
  2712  0249  2972               	goto	l1621
  2713  024A  3A01               	xorlw	1	; case 1
  2714  024B  1903               	skipnz
  2715  024C  297E               	goto	l1625
  2716  024D  3A03               	xorlw	3	; case 2
  2717  024E  1903               	skipnz
  2718  024F  298A               	goto	l1629
  2719  0250  3A01               	xorlw	1	; case 3
  2720  0251  1903               	skipnz
  2721  0252  2996               	goto	l1633
  2722  0253  3A07               	xorlw	7	; case 4
  2723  0254  1903               	skipnz
  2724  0255  29A2               	goto	l1637
  2725  0256  3A01               	xorlw	1	; case 5
  2726  0257  1903               	skipnz
  2727  0258  29AE               	goto	l1641
  2728  0259  3A03               	xorlw	3	; case 6
  2729  025A  1903               	skipnz
  2730  025B  29BA               	goto	l1645
  2731  025C  3A01               	xorlw	1	; case 7
  2732  025D  1903               	skipnz
  2733  025E  29C6               	goto	l1649
  2734  025F  3A0F               	xorlw	15	; case 8
  2735  0260  1903               	skipnz
  2736  0261  29D2               	goto	l1653
  2737  0262  3A01               	xorlw	1	; case 9
  2738  0263  1903               	skipnz
  2739  0264  29DE               	goto	l1657
  2740  0265  3A03               	xorlw	3	; case 10
  2741  0266  1903               	skipnz
  2742  0267  29EA               	goto	l1661
  2743  0268  3A01               	xorlw	1	; case 11
  2744  0269  1903               	skipnz
  2745  026A  29F6               	goto	l1665
  2746  026B  3A07               	xorlw	7	; case 12
  2747  026C  1903               	skipnz
  2748  026D  2A02               	goto	l1669
  2749  026E  3A01               	xorlw	1	; case 13
  2750  026F  1903               	skipnz
  2751  0270  2A0E               	goto	l1673
  2752  0271  3A03               	xorlw	3	; case 14
  2753  0272  1903               	skipnz
  2754  0273  2A1A               	goto	l1677
  2755  0274  3A01               	xorlw	1	; case 15
  2756  0275  1903               	skipnz
  2757  0276  2A26               	goto	l1681
  2758  0277  3A1F               	xorlw	31	; case 16
  2759  0278  1903               	skipnz
  2760  0279  2A32               	goto	l1685
  2761  027A  2A7B               	goto	l199
  2762  027B                     l199:	
  2763  027B  0008               	return
  2764  027C                     __end_of_writePin:	
  2765                           
  2766                           	psect	text2
  2767  0382                     __ptext2:	
  2768 ;; *************** function _shuffle *****************
  2769 ;; Defined at:
  2770 ;;		line 347 in file "pins.c"
  2771 ;; Parameters:    Size  Location     Type
  2772 ;;  array           1    wreg     PTR enum E11183
  2773 ;;		 -> main@output(5), main@input(5), 
  2774 ;;  size            2   32[BANK0 ] int 
  2775 ;; Auto vars:     Size  Location     Type
  2776 ;;  array           1   42[BANK0 ] PTR enum E11183
  2777 ;;		 -> main@output(5), main@input(5), 
  2778 ;;  j               2   40[BANK0 ] int 
  2779 ;;  temp            1   39[BANK0 ] enum E11183
  2780 ;;  i               2   43[BANK0 ] int 
  2781 ;; Return value:  Size  Location     Type
  2782 ;;                  1    wreg      void 
  2783 ;; Registers used:
  2784 ;;		wreg, fsr1l, fsr1h, status,2, status,0, pclath, cstack
  2785 ;; Tracked objects:
  2786 ;;		On entry : 0/0
  2787 ;;		On exit  : 0/0
  2788 ;;		Unchanged: 0/0
  2789 ;; Data sizes:     COMMON   BANK0   BANK1   BANK2   BANK3   BANK4   BANK5   BANK6   BANK7   BANK8   BANK9  BANK10  BANK1
      +1  BANK12  BANK13  BANK14  BANK15  BANK16  BANK17  BANK18  BANK19  BANK20  BANK21  BANK22  BANK23  BANK24  BANK25
  2790 ;;      Params:         0       2       0       0       0       0       0       0       0       0       0       0       
      +0       0       0       0       0       0       0       0       0       0       0       0       0       0       0
  2791 ;;      Locals:         0       8       0       0       0       0       0       0       0       0       0       0       
      +0       0       0       0       0       0       0       0       0       0       0       0       0       0       0
  2792 ;;      Temps:          0       3       0       0       0       0       0       0       0       0       0       0       
      +0       0       0       0       0       0       0       0       0       0       0       0       0       0       0
  2793 ;;      Totals:         0      13       0       0       0       0       0       0       0       0       0       0       
      +0       0       0       0       0       0       0       0       0       0       0       0       0       0       0
  2794 ;;Total ram usage:       13 bytes
  2795 ;; Hardware stack levels used:    1
  2796 ;; Hardware stack levels required when called:    3
  2797 ;; This function calls:
  2798 ;;		___awdiv
  2799 ;;		_rand
  2800 ;; This function is called by:
  2801 ;;		_main
  2802 ;; This function uses a non-reentrant model
  2803 ;;
  2804                           
  2805                           
  2806                           ;psect for function _shuffle
  2807  0382                     _shuffle:	
  2808                           
  2809                           ;incstack = 0
  2810                           ; Regs used in _shuffle: [wreg+fsr1l+fsr1h+status,2+status,0+pclath+cstack]
  2811                           ;shuffle@array stored from wreg
  2812  0382  0140               	movlb	0	; select bank0
  2813  0383  00CA               	movwf	shuffle@array
  2814                           
  2815                           ;pins.c: 348:     if(size > 1) {
  2816  0384  0841               	movf	shuffle@size+1,w
  2817  0385  3A80               	xorlw	128
  2818  0386  00C2               	movwf	??_shuffle
  2819  0387  3080               	movlw	128
  2820  0388  0242               	subwf	??_shuffle,w
  2821  0389  1D03               	skipz
  2822  038A  2B8D               	goto	u535
  2823  038B  3002               	movlw	2
  2824  038C  0240               	subwf	shuffle@size,w
  2825  038D                     u535:	
  2826  038D  1C03               	skipc
  2827  038E  0008               	return
  2828                           
  2829                           ;pins.c: 349:         int i;;pins.c: 350:         for(i = 0; i < size - 1; i++) {
  2830  038F  0140               	movlb	0	; select bank0
  2831  0390  01CB               	clrf	shuffle@i
  2832  0391  01CC               	clrf	shuffle@i+1
  2833  0392                     l1409:	
  2834  0392  0840               	movf	shuffle@size,w
  2835  0393  3EFF               	addlw	255
  2836  0394  00C2               	movwf	??_shuffle
  2837  0395  30FF               	movlw	255
  2838  0396  3D41               	addwfc	shuffle@size+1,w
  2839  0397  00C3               	movwf	??_shuffle+1
  2840  0398  084C               	movf	shuffle@i+1,w
  2841  0399  3A80               	xorlw	128
  2842  039A  00C4               	movwf	??_shuffle+2
  2843  039B  0843               	movf	??_shuffle+1,w
  2844  039C  3A80               	xorlw	128
  2845  039D  0244               	subwf	??_shuffle+2,w
  2846  039E  1D03               	skipz
  2847  039F  2BA2               	goto	u545
  2848  03A0  0842               	movf	??_shuffle,w
  2849  03A1  024B               	subwf	shuffle@i,w
  2850  03A2                     u545:	
  2851  03A2  1803               	btfsc	3,0
  2852  03A3  0008               	return
  2853                           
  2854                           ;pins.c: 351:             int j = i + rand() / ((0x7fff) / (size - i) + 1);
  2855  03A4  0140               	movlb	0	; select bank0
  2856  03A5  084B               	movf	shuffle@i,w
  2857  03A6  0240               	subwf	shuffle@size,w
  2858  03A7  00B8               	movwf	___awdiv@divisor
  2859  03A8  084C               	movf	shuffle@i+1,w
  2860  03A9  3B41               	subwfb	shuffle@size+1,w
  2861  03AA  00B9               	movwf	___awdiv@divisor+1
  2862  03AB  30FF               	movlw	255
  2863  03AC  00BA               	movwf	___awdiv@dividend
  2864  03AD  307F               	movlw	127
  2865  03AE  00BB               	movwf	___awdiv@dividend+1
  2866  03AF  3183  23F8  3183   	fcall	___awdiv
  2867  03B2  0140               	movlb	0	; select bank0
  2868  03B3  0838               	movf	?___awdiv,w
  2869  03B4  3E01               	addlw	1
  2870  03B5  00C5               	movwf	_shuffle$1250
  2871  03B6  3000               	movlw	0
  2872  03B7  3D39               	addwfc	?___awdiv+1,w
  2873  03B8  00C6               	movwf	_shuffle$1250+1
  2874                           
  2875                           ;pins.c: 351:             int j = i + rand() / ((0x7fff) / (size - i) + 1);
  2876  03B9  0846               	movf	_shuffle$1250+1,w
  2877  03BA  00B9               	movwf	___awdiv@divisor+1
  2878  03BB  0845               	movf	_shuffle$1250,w
  2879  03BC  00B8               	movwf	___awdiv@divisor
  2880  03BD  3183  2303  3183   	fcall	_rand
  2881  03C0  087A               	movf	?_rand+1,w
  2882  03C1  0140               	movlb	0	; select bank0
  2883  03C2  00BB               	movwf	___awdiv@dividend+1
  2884  03C3  0879               	movf	?_rand,w
  2885  03C4  00BA               	movwf	___awdiv@dividend
  2886  03C5  3183  23F8  3183   	fcall	___awdiv
  2887  03C8  0140               	movlb	0	; select bank0
  2888  03C9  084B               	movf	shuffle@i,w
  2889  03CA  0738               	addwf	?___awdiv,w
  2890  03CB  00C8               	movwf	shuffle@j
  2891  03CC  084C               	movf	shuffle@i+1,w
  2892  03CD  3D39               	addwfc	?___awdiv+1,w
  2893  03CE  00C9               	movwf	shuffle@j+1
  2894                           
  2895                           ;pins.c: 352:             pins_t temp = array[j];
  2896  03CF  0848               	movf	shuffle@j,w
  2897  03D0  074A               	addwf	shuffle@array,w
  2898  03D1  00C2               	movwf	??_shuffle
  2899  03D2  0842               	movf	??_shuffle,w
  2900  03D3  0086               	movwf	6
  2901  03D4  0187               	clrf	7
  2902  03D5  0801               	movf	1,w
  2903  03D6  00C3               	movwf	??_shuffle+1
  2904  03D7  0843               	movf	??_shuffle+1,w
  2905  03D8  00C7               	movwf	shuffle@temp
  2906                           
  2907                           ;pins.c: 353:             array[j] = array [i];
  2908  03D9  084B               	movf	shuffle@i,w
  2909  03DA  074A               	addwf	shuffle@array,w
  2910  03DB  00C2               	movwf	??_shuffle
  2911  03DC  0842               	movf	??_shuffle,w
  2912  03DD  0086               	movwf	6
  2913  03DE  0187               	clrf	7
  2914  03DF  0801               	movf	1,w
  2915  03E0  00C3               	movwf	??_shuffle+1
  2916  03E1  0848               	movf	shuffle@j,w
  2917  03E2  074A               	addwf	shuffle@array,w
  2918  03E3  00C4               	movwf	??_shuffle+2
  2919  03E4  0844               	movf	??_shuffle+2,w
  2920  03E5  0086               	movwf	6
  2921  03E6  0187               	clrf	7
  2922  03E7  0843               	movf	??_shuffle+1,w
  2923  03E8  0081               	movwf	1
  2924                           
  2925                           ;pins.c: 354:             array[i] = temp;
  2926  03E9  0847               	movf	shuffle@temp,w
  2927  03EA  00C2               	movwf	??_shuffle
  2928  03EB  084B               	movf	shuffle@i,w
  2929  03EC  074A               	addwf	shuffle@array,w
  2930  03ED  00C3               	movwf	??_shuffle+1
  2931  03EE  0843               	movf	??_shuffle+1,w
  2932  03EF  0086               	movwf	6
  2933  03F0  0187               	clrf	7
  2934  03F1  0842               	movf	??_shuffle,w
  2935  03F2  0081               	movwf	1
  2936                           
  2937                           ;pins.c: 355:         }
  2938  03F3  3001               	movlw	1
  2939  03F4  07CB               	addwf	shuffle@i,f
  2940  03F5  3000               	movlw	0
  2941  03F6  3DCC               	addwfc	shuffle@i+1,f
  2942  03F7  2B92               	goto	l1409
  2943  03F8                     __end_of_shuffle:	
  2944                           
  2945                           	psect	text3
  2946  0303                     __ptext3:	
  2947 ;; *************** function _rand *****************
  2948 ;; Defined at:
  2949 ;;		line 15 in file "C:\Program Files (x86)\Microchip\xc8\v2.05\pic\sources\c99\common\rand.c"
  2950 ;; Parameters:    Size  Location     Type
  2951 ;;		None
  2952 ;; Auto vars:     Size  Location     Type
  2953 ;;		None
  2954 ;; Return value:  Size  Location     Type
  2955 ;;                  2    9[COMMON] int 
  2956 ;; Registers used:
  2957 ;;		wreg, fsr1l, fsr1h, status,2, status,0, pclath, cstack
  2958 ;; Tracked objects:
  2959 ;;		On entry : 0/0
  2960 ;;		On exit  : 0/0
  2961 ;;		Unchanged: 0/0
  2962 ;; Data sizes:     COMMON   BANK0   BANK1   BANK2   BANK3   BANK4   BANK5   BANK6   BANK7   BANK8   BANK9  BANK10  BANK1
      +1  BANK12  BANK13  BANK14  BANK15  BANK16  BANK17  BANK18  BANK19  BANK20  BANK21  BANK22  BANK23  BANK24  BANK25
  2963 ;;      Params:         2       0       0       0       0       0       0       0       0       0       0       0       
      +0       0       0       0       0       0       0       0       0       0       0       0       0       0       0
  2964 ;;      Locals:         0       0       0       0       0       0       0       0       0       0       0       0       
      +0       0       0       0       0       0       0       0       0       0       0       0       0       0       0
  2965 ;;      Temps:          0       8       0       0       0       0       0       0       0       0       0       0       
      +0       0       0       0       0       0       0       0       0       0       0       0       0       0       0
  2966 ;;      Totals:         2       8       0       0       0       0       0       0       0       0       0       0       
      +0       0       0       0       0       0       0       0       0       0       0       0       0       0       0
  2967 ;;Total ram usage:       10 bytes
  2968 ;; Hardware stack levels used:    1
  2969 ;; Hardware stack levels required when called:    2
  2970 ;; This function calls:
  2971 ;;		___omul
  2972 ;; This function is called by:
  2973 ;;		_shuffle
  2974 ;; This function uses a non-reentrant model
  2975 ;;
  2976                           
  2977                           
  2978                           ;psect for function _rand
  2979  0303                     _rand:	
  2980                           
  2981                           ;incstack = 0
  2982                           ; Regs used in _rand: [wreg+fsr1l+fsr1h+status,2+status,0+pclath+cstack]
  2983  0303  3001               	movlw	1
  2984  0304  0140               	movlb	0	; select bank0
  2985  0305  00B0               	movwf	??_rand
  2986  0306  3000               	movlw	0
  2987  0307  00B1               	movwf	??_rand+1
  2988  0308  3000               	movlw	0
  2989  0309  00B2               	movwf	??_rand+2
  2990  030A  3000               	movlw	0
  2991  030B  00B3               	movwf	??_rand+3
  2992  030C  3000               	movlw	0
  2993  030D  00B4               	movwf	??_rand+4
  2994  030E  3000               	movlw	0
  2995  030F  00B5               	movwf	??_rand+5
  2996  0310  3000               	movlw	0
  2997  0311  00B6               	movwf	??_rand+6
  2998  0312  3000               	movlw	0
  2999  0313  00B7               	movwf	??_rand+7
  3000  0314  0862               	movf	_seed,w
  3001  0315  00A0               	movwf	___omul@multiplier
  3002  0316  0863               	movf	_seed+1,w
  3003  0317  00A1               	movwf	___omul@multiplier+1
  3004  0318  0864               	movf	_seed+2,w
  3005  0319  00A2               	movwf	___omul@multiplier+2
  3006  031A  0865               	movf	_seed+3,w
  3007  031B  00A3               	movwf	___omul@multiplier+3
  3008  031C  0866               	movf	_seed+4,w
  3009  031D  00A4               	movwf	___omul@multiplier+4
  3010  031E  0867               	movf	_seed+5,w
  3011  031F  00A5               	movwf	___omul@multiplier+5
  3012  0320  0868               	movf	_seed+6,w
  3013  0321  00A6               	movwf	___omul@multiplier+6
  3014  0322  0869               	movf	_seed+7,w
  3015  0323  00A7               	movwf	___omul@multiplier+7
  3016  0324  3058               	movlw	88
  3017  0325  00AF               	movwf	___omul@multiplicand+7
  3018  0326  3051               	movlw	81
  3019  0327  00AE               	movwf	___omul@multiplicand+6
  3020  0328  30F4               	movlw	244
  3021  0329  00AD               	movwf	___omul@multiplicand+5
  3022  032A  302D               	movlw	45
  3023  032B  00AC               	movwf	___omul@multiplicand+4
  3024  032C  304C               	movlw	76
  3025  032D  00AB               	movwf	___omul@multiplicand+3
  3026  032E  3095               	movlw	149
  3027  032F  00AA               	movwf	___omul@multiplicand+2
  3028  0330  307F               	movlw	127
  3029  0331  00A9               	movwf	___omul@multiplicand+1
  3030  0332  302D               	movlw	45
  3031  0333  00A8               	movwf	___omul@multiplicand
  3032  0334  3184  2499  3183   	fcall	___omul
  3033  0337  0140               	movlb	0	; select bank0
  3034  0338  3020               	movlw	low ?___omul
  3035  0339  0086               	movwf	6
  3036  033A  3000               	movlw	high ?___omul
  3037  033B  0087               	movwf	7
  3038  033C  3F40               	moviw [0]fsr1
  3039  033D  07B0               	addwf	??_rand,f
  3040  033E  3F41               	moviw [1]fsr1
  3041  033F  3DB1               	addwfc	??_rand+1,f
  3042  0340  3F42               	moviw [2]fsr1
  3043  0341  3DB2               	addwfc	??_rand+2,f
  3044  0342  3F43               	moviw [3]fsr1
  3045  0343  3DB3               	addwfc	??_rand+3,f
  3046  0344  3F44               	moviw [4]fsr1
  3047  0345  3DB4               	addwfc	??_rand+4,f
  3048  0346  3F45               	moviw [5]fsr1
  3049  0347  3DB5               	addwfc	??_rand+5,f
  3050  0348  3F46               	moviw [6]fsr1
  3051  0349  3DB6               	addwfc	??_rand+6,f
  3052  034A  3F47               	moviw [7]fsr1
  3053  034B  3DB7               	addwfc	??_rand+7,f
  3054  034C  0837               	movf	??_rand+7,w
  3055  034D  00E9               	movwf	_seed+7
  3056  034E  0836               	movf	??_rand+6,w
  3057  034F  00E8               	movwf	_seed+6
  3058  0350  0835               	movf	??_rand+5,w
  3059  0351  00E7               	movwf	_seed+5
  3060  0352  0834               	movf	??_rand+4,w
  3061  0353  00E6               	movwf	_seed+4
  3062  0354  0833               	movf	??_rand+3,w
  3063  0355  00E5               	movwf	_seed+3
  3064  0356  0832               	movf	??_rand+2,w
  3065  0357  00E4               	movwf	_seed+2
  3066  0358  0831               	movf	??_rand+1,w
  3067  0359  00E3               	movwf	_seed+1
  3068  035A  0830               	movf	??_rand,w
  3069  035B  00E2               	movwf	_seed
  3070  035C  3062               	movlw	low _seed
  3071  035D  0086               	movwf	6
  3072  035E  3000               	movlw	high _seed
  3073  035F  0087               	movwf	7
  3074  0360  3F40               	moviw [0]fsr1
  3075  0361  00B0               	movwf	??_rand
  3076  0362  3F41               	moviw [1]fsr1
  3077  0363  00B1               	movwf	??_rand+1
  3078  0364  3F42               	moviw [2]fsr1
  3079  0365  00B2               	movwf	??_rand+2
  3080  0366  3F43               	moviw [3]fsr1
  3081  0367  00B3               	movwf	??_rand+3
  3082  0368  3F44               	moviw [4]fsr1
  3083  0369  00B4               	movwf	??_rand+4
  3084  036A  3F45               	moviw [5]fsr1
  3085  036B  00B5               	movwf	??_rand+5
  3086  036C  3F46               	moviw [6]fsr1
  3087  036D  00B6               	movwf	??_rand+6
  3088  036E  3F47               	moviw [7]fsr1
  3089  036F  00B7               	movwf	??_rand+7
  3090  0370  3007               	movlw	7
  3091  0371                     u425:	
  3092  0371  0140               	movlb	0	; select bank0
  3093  0372  36B7               	lsrf	??_rand+7,f
  3094  0373  0CB6               	rrf	??_rand+6,f
  3095  0374  0CB5               	rrf	??_rand+5,f
  3096  0375  0CB4               	rrf	??_rand+4,f
  3097  0376  0CB3               	rrf	??_rand+3,f
  3098  0377  0CB2               	rrf	??_rand+2,f
  3099  0378  0CB1               	rrf	??_rand+1,f
  3100  0379  0CB0               	rrf	??_rand,f
  3101  037A  0B89               	decfsz	9,f
  3102  037B  2B71               	goto	u425
  3103  037C  0140               	movlb	0	; select bank0
  3104  037D  0831               	movf	??_rand+1,w
  3105  037E  00FA               	movwf	?_rand+1
  3106  037F  0830               	movf	??_rand,w
  3107  0380  00F9               	movwf	?_rand
  3108  0381  0008               	return
  3109  0382                     __end_of_rand:	
  3110                           
  3111                           	psect	text4
  3112  0499                     __ptext4:	
  3113 ;; *************** function ___omul *****************
  3114 ;; Defined at:
  3115 ;;		line 91 in file "C:\Program Files (x86)\Microchip\xc8\v2.05\pic\sources\c99\common\Umul64.c"
  3116 ;; Parameters:    Size  Location     Type
  3117 ;;  multiplier      8    0[BANK0 ] unsigned long long 
  3118 ;;  multiplicand    8    8[BANK0 ] unsigned long long 
  3119 ;; Auto vars:     Size  Location     Type
  3120 ;;  product         8    1[COMMON] unsigned long long 
  3121 ;; Return value:  Size  Location     Type
  3122 ;;                  8    0[BANK0 ] unsigned long long 
  3123 ;; Registers used:
  3124 ;;		wreg, fsr1l, fsr1h, status,2, status,0
  3125 ;; Tracked objects:
  3126 ;;		On entry : 0/0
  3127 ;;		On exit  : 0/0
  3128 ;;		Unchanged: 0/0
  3129 ;; Data sizes:     COMMON   BANK0   BANK1   BANK2   BANK3   BANK4   BANK5   BANK6   BANK7   BANK8   BANK9  BANK10  BANK1
      +1  BANK12  BANK13  BANK14  BANK15  BANK16  BANK17  BANK18  BANK19  BANK20  BANK21  BANK22  BANK23  BANK24  BANK25
  3130 ;;      Params:         0      16       0       0       0       0       0       0       0       0       0       0       
      +0       0       0       0       0       0       0       0       0       0       0       0       0       0       0
  3131 ;;      Locals:         8       0       0       0       0       0       0       0       0       0       0       0       
      +0       0       0       0       0       0       0       0       0       0       0       0       0       0       0
  3132 ;;      Temps:          1       0       0       0       0       0       0       0       0       0       0       0       
      +0       0       0       0       0       0       0       0       0       0       0       0       0       0       0
  3133 ;;      Totals:         9      16       0       0       0       0       0       0       0       0       0       0       
      +0       0       0       0       0       0       0       0       0       0       0       0       0       0       0
  3134 ;;Total ram usage:       25 bytes
  3135 ;; Hardware stack levels used:    1
  3136 ;; Hardware stack levels required when called:    1
  3137 ;; This function calls:
  3138 ;;		Nothing
  3139 ;; This function is called by:
  3140 ;;		_rand
  3141 ;; This function uses a non-reentrant model
  3142 ;;
  3143                           
  3144                           
  3145                           ;psect for function ___omul
  3146  0499                     ___omul:	
  3147                           
  3148                           ;incstack = 0
  3149                           ; Regs used in ___omul: [wreg+fsr1l+fsr1h+status,2+status,0]
  3150  0499  3071               	movlw	low ___omul@product
  3151  049A  0086               	movwf	6
  3152  049B  3000               	movlw	high ___omul@product
  3153  049C  0087               	movwf	7
  3154  049D  3008               	movlw	8
  3155  049E  00F0               	movwf	??___omul
  3156  049F  3000               	movlw	0
  3157  04A0                     u390:	
  3158  04A0  001E               	movwi fsr1++
  3159  04A1  0BF0               	decfsz	??___omul,f
  3160  04A2  2CA0               	goto	u390
  3161  04A3                     l1335:	
  3162  04A3  0140               	movlb	0	; select bank0
  3163  04A4  1C20               	btfss	___omul@multiplier,0
  3164  04A5  2CB6               	goto	l1339
  3165  04A6  0828               	movf	___omul@multiplicand,w
  3166  04A7  07F1               	addwf	___omul@product,f
  3167  04A8  0829               	movf	___omul@multiplicand+1,w
  3168  04A9  3DF2               	addwfc	___omul@product+1,f
  3169  04AA  082A               	movf	___omul@multiplicand+2,w
  3170  04AB  3DF3               	addwfc	___omul@product+2,f
  3171  04AC  082B               	movf	___omul@multiplicand+3,w
  3172  04AD  3DF4               	addwfc	___omul@product+3,f
  3173  04AE  082C               	movf	___omul@multiplicand+4,w
  3174  04AF  3DF5               	addwfc	___omul@product+4,f
  3175  04B0  082D               	movf	___omul@multiplicand+5,w
  3176  04B1  3DF6               	addwfc	___omul@product+5,f
  3177  04B2  082E               	movf	___omul@multiplicand+6,w
  3178  04B3  3DF7               	addwfc	___omul@product+6,f
  3179  04B4  082F               	movf	___omul@multiplicand+7,w
  3180  04B5  3DF8               	addwfc	___omul@product+7,f
  3181  04B6                     l1339:	
  3182  04B6  35A8               	lslf	___omul@multiplicand,f
  3183  04B7  0DA9               	rlf	___omul@multiplicand+1,f
  3184  04B8  0DAA               	rlf	___omul@multiplicand+2,f
  3185  04B9  0DAB               	rlf	___omul@multiplicand+3,f
  3186  04BA  0DAC               	rlf	___omul@multiplicand+4,f
  3187  04BB  0DAD               	rlf	___omul@multiplicand+5,f
  3188  04BC  0DAE               	rlf	___omul@multiplicand+6,f
  3189  04BD  0DAF               	rlf	___omul@multiplicand+7,f
  3190  04BE  36A7               	lsrf	___omul@multiplier+7,f
  3191  04BF  0CA6               	rrf	___omul@multiplier+6,f
  3192  04C0  0CA5               	rrf	___omul@multiplier+5,f
  3193  04C1  0CA4               	rrf	___omul@multiplier+4,f
  3194  04C2  0CA3               	rrf	___omul@multiplier+3,f
  3195  04C3  0CA2               	rrf	___omul@multiplier+2,f
  3196  04C4  0CA1               	rrf	___omul@multiplier+1,f
  3197  04C5  0CA0               	rrf	___omul@multiplier,f
  3198  04C6  0820               	movf	___omul@multiplier,w
  3199  04C7  0421               	iorwf	___omul@multiplier+1,w
  3200  04C8  0422               	iorwf	___omul@multiplier+2,w
  3201  04C9  0423               	iorwf	___omul@multiplier+3,w
  3202  04CA  0424               	iorwf	___omul@multiplier+4,w
  3203  04CB  0425               	iorwf	___omul@multiplier+5,w
  3204  04CC  0426               	iorwf	___omul@multiplier+6,w
  3205  04CD  0427               	iorwf	___omul@multiplier+7,w
  3206  04CE  1D03               	skipz
  3207  04CF  2CA3               	goto	l1335
  3208  04D0  0871               	movf	___omul@product,w
  3209  04D1  00A0               	movwf	?___omul
  3210  04D2  0872               	movf	___omul@product+1,w
  3211  04D3  00A1               	movwf	?___omul+1
  3212  04D4  0873               	movf	___omul@product+2,w
  3213  04D5  00A2               	movwf	?___omul+2
  3214  04D6  0874               	movf	___omul@product+3,w
  3215  04D7  00A3               	movwf	?___omul+3
  3216  04D8  0875               	movf	___omul@product+4,w
  3217  04D9  00A4               	movwf	?___omul+4
  3218  04DA  0876               	movf	___omul@product+5,w
  3219  04DB  00A5               	movwf	?___omul+5
  3220  04DC  0877               	movf	___omul@product+6,w
  3221  04DD  00A6               	movwf	?___omul+6
  3222  04DE  0878               	movf	___omul@product+7,w
  3223  04DF  00A7               	movwf	?___omul+7
  3224  04E0  0008               	return
  3225  04E1                     __end_of___omul:	
  3226                           
  3227                           	psect	text5
  3228  03F8                     __ptext5:	
  3229 ;; *************** function ___awdiv *****************
  3230 ;; Defined at:
  3231 ;;		line 5 in file "C:\Program Files (x86)\Microchip\xc8\v2.05\pic\sources\c99\common\awdiv.c"
  3232 ;; Parameters:    Size  Location     Type
  3233 ;;  divisor         2   24[BANK0 ] int 
  3234 ;;  dividend        2   26[BANK0 ] int 
  3235 ;; Auto vars:     Size  Location     Type
  3236 ;;  quotient        2   30[BANK0 ] int 
  3237 ;;  sign            1   29[BANK0 ] unsigned char 
  3238 ;;  counter         1   28[BANK0 ] unsigned char 
  3239 ;; Return value:  Size  Location     Type
  3240 ;;                  2   24[BANK0 ] int 
  3241 ;; Registers used:
  3242 ;;		wreg, status,2, status,0
  3243 ;; Tracked objects:
  3244 ;;		On entry : 0/0
  3245 ;;		On exit  : 0/0
  3246 ;;		Unchanged: 0/0
  3247 ;; Data sizes:     COMMON   BANK0   BANK1   BANK2   BANK3   BANK4   BANK5   BANK6   BANK7   BANK8   BANK9  BANK10  BANK1
      +1  BANK12  BANK13  BANK14  BANK15  BANK16  BANK17  BANK18  BANK19  BANK20  BANK21  BANK22  BANK23  BANK24  BANK25
  3248 ;;      Params:         0       4       0       0       0       0       0       0       0       0       0       0       
      +0       0       0       0       0       0       0       0       0       0       0       0       0       0       0
  3249 ;;      Locals:         0       4       0       0       0       0       0       0       0       0       0       0       
      +0       0       0       0       0       0       0       0       0       0       0       0       0       0       0
  3250 ;;      Temps:          1       0       0       0       0       0       0       0       0       0       0       0       
      +0       0       0       0       0       0       0       0       0       0       0       0       0       0       0
  3251 ;;      Totals:         1       8       0       0       0       0       0       0       0       0       0       0       
      +0       0       0       0       0       0       0       0       0       0       0       0       0       0       0
  3252 ;;Total ram usage:        9 bytes
  3253 ;; Hardware stack levels used:    1
  3254 ;; Hardware stack levels required when called:    1
  3255 ;; This function calls:
  3256 ;;		Nothing
  3257 ;; This function is called by:
  3258 ;;		_shuffle
  3259 ;; This function uses a non-reentrant model
  3260 ;;
  3261                           
  3262                           
  3263                           ;psect for function ___awdiv
  3264  03F8                     ___awdiv:	
  3265                           
  3266                           ;incstack = 0
  3267                           ; Regs used in ___awdiv: [wreg+status,2+status,0]
  3268  03F8  0140               	movlb	0	; select bank0
  3269  03F9  01BD               	clrf	___awdiv@sign
  3270  03FA  1FB9               	btfss	___awdiv@divisor+1,7
  3271  03FB  2C03               	goto	l1357
  3272  03FC  09B8               	comf	___awdiv@divisor,f
  3273  03FD  09B9               	comf	___awdiv@divisor+1,f
  3274  03FE  0AB8               	incf	___awdiv@divisor,f
  3275  03FF  1903               	skipnz
  3276  0400  0AB9               	incf	___awdiv@divisor+1,f
  3277  0401  01BD               	clrf	___awdiv@sign
  3278  0402  0ABD               	incf	___awdiv@sign,f
  3279  0403                     l1357:	
  3280  0403  1FBB               	btfss	___awdiv@dividend+1,7
  3281  0404  2C0E               	goto	l1363
  3282  0405  09BA               	comf	___awdiv@dividend,f
  3283  0406  09BB               	comf	___awdiv@dividend+1,f
  3284  0407  0ABA               	incf	___awdiv@dividend,f
  3285  0408  1903               	skipnz
  3286  0409  0ABB               	incf	___awdiv@dividend+1,f
  3287  040A  3001               	movlw	1
  3288  040B  00FB               	movwf	??___awdiv
  3289  040C  087B               	movf	??___awdiv,w
  3290  040D  06BD               	xorwf	___awdiv@sign,f
  3291  040E                     l1363:	
  3292  040E  01BE               	clrf	___awdiv@quotient
  3293  040F  01BF               	clrf	___awdiv@quotient+1
  3294  0410  0838               	movf	___awdiv@divisor,w
  3295  0411  0439               	iorwf	___awdiv@divisor+1,w
  3296  0412  1903               	btfsc	3,2
  3297  0413  2C3D               	goto	l1385
  3298  0414  01BC               	clrf	___awdiv@counter
  3299  0415  0ABC               	incf	___awdiv@counter,f
  3300  0416                     l1373:	
  3301  0416  1BB9               	btfsc	___awdiv@divisor+1,7
  3302  0417  2C22               	goto	l1375
  3303  0418  3001               	movlw	1
  3304  0419                     u465:	
  3305  0419  35B8               	lslf	___awdiv@divisor,f
  3306  041A  0DB9               	rlf	___awdiv@divisor+1,f
  3307  041B  0B89               	decfsz	9,f
  3308  041C  2C19               	goto	u465
  3309  041D  3001               	movlw	1
  3310  041E  00FB               	movwf	??___awdiv
  3311  041F  087B               	movf	??___awdiv,w
  3312  0420  07BC               	addwf	___awdiv@counter,f
  3313  0421  2C16               	goto	l1373
  3314  0422                     l1375:	
  3315  0422  3001               	movlw	1
  3316  0423                     u485:	
  3317  0423  35BE               	lslf	___awdiv@quotient,f
  3318  0424  0DBF               	rlf	___awdiv@quotient+1,f
  3319  0425  0B89               	decfsz	9,f
  3320  0426  2C23               	goto	u485
  3321  0427  0839               	movf	___awdiv@divisor+1,w
  3322  0428  023B               	subwf	___awdiv@dividend+1,w
  3323  0429  1D03               	skipz
  3324  042A  2C2D               	goto	u495
  3325  042B  0838               	movf	___awdiv@divisor,w
  3326  042C  023A               	subwf	___awdiv@dividend,w
  3327  042D                     u495:	
  3328  042D  1C03               	skipc
  3329  042E  2C34               	goto	l1381
  3330  042F  0838               	movf	___awdiv@divisor,w
  3331  0430  02BA               	subwf	___awdiv@dividend,f
  3332  0431  0839               	movf	___awdiv@divisor+1,w
  3333  0432  3BBB               	subwfb	___awdiv@dividend+1,f
  3334  0433  143E               	bsf	___awdiv@quotient,0
  3335  0434                     l1381:	
  3336  0434  3001               	movlw	1
  3337  0435                     u505:	
  3338  0435  36B9               	lsrf	___awdiv@divisor+1,f
  3339  0436  0CB8               	rrf	___awdiv@divisor,f
  3340  0437  0B89               	decfsz	9,f
  3341  0438  2C35               	goto	u505
  3342  0439  3001               	movlw	1
  3343  043A  02BC               	subwf	___awdiv@counter,f
  3344  043B  1D03               	btfss	3,2
  3345  043C  2C22               	goto	l1375
  3346  043D                     l1385:	
  3347  043D  083D               	movf	___awdiv@sign,w
  3348  043E  1903               	btfsc	3,2
  3349  043F  2C45               	goto	l1389
  3350  0440  09BE               	comf	___awdiv@quotient,f
  3351  0441  09BF               	comf	___awdiv@quotient+1,f
  3352  0442  0ABE               	incf	___awdiv@quotient,f
  3353  0443  1903               	skipnz
  3354  0444  0ABF               	incf	___awdiv@quotient+1,f
  3355  0445                     l1389:	
  3356  0445  083F               	movf	___awdiv@quotient+1,w
  3357  0446  00B9               	movwf	?___awdiv+1
  3358  0447  083E               	movf	___awdiv@quotient,w
  3359  0448  00B8               	movwf	?___awdiv
  3360  0449  0008               	return
  3361  044A                     __end_of___awdiv:	
  3362                           
  3363                           	psect	text6
  3364  027C                     __ptext6:	
  3365 ;; *************** function _readPin *****************
  3366 ;; Defined at:
  3367 ;;		line 167 in file "pins.c"
  3368 ;; Parameters:    Size  Location     Type
  3369 ;;  read            1    wreg     enum E11183
  3370 ;; Auto vars:     Size  Location     Type
  3371 ;;  read            1    2[COMMON] enum E11183
  3372 ;; Return value:  Size  Location     Type
  3373 ;;                  1    wreg      _Bool 
  3374 ;; Registers used:
  3375 ;;		wreg, fsr0l, fsr0h, status,2, status,0
  3376 ;; Tracked objects:
  3377 ;;		On entry : 0/0
  3378 ;;		On exit  : 0/0
  3379 ;;		Unchanged: 0/0
  3380 ;; Data sizes:     COMMON   BANK0   BANK1   BANK2   BANK3   BANK4   BANK5   BANK6   BANK7   BANK8   BANK9  BANK10  BANK1
      +1  BANK12  BANK13  BANK14  BANK15  BANK16  BANK17  BANK18  BANK19  BANK20  BANK21  BANK22  BANK23  BANK24  BANK25
  3381 ;;      Params:         0       0       0       0       0       0       0       0       0       0       0       0       
      +0       0       0       0       0       0       0       0       0       0       0       0       0       0       0
  3382 ;;      Locals:         1       0       0       0       0       0       0       0       0       0       0       0       
      +0       0       0       0       0       0       0       0       0       0       0       0       0       0       0
  3383 ;;      Temps:          2       0       0       0       0       0       0       0       0       0       0       0       
      +0       0       0       0       0       0       0       0       0       0       0       0       0       0       0
  3384 ;;      Totals:         3       0       0       0       0       0       0       0       0       0       0       0       
      +0       0       0       0       0       0       0       0       0       0       0       0       0       0       0
  3385 ;;Total ram usage:        3 bytes
  3386 ;; Hardware stack levels used:    1
  3387 ;; Hardware stack levels required when called:    1
  3388 ;; This function calls:
  3389 ;;		Nothing
  3390 ;; This function is called by:
  3391 ;;		_main
  3392 ;; This function uses a non-reentrant model
  3393 ;;
  3394                           
  3395                           
  3396                           ;psect for function _readPin
  3397  027C                     _readPin:	
  3398                           
  3399                           ;incstack = 0
  3400                           ; Regs used in _readPin: [wreg-fsr0h+status,2+status,0]
  3401                           ;readPin@read stored from wreg
  3402  027C  00F2               	movwf	readPin@read
  3403                           
  3404                           ;pins.c: 168:     switch (read) {
  3405  027D  2AC5               	goto	l1611
  3406  027E                     l125:	
  3407                           ;pins.c: 169:         case PINA0 :
  3408                           
  3409                           
  3410                           ;pins.c: 170:             if(PORTAbits.RA0 == 0) {
  3411  027E  0140               	movlb	0	; select bank0
  3412  027F  180C               	btfsc	12,0	;volatile
  3413  0280  2A83               	goto	l1447
  3414  0281                     l1441:	
  3415                           
  3416                           ;pins.c: 171:                 return 0;
  3417  0281  3000               	movlw	0
  3418  0282  0008               	return
  3419  0283                     l1447:	
  3420                           
  3421                           ;pins.c: 173:                 return 1;
  3422  0283  3001               	movlw	1
  3423  0284  0008               	return
  3424  0285                     l129:	
  3425                           ;pins.c: 175:         case PINA1 :
  3426                           
  3427                           
  3428                           ;pins.c: 176:             if(PORTAbits.RA1 == 0) {
  3429  0285  0140               	movlb	0	; select bank0
  3430  0286  1C8C               	btfss	12,1	;volatile
  3431  0287  2A81               	goto	l1441
  3432  0288  2A83               	goto	l1447
  3433  0289                     l132:	
  3434                           ;pins.c: 181:         case PINA2 :
  3435                           
  3436                           
  3437                           ;pins.c: 182:             if(PORTAbits.RA2 == 0) {
  3438  0289  0140               	movlb	0	; select bank0
  3439  028A  190C               	btfsc	12,2	;volatile
  3440  028B  2A83               	goto	l1447
  3441  028C  2A81               	goto	l1441
  3442  028D                     l135:	
  3443                           ;pins.c: 187:         case PINA4 :
  3444                           
  3445                           
  3446                           ;pins.c: 188:             if(PORTAbits.RA4 == 0) {
  3447  028D  0140               	movlb	0	; select bank0
  3448  028E  1A0C               	btfsc	12,4	;volatile
  3449  028F  2A83               	goto	l1447
  3450  0290  2A81               	goto	l1441
  3451  0291                     l138:	
  3452                           ;pins.c: 193:         case PINA5 :
  3453                           
  3454                           
  3455                           ;pins.c: 194:             if(PORTAbits.RA5 == 0) {
  3456  0291  0140               	movlb	0	; select bank0
  3457  0292  1A8C               	btfsc	12,5	;volatile
  3458  0293  2A83               	goto	l1447
  3459  0294  2A81               	goto	l1441
  3460  0295                     l141:	
  3461                           ;pins.c: 199:         case PINB4 :
  3462                           
  3463                           
  3464                           ;pins.c: 200:             if(PORTBbits.RB4 == 0) {
  3465  0295  0140               	movlb	0	; select bank0
  3466  0296  1A0D               	btfsc	13,4	;volatile
  3467  0297  2A83               	goto	l1447
  3468  0298  2A81               	goto	l1441
  3469  0299                     l144:	
  3470                           ;pins.c: 205:         case PINB5 :
  3471                           
  3472                           
  3473                           ;pins.c: 206:             if(PORTBbits.RB5 == 0) {
  3474  0299  0140               	movlb	0	; select bank0
  3475  029A  1A8D               	btfsc	13,5	;volatile
  3476  029B  2A83               	goto	l1447
  3477  029C  2A81               	goto	l1441
  3478  029D                     l147:	
  3479                           ;pins.c: 211:         case PINB6 :
  3480                           
  3481                           
  3482                           ;pins.c: 212:             if(PORTBbits.RB6 == 0) {
  3483  029D  0140               	movlb	0	; select bank0
  3484  029E  1B0D               	btfsc	13,6	;volatile
  3485  029F  2A83               	goto	l1447
  3486  02A0  2A81               	goto	l1441
  3487  02A1                     l150:	
  3488                           ;pins.c: 217:         case PINB7 :
  3489                           
  3490                           
  3491                           ;pins.c: 218:             if(PORTBbits.RB7 == 0) {
  3492  02A1  0140               	movlb	0	; select bank0
  3493  02A2  1B8D               	btfsc	13,7	;volatile
  3494  02A3  2A83               	goto	l1447
  3495  02A4  2A81               	goto	l1441
  3496  02A5                     l153:	
  3497                           ;pins.c: 223:         case PINC0 :
  3498                           
  3499                           
  3500                           ;pins.c: 224:             if(PORTCbits.RC0 == 0) {
  3501  02A5  0140               	movlb	0	; select bank0
  3502  02A6  180E               	btfsc	14,0	;volatile
  3503  02A7  2A83               	goto	l1447
  3504  02A8  2A81               	goto	l1441
  3505  02A9                     l156:	
  3506                           ;pins.c: 229:         case PINC1 :
  3507                           
  3508                           
  3509                           ;pins.c: 230:             if(PORTCbits.RC1 == 0) {
  3510  02A9  0140               	movlb	0	; select bank0
  3511  02AA  188E               	btfsc	14,1	;volatile
  3512  02AB  2A83               	goto	l1447
  3513  02AC  2A81               	goto	l1441
  3514  02AD                     l159:	
  3515                           ;pins.c: 235:         case PINC2 :
  3516                           
  3517                           
  3518                           ;pins.c: 236:             if(PORTCbits.RC2 == 0) {
  3519  02AD  0140               	movlb	0	; select bank0
  3520  02AE  190E               	btfsc	14,2	;volatile
  3521  02AF  2A83               	goto	l1447
  3522  02B0  2A81               	goto	l1441
  3523  02B1                     l162:	
  3524                           ;pins.c: 241:         case PINC3 :
  3525                           
  3526                           
  3527                           ;pins.c: 242:             if(PORTCbits.RC3 == 0) {
  3528  02B1  0140               	movlb	0	; select bank0
  3529  02B2  198E               	btfsc	14,3	;volatile
  3530  02B3  2A83               	goto	l1447
  3531  02B4  2A81               	goto	l1441
  3532  02B5                     l165:	
  3533                           ;pins.c: 247:         case PINC4 :
  3534                           
  3535                           
  3536                           ;pins.c: 248:             if(PORTCbits.RC4 == 0) {
  3537  02B5  0140               	movlb	0	; select bank0
  3538  02B6  1A0E               	btfsc	14,4	;volatile
  3539  02B7  2A83               	goto	l1447
  3540  02B8  2A81               	goto	l1441
  3541  02B9                     l168:	
  3542                           ;pins.c: 253:         case PINC5 :
  3543                           
  3544                           
  3545                           ;pins.c: 254:             if(PORTCbits.RC5 == 0) {
  3546  02B9  0140               	movlb	0	; select bank0
  3547  02BA  1A8E               	btfsc	14,5	;volatile
  3548  02BB  2A83               	goto	l1447
  3549  02BC  2A81               	goto	l1441
  3550  02BD                     l171:	
  3551                           ;pins.c: 259:         case PINC6:
  3552                           
  3553                           
  3554                           ;pins.c: 260:             if(PORTCbits.RC6 == 0) {
  3555  02BD  0140               	movlb	0	; select bank0
  3556  02BE  1B0E               	btfsc	14,6	;volatile
  3557  02BF  2A83               	goto	l1447
  3558  02C0  2A81               	goto	l1441
  3559  02C1                     l174:	
  3560                           ;pins.c: 265:         case PINC7:
  3561                           
  3562                           
  3563                           ;pins.c: 266:             if(PORTCbits.RC7 == 0) {
  3564  02C1  0140               	movlb	0	; select bank0
  3565  02C2  1B8E               	btfsc	14,7	;volatile
  3566  02C3  2A83               	goto	l1447
  3567  02C4  2A81               	goto	l1441
  3568  02C5                     l1611:	
  3569  02C5  0872               	movf	readPin@read,w
  3570  02C6  00F0               	movwf	??_readPin
  3571  02C7  01F1               	clrf	??_readPin+1
  3572                           
  3573                           ; Switch on 2 bytes has been partitioned into a top level switch of size 1, and 1 sub-sw
      +                          itches
  3574                           ; Switch size 1, requested type "simple"
  3575                           ; Number of cases is 1, Range of values is 0 to 0
  3576                           ; switch strategies available:
  3577                           ; Name         Instructions Cycles
  3578                           ; simple_byte            4     3 (average)
  3579                           ; direct_byte            8     6 (fixed)
  3580                           ; jumptable            260     6 (fixed)
  3581                           ;	Chosen strategy is simple_byte
  3582  02C8  0871               	movf	??_readPin+1,w
  3583  02C9  3A00               	xorlw	0	; case 0
  3584  02CA  1903               	skipnz
  3585  02CB  2ACD               	goto	l1805
  3586  02CC  2B02               	goto	l127
  3587  02CD                     l1805:	
  3588                           
  3589                           ; Switch size 1, requested type "simple"
  3590                           ; Number of cases is 17, Range of values is 0 to 16
  3591                           ; switch strategies available:
  3592                           ; Name         Instructions Cycles
  3593                           ; direct_byte           40     6 (fixed)
  3594                           ; simple_byte           52    27 (average)
  3595                           ; jumptable            260     6 (fixed)
  3596                           ;	Chosen strategy is simple_byte
  3597  02CD  0870               	movf	??_readPin,w
  3598  02CE  3A00               	xorlw	0	; case 0
  3599  02CF  1903               	skipnz
  3600  02D0  2A7E               	goto	l125
  3601  02D1  3A01               	xorlw	1	; case 1
  3602  02D2  1903               	skipnz
  3603  02D3  2A85               	goto	l129
  3604  02D4  3A03               	xorlw	3	; case 2
  3605  02D5  1903               	skipnz
  3606  02D6  2A89               	goto	l132
  3607  02D7  3A01               	xorlw	1	; case 3
  3608  02D8  1903               	skipnz
  3609  02D9  2A8D               	goto	l135
  3610  02DA  3A07               	xorlw	7	; case 4
  3611  02DB  1903               	skipnz
  3612  02DC  2A91               	goto	l138
  3613  02DD  3A01               	xorlw	1	; case 5
  3614  02DE  1903               	skipnz
  3615  02DF  2A95               	goto	l141
  3616  02E0  3A03               	xorlw	3	; case 6
  3617  02E1  1903               	skipnz
  3618  02E2  2A99               	goto	l144
  3619  02E3  3A01               	xorlw	1	; case 7
  3620  02E4  1903               	skipnz
  3621  02E5  2A9D               	goto	l147
  3622  02E6  3A0F               	xorlw	15	; case 8
  3623  02E7  1903               	skipnz
  3624  02E8  2AA1               	goto	l150
  3625  02E9  3A01               	xorlw	1	; case 9
  3626  02EA  1903               	skipnz
  3627  02EB  2AA5               	goto	l153
  3628  02EC  3A03               	xorlw	3	; case 10
  3629  02ED  1903               	skipnz
  3630  02EE  2AA9               	goto	l156
  3631  02EF  3A01               	xorlw	1	; case 11
  3632  02F0  1903               	skipnz
  3633  02F1  2AAD               	goto	l159
  3634  02F2  3A07               	xorlw	7	; case 12
  3635  02F3  1903               	skipnz
  3636  02F4  2AB1               	goto	l162
  3637  02F5  3A01               	xorlw	1	; case 13
  3638  02F6  1903               	skipnz
  3639  02F7  2AB5               	goto	l165
  3640  02F8  3A03               	xorlw	3	; case 14
  3641  02F9  1903               	skipnz
  3642  02FA  2AB9               	goto	l168
  3643  02FB  3A01               	xorlw	1	; case 15
  3644  02FC  1903               	skipnz
  3645  02FD  2ABD               	goto	l171
  3646  02FE  3A1F               	xorlw	31	; case 16
  3647  02FF  1903               	skipnz
  3648  0300  2AC1               	goto	l174
  3649  0301  2B02               	goto	l127
  3650  0302                     l127:	
  3651  0302  0008               	return
  3652  0303                     __end_of_readPin:	
  3653                           
  3654                           	psect	text7
  3655  003C                     __ptext7:	
  3656 ;; *************** function _defineGPIODirection *****************
  3657 ;; Defined at:
  3658 ;;		line 18 in file "pins.c"
  3659 ;; Parameters:    Size  Location     Type
  3660 ;;  input           1    wreg     PTR enum E11183
  3661 ;;		 -> main@input(5), 
  3662 ;;  output          1    0[COMMON] PTR enum E11183
  3663 ;;		 -> main@output(5), 
  3664 ;;  inputLength     1    1[COMMON] unsigned char 
  3665 ;;  outputLength    1    2[COMMON] unsigned char 
  3666 ;; Auto vars:     Size  Location     Type
  3667 ;;  input           1    6[COMMON] PTR enum E11183
  3668 ;;		 -> main@input(5), 
  3669 ;;  i               1    7[COMMON] unsigned char 
  3670 ;; Return value:  Size  Location     Type
  3671 ;;                  1    wreg      void 
  3672 ;; Registers used:
  3673 ;;		wreg, fsr0l, fsr0h, fsr1l, fsr1h, status,2, status,0
  3674 ;; Tracked objects:
  3675 ;;		On entry : 0/0
  3676 ;;		On exit  : 0/0
  3677 ;;		Unchanged: 0/0
  3678 ;; Data sizes:     COMMON   BANK0   BANK1   BANK2   BANK3   BANK4   BANK5   BANK6   BANK7   BANK8   BANK9  BANK10  BANK1
      +1  BANK12  BANK13  BANK14  BANK15  BANK16  BANK17  BANK18  BANK19  BANK20  BANK21  BANK22  BANK23  BANK24  BANK25
  3679 ;;      Params:         3       0       0       0       0       0       0       0       0       0       0       0       
      +0       0       0       0       0       0       0       0       0       0       0       0       0       0       0
  3680 ;;      Locals:         2       0       0       0       0       0       0       0       0       0       0       0       
      +0       0       0       0       0       0       0       0       0       0       0       0       0       0       0
  3681 ;;      Temps:          3       0       0       0       0       0       0       0       0       0       0       0       
      +0       0       0       0       0       0       0       0       0       0       0       0       0       0       0
  3682 ;;      Totals:         8       0       0       0       0       0       0       0       0       0       0       0       
      +0       0       0       0       0       0       0       0       0       0       0       0       0       0       0
  3683 ;;Total ram usage:        8 bytes
  3684 ;; Hardware stack levels used:    1
  3685 ;; Hardware stack levels required when called:    1
  3686 ;; This function calls:
  3687 ;;		Nothing
  3688 ;; This function is called by:
  3689 ;;		_main
  3690 ;; This function uses a non-reentrant model
  3691 ;;
  3692                           
  3693                           
  3694                           ;psect for function _defineGPIODirection
  3695  003C                     _defineGPIODirection:	
  3696                           
  3697                           ;incstack = 0
  3698                           ; Regs used in _defineGPIODirection: [wreg-fsr1h+status,2+status,0]
  3699                           ;defineGPIODirection@input stored from wreg
  3700  003C  00F6               	movwf	defineGPIODirection@input
  3701                           
  3702                           ;pins.c: 19:     uint8_t i;;pins.c: 20:     for(i = 0; i < inputLength; i++) {
  3703  003D  01F7               	clrf	defineGPIODirection@i
  3704  003E  28A8               	goto	l1419
  3705  003F                     l80:	
  3706                           ;pins.c: 22:             case PINA0 :
  3707                           
  3708                           
  3709                           ;pins.c: 23:                 TRISAbits.TRISA0 = 1;
  3710  003F  0140               	movlb	0	; select bank0
  3711  0040  1412               	bsf	18,0	;volatile
  3712                           
  3713                           ;pins.c: 24:                 ANSELAbits.ANSA0 = 0;
  3714  0041  017E               	movlb	62	; select bank62
  3715  0042  1038               	bcf	56,0	;volatile
  3716                           
  3717                           ;pins.c: 25:                 WPUAbits.WPUA0 = 1;
  3718  0043  1439               	bsf	57,0	;volatile
  3719                           
  3720                           ;pins.c: 26:                 break;
  3721  0044  28A4               	goto	l1417
  3722  0045                     l82:	
  3723                           ;pins.c: 27:             case PINA1 :
  3724                           
  3725                           
  3726                           ;pins.c: 28:                 TRISAbits.TRISA1 = 1;
  3727  0045  0140               	movlb	0	; select bank0
  3728  0046  1492               	bsf	18,1	;volatile
  3729                           
  3730                           ;pins.c: 29:                 ANSELAbits.ANSA1 = 0;
  3731  0047  017E               	movlb	62	; select bank62
  3732  0048  10B8               	bcf	56,1	;volatile
  3733                           
  3734                           ;pins.c: 30:                 WPUAbits.WPUA1 = 1;
  3735  0049  14B9               	bsf	57,1	;volatile
  3736                           
  3737                           ;pins.c: 31:                 break;
  3738  004A  28A4               	goto	l1417
  3739  004B                     l83:	
  3740                           ;pins.c: 32:             case PINA2 :
  3741                           
  3742                           
  3743                           ;pins.c: 33:                 TRISAbits.TRISA2 = 1;
  3744  004B  0140               	movlb	0	; select bank0
  3745  004C  1512               	bsf	18,2	;volatile
  3746                           
  3747                           ;pins.c: 34:                 ANSELAbits.ANSA2 = 0;
  3748  004D  017E               	movlb	62	; select bank62
  3749  004E  1138               	bcf	56,2	;volatile
  3750                           
  3751                           ;pins.c: 35:                 WPUAbits.WPUA2 = 1;
  3752  004F  1539               	bsf	57,2	;volatile
  3753                           
  3754                           ;pins.c: 36:                 break;
  3755  0050  28A4               	goto	l1417
  3756  0051                     l84:	
  3757                           ;pins.c: 37:             case PINA4 :
  3758                           
  3759                           
  3760                           ;pins.c: 38:                 TRISAbits.TRISA4 = 1;
  3761  0051  0140               	movlb	0	; select bank0
  3762  0052  1612               	bsf	18,4	;volatile
  3763                           
  3764                           ;pins.c: 39:                 ANSELAbits.ANSA4 = 0;
  3765  0053  017E               	movlb	62	; select bank62
  3766  0054  1238               	bcf	56,4	;volatile
  3767                           
  3768                           ;pins.c: 40:                 WPUAbits.WPUA4 = 1;
  3769  0055  1639               	bsf	57,4	;volatile
  3770                           
  3771                           ;pins.c: 41:                 break;
  3772  0056  28A4               	goto	l1417
  3773  0057                     l85:	
  3774                           ;pins.c: 42:             case PINA5 :
  3775                           
  3776                           
  3777                           ;pins.c: 43:                 TRISAbits.TRISA5 = 1;
  3778  0057  0140               	movlb	0	; select bank0
  3779  0058  1692               	bsf	18,5	;volatile
  3780                           
  3781                           ;pins.c: 44:                 ANSELAbits.ANSA5 = 0;
  3782  0059  017E               	movlb	62	; select bank62
  3783  005A  12B8               	bcf	56,5	;volatile
  3784                           
  3785                           ;pins.c: 45:                 WPUAbits.WPUA5 = 1;
  3786  005B  16B9               	bsf	57,5	;volatile
  3787                           
  3788                           ;pins.c: 46:                 break;
  3789  005C  28A4               	goto	l1417
  3790  005D                     l86:	
  3791                           ;pins.c: 47:             case PINB4 :
  3792                           
  3793                           
  3794                           ;pins.c: 48:                 TRISBbits.TRISB4 = 1;
  3795  005D  0140               	movlb	0	; select bank0
  3796  005E  1613               	bsf	19,4	;volatile
  3797                           
  3798                           ;pins.c: 49:                 ANSELBbits.ANSB4 = 0;
  3799  005F  017E               	movlb	62	; select bank62
  3800  0060  1243               	bcf	67,4	;volatile
  3801                           
  3802                           ;pins.c: 50:                 WPUBbits.WPUB4 = 1;
  3803  0061  1644               	bsf	68,4	;volatile
  3804                           
  3805                           ;pins.c: 51:                 break;
  3806  0062  28A4               	goto	l1417
  3807  0063                     l87:	
  3808                           ;pins.c: 52:             case PINB5 :
  3809                           
  3810                           
  3811                           ;pins.c: 53:                 TRISBbits.TRISB5 = 1;
  3812  0063  0140               	movlb	0	; select bank0
  3813  0064  1693               	bsf	19,5	;volatile
  3814                           
  3815                           ;pins.c: 54:                 ANSELBbits.ANSB5 = 0;
  3816  0065  017E               	movlb	62	; select bank62
  3817  0066  12C3               	bcf	67,5	;volatile
  3818                           
  3819                           ;pins.c: 55:                 WPUBbits.WPUB5 = 1;
  3820  0067  16C4               	bsf	68,5	;volatile
  3821                           
  3822                           ;pins.c: 56:                 break;
  3823  0068  28A4               	goto	l1417
  3824  0069                     l88:	
  3825                           ;pins.c: 57:             case PINB6 :
  3826                           
  3827                           
  3828                           ;pins.c: 58:                 TRISBbits.TRISB6 = 1;
  3829  0069  0140               	movlb	0	; select bank0
  3830  006A  1713               	bsf	19,6	;volatile
  3831                           
  3832                           ;pins.c: 59:                 ANSELBbits.ANSB6 = 0;
  3833  006B  017E               	movlb	62	; select bank62
  3834  006C  1343               	bcf	67,6	;volatile
  3835                           
  3836                           ;pins.c: 60:                 WPUBbits.WPUB6 = 1;
  3837  006D  1744               	bsf	68,6	;volatile
  3838                           
  3839                           ;pins.c: 61:                 break;
  3840  006E  28A4               	goto	l1417
  3841  006F                     l89:	
  3842                           ;pins.c: 62:             case PINB7 :
  3843                           
  3844                           
  3845                           ;pins.c: 63:                 TRISBbits.TRISB7 = 1;
  3846  006F  0140               	movlb	0	; select bank0
  3847  0070  1793               	bsf	19,7	;volatile
  3848                           
  3849                           ;pins.c: 64:                 ANSELBbits.ANSB7 = 0;
  3850  0071  017E               	movlb	62	; select bank62
  3851  0072  13C3               	bcf	67,7	;volatile
  3852                           
  3853                           ;pins.c: 65:                 WPUBbits.WPUB7 = 1;
  3854  0073  17C4               	bsf	68,7	;volatile
  3855                           
  3856                           ;pins.c: 66:                 break;
  3857  0074  28A4               	goto	l1417
  3858  0075                     l90:	
  3859                           ;pins.c: 67:             case PINC0 :
  3860                           
  3861                           
  3862                           ;pins.c: 68:                 TRISCbits.TRISC0 = 1;
  3863  0075  0140               	movlb	0	; select bank0
  3864  0076  1414               	bsf	20,0	;volatile
  3865                           
  3866                           ;pins.c: 69:                 ANSELCbits.ANSC0 = 0;
  3867  0077  017E               	movlb	62	; select bank62
  3868  0078  104E               	bcf	78,0	;volatile
  3869                           
  3870                           ;pins.c: 70:                 WPUCbits.WPUC0 = 1;
  3871  0079  144F               	bsf	79,0	;volatile
  3872                           
  3873                           ;pins.c: 71:                 break;
  3874  007A  28A4               	goto	l1417
  3875  007B                     l91:	
  3876                           ;pins.c: 72:             case PINC1 :
  3877                           
  3878                           
  3879                           ;pins.c: 73:                 TRISCbits.TRISC1 = 1;
  3880  007B  0140               	movlb	0	; select bank0
  3881  007C  1494               	bsf	20,1	;volatile
  3882                           
  3883                           ;pins.c: 74:                 ANSELCbits.ANSC1 = 0;
  3884  007D  017E               	movlb	62	; select bank62
  3885  007E  10CE               	bcf	78,1	;volatile
  3886                           
  3887                           ;pins.c: 75:                 WPUCbits.WPUC1 = 1;
  3888  007F  14CF               	bsf	79,1	;volatile
  3889                           
  3890                           ;pins.c: 76:                 break;
  3891  0080  28A4               	goto	l1417
  3892  0081                     l92:	
  3893                           ;pins.c: 77:             case PINC2 :
  3894                           
  3895                           
  3896                           ;pins.c: 78:                 TRISCbits.TRISC2 = 1;
  3897  0081  0140               	movlb	0	; select bank0
  3898  0082  1514               	bsf	20,2	;volatile
  3899                           
  3900                           ;pins.c: 79:                 ANSELCbits.ANSC2 = 0;
  3901  0083  017E               	movlb	62	; select bank62
  3902  0084  114E               	bcf	78,2	;volatile
  3903                           
  3904                           ;pins.c: 80:                 WPUCbits.WPUC2 = 1;
  3905  0085  154F               	bsf	79,2	;volatile
  3906                           
  3907                           ;pins.c: 81:                 break;
  3908  0086  28A4               	goto	l1417
  3909  0087                     l93:	
  3910                           ;pins.c: 82:             case PINC3 :
  3911                           
  3912                           
  3913                           ;pins.c: 83:                 TRISCbits.TRISC3 = 1;
  3914  0087  0140               	movlb	0	; select bank0
  3915  0088  1594               	bsf	20,3	;volatile
  3916                           
  3917                           ;pins.c: 84:                 ANSELCbits.ANSC3 = 0;
  3918  0089  017E               	movlb	62	; select bank62
  3919  008A  11CE               	bcf	78,3	;volatile
  3920                           
  3921                           ;pins.c: 85:                 WPUCbits.WPUC3 = 1;
  3922  008B  15CF               	bsf	79,3	;volatile
  3923                           
  3924                           ;pins.c: 86:                 break;
  3925  008C  28A4               	goto	l1417
  3926  008D                     l94:	
  3927                           ;pins.c: 87:             case PINC4 :
  3928                           
  3929                           
  3930                           ;pins.c: 88:                 TRISCbits.TRISC4 = 1;
  3931  008D  0140               	movlb	0	; select bank0
  3932  008E  1614               	bsf	20,4	;volatile
  3933                           
  3934                           ;pins.c: 89:                 ANSELCbits.ANSC4 = 0;
  3935  008F  017E               	movlb	62	; select bank62
  3936  0090  124E               	bcf	78,4	;volatile
  3937                           
  3938                           ;pins.c: 90:                 WPUCbits.WPUC4 = 1;
  3939  0091  164F               	bsf	79,4	;volatile
  3940                           
  3941                           ;pins.c: 91:                 break;
  3942  0092  28A4               	goto	l1417
  3943  0093                     l95:	
  3944                           ;pins.c: 92:             case PINC5 :
  3945                           
  3946                           
  3947                           ;pins.c: 93:                 TRISCbits.TRISC5 = 1;
  3948  0093  0140               	movlb	0	; select bank0
  3949  0094  1694               	bsf	20,5	;volatile
  3950                           
  3951                           ;pins.c: 94:                 ANSELCbits.ANSC5 = 0;
  3952  0095  017E               	movlb	62	; select bank62
  3953  0096  12CE               	bcf	78,5	;volatile
  3954                           
  3955                           ;pins.c: 95:                 WPUCbits.WPUC5 = 1;
  3956  0097  16CF               	bsf	79,5	;volatile
  3957                           
  3958                           ;pins.c: 96:                 break;
  3959  0098  28A4               	goto	l1417
  3960  0099                     l96:	
  3961                           ;pins.c: 97:             case PINC6 :
  3962                           
  3963                           
  3964                           ;pins.c: 98:                 TRISCbits.TRISC6 = 1;
  3965  0099  0140               	movlb	0	; select bank0
  3966  009A  1714               	bsf	20,6	;volatile
  3967                           
  3968                           ;pins.c: 99:                 ANSELCbits.ANSC6 = 0;
  3969  009B  017E               	movlb	62	; select bank62
  3970  009C  134E               	bcf	78,6	;volatile
  3971                           
  3972                           ;pins.c: 100:                 WPUCbits.WPUC6 = 1;
  3973  009D  174F               	bsf	79,6	;volatile
  3974                           
  3975                           ;pins.c: 101:                 break;
  3976  009E  28A4               	goto	l1417
  3977  009F                     l97:	
  3978                           ;pins.c: 102:             case PINC7 :
  3979                           
  3980                           
  3981                           ;pins.c: 103:                 TRISCbits.TRISC7 = 1;
  3982  009F  0140               	movlb	0	; select bank0
  3983  00A0  1794               	bsf	20,7	;volatile
  3984                           
  3985                           ;pins.c: 104:                 ANSELCbits.ANSC7 = 0;
  3986  00A1  017E               	movlb	62	; select bank62
  3987  00A2  13CE               	bcf	78,7	;volatile
  3988                           
  3989                           ;pins.c: 105:                 WPUCbits.WPUC7 = 1;
  3990  00A3  17CF               	bsf	79,7	;volatile
  3991  00A4                     l1417:	
  3992                           ;pins.c: 106:                 break;
  3993                           
  3994                           
  3995                           ;pins.c: 108:     }
  3996  00A4  3001               	movlw	1
  3997  00A5  00F3               	movwf	??_defineGPIODirection
  3998  00A6  0873               	movf	??_defineGPIODirection,w
  3999  00A7  07F7               	addwf	defineGPIODirection@i,f
  4000  00A8                     l1419:	
  4001  00A8  0871               	movf	defineGPIODirection@inputLength,w
  4002  00A9  0277               	subwf	defineGPIODirection@i,w
  4003  00AA  1803               	btfsc	3,0
  4004  00AB  28F0               	goto	l1421
  4005  00AC  0877               	movf	defineGPIODirection@i,w
  4006  00AD  0776               	addwf	defineGPIODirection@input,w
  4007  00AE  00F3               	movwf	??_defineGPIODirection
  4008  00AF  0873               	movf	??_defineGPIODirection,w
  4009  00B0  0086               	movwf	6
  4010  00B1  0187               	clrf	7
  4011  00B2  0801               	movf	1,w
  4012  00B3  00F4               	movwf	??_defineGPIODirection+1
  4013  00B4  01F5               	clrf	??_defineGPIODirection+2
  4014                           
  4015                           ; Switch on 2 bytes has been partitioned into a top level switch of size 1, and 1 sub-sw
      +                          itches
  4016                           ; Switch size 1, requested type "simple"
  4017                           ; Number of cases is 1, Range of values is 0 to 0
  4018                           ; switch strategies available:
  4019                           ; Name         Instructions Cycles
  4020                           ; simple_byte            4     3 (average)
  4021                           ; direct_byte            8     6 (fixed)
  4022                           ; jumptable            260     6 (fixed)
  4023                           ;	Chosen strategy is simple_byte
  4024  00B5  0875               	movf	??_defineGPIODirection+2,w
  4025  00B6  3A00               	xorlw	0	; case 0
  4026  00B7  1903               	skipnz
  4027  00B8  28BA               	goto	l1807
  4028  00B9  28A4               	goto	l1417
  4029  00BA                     l1807:	
  4030                           
  4031                           ; Switch size 1, requested type "simple"
  4032                           ; Number of cases is 17, Range of values is 0 to 16
  4033                           ; switch strategies available:
  4034                           ; Name         Instructions Cycles
  4035                           ; direct_byte           40     6 (fixed)
  4036                           ; simple_byte           52    27 (average)
  4037                           ; jumptable            260     6 (fixed)
  4038                           ;	Chosen strategy is simple_byte
  4039  00BA  0874               	movf	??_defineGPIODirection+1,w
  4040  00BB  3A00               	xorlw	0	; case 0
  4041  00BC  1903               	skipnz
  4042  00BD  283F               	goto	l80
  4043  00BE  3A01               	xorlw	1	; case 1
  4044  00BF  1903               	skipnz
  4045  00C0  2845               	goto	l82
  4046  00C1  3A03               	xorlw	3	; case 2
  4047  00C2  1903               	skipnz
  4048  00C3  284B               	goto	l83
  4049  00C4  3A01               	xorlw	1	; case 3
  4050  00C5  1903               	skipnz
  4051  00C6  2851               	goto	l84
  4052  00C7  3A07               	xorlw	7	; case 4
  4053  00C8  1903               	skipnz
  4054  00C9  2857               	goto	l85
  4055  00CA  3A01               	xorlw	1	; case 5
  4056  00CB  1903               	skipnz
  4057  00CC  285D               	goto	l86
  4058  00CD  3A03               	xorlw	3	; case 6
  4059  00CE  1903               	skipnz
  4060  00CF  2863               	goto	l87
  4061  00D0  3A01               	xorlw	1	; case 7
  4062  00D1  1903               	skipnz
  4063  00D2  2869               	goto	l88
  4064  00D3  3A0F               	xorlw	15	; case 8
  4065  00D4  1903               	skipnz
  4066  00D5  286F               	goto	l89
  4067  00D6  3A01               	xorlw	1	; case 9
  4068  00D7  1903               	skipnz
  4069  00D8  2875               	goto	l90
  4070  00D9  3A03               	xorlw	3	; case 10
  4071  00DA  1903               	skipnz
  4072  00DB  287B               	goto	l91
  4073  00DC  3A01               	xorlw	1	; case 11
  4074  00DD  1903               	skipnz
  4075  00DE  2881               	goto	l92
  4076  00DF  3A07               	xorlw	7	; case 12
  4077  00E0  1903               	skipnz
  4078  00E1  2887               	goto	l93
  4079  00E2  3A01               	xorlw	1	; case 13
  4080  00E3  1903               	skipnz
  4081  00E4  288D               	goto	l94
  4082  00E5  3A03               	xorlw	3	; case 14
  4083  00E6  1903               	skipnz
  4084  00E7  2893               	goto	l95
  4085  00E8  3A01               	xorlw	1	; case 15
  4086  00E9  1903               	skipnz
  4087  00EA  2899               	goto	l96
  4088  00EB  3A1F               	xorlw	31	; case 16
  4089  00EC  1903               	skipnz
  4090  00ED  289F               	goto	l97
  4091  00EE  28A4               	goto	l1417
  4092  00EF  28A4               	goto	l1417
  4093  00F0                     l1421:	
  4094                           
  4095                           ;pins.c: 110:     for(i = 0; i < outputLength; i++) {
  4096  00F0  01F7               	clrf	defineGPIODirection@i
  4097  00F1  2928               	goto	l1429
  4098  00F2                     l102:	
  4099                           ;pins.c: 112:             case PINA0 :
  4100                           
  4101                           
  4102                           ;pins.c: 113:                 TRISAbits.TRISA0 = 0;
  4103  00F2  0140               	movlb	0	; select bank0
  4104  00F3  1012               	bcf	18,0	;volatile
  4105                           
  4106                           ;pins.c: 114:                 break;
  4107  00F4  2924               	goto	l1427
  4108  00F5                     l104:	
  4109                           ;pins.c: 115:             case PINA1 :
  4110                           
  4111                           
  4112                           ;pins.c: 116:                 TRISAbits.TRISA1 = 0;
  4113  00F5  0140               	movlb	0	; select bank0
  4114  00F6  1092               	bcf	18,1	;volatile
  4115                           
  4116                           ;pins.c: 117:                 break;
  4117  00F7  2924               	goto	l1427
  4118  00F8                     l105:	
  4119                           ;pins.c: 118:             case PINA2 :
  4120                           
  4121                           
  4122                           ;pins.c: 119:                 TRISAbits.TRISA2 = 0;
  4123  00F8  0140               	movlb	0	; select bank0
  4124  00F9  1112               	bcf	18,2	;volatile
  4125                           
  4126                           ;pins.c: 120:                 break;
  4127  00FA  2924               	goto	l1427
  4128  00FB                     l106:	
  4129                           ;pins.c: 121:             case PINA4 :
  4130                           
  4131                           
  4132                           ;pins.c: 122:                 TRISAbits.TRISA4 = 0;
  4133  00FB  0140               	movlb	0	; select bank0
  4134  00FC  1212               	bcf	18,4	;volatile
  4135                           
  4136                           ;pins.c: 123:                 break;
  4137  00FD  2924               	goto	l1427
  4138  00FE                     l107:	
  4139                           ;pins.c: 124:             case PINA5 :
  4140                           
  4141                           
  4142                           ;pins.c: 125:                 TRISAbits.TRISA5 = 0;
  4143  00FE  0140               	movlb	0	; select bank0
  4144  00FF  1292               	bcf	18,5	;volatile
  4145                           
  4146                           ;pins.c: 126:                 break;
  4147  0100  2924               	goto	l1427
  4148  0101                     l108:	
  4149                           ;pins.c: 127:             case PINB4 :
  4150                           
  4151                           
  4152                           ;pins.c: 128:                 TRISBbits.TRISB4 = 0;
  4153  0101  0140               	movlb	0	; select bank0
  4154  0102  1213               	bcf	19,4	;volatile
  4155                           
  4156                           ;pins.c: 129:                 break;
  4157  0103  2924               	goto	l1427
  4158  0104                     l109:	
  4159                           ;pins.c: 130:             case PINB5 :
  4160                           
  4161                           
  4162                           ;pins.c: 131:                 TRISBbits.TRISB5 = 0;
  4163  0104  0140               	movlb	0	; select bank0
  4164  0105  1293               	bcf	19,5	;volatile
  4165                           
  4166                           ;pins.c: 132:                 break;
  4167  0106  2924               	goto	l1427
  4168  0107                     l110:	
  4169                           ;pins.c: 133:             case PINB6 :
  4170                           
  4171                           
  4172                           ;pins.c: 134:                 TRISBbits.TRISB6 = 0;
  4173  0107  0140               	movlb	0	; select bank0
  4174  0108  1313               	bcf	19,6	;volatile
  4175                           
  4176                           ;pins.c: 135:                 break;
  4177  0109  2924               	goto	l1427
  4178  010A                     l111:	
  4179                           ;pins.c: 136:             case PINB7 :
  4180                           
  4181                           
  4182                           ;pins.c: 137:                 TRISBbits.TRISB7 = 0;
  4183  010A  0140               	movlb	0	; select bank0
  4184  010B  1393               	bcf	19,7	;volatile
  4185                           
  4186                           ;pins.c: 138:                 break;
  4187  010C  2924               	goto	l1427
  4188  010D                     l112:	
  4189                           ;pins.c: 139:             case PINC0 :
  4190                           
  4191                           
  4192                           ;pins.c: 140:                 TRISCbits.TRISC0 = 0;
  4193  010D  0140               	movlb	0	; select bank0
  4194  010E  1014               	bcf	20,0	;volatile
  4195                           
  4196                           ;pins.c: 141:                 break;
  4197  010F  2924               	goto	l1427
  4198  0110                     l113:	
  4199                           ;pins.c: 142:             case PINC1 :
  4200                           
  4201                           
  4202                           ;pins.c: 143:                 TRISCbits.TRISC1 = 0;
  4203  0110  0140               	movlb	0	; select bank0
  4204  0111  1094               	bcf	20,1	;volatile
  4205                           
  4206                           ;pins.c: 144:                 break;
  4207  0112  2924               	goto	l1427
  4208  0113                     l114:	
  4209                           ;pins.c: 145:             case PINC2 :
  4210                           
  4211                           
  4212                           ;pins.c: 146:                 TRISCbits.TRISC2 = 0;
  4213  0113  0140               	movlb	0	; select bank0
  4214  0114  1114               	bcf	20,2	;volatile
  4215                           
  4216                           ;pins.c: 147:                 break;
  4217  0115  2924               	goto	l1427
  4218  0116                     l115:	
  4219                           ;pins.c: 148:             case PINC3 :
  4220                           
  4221                           
  4222                           ;pins.c: 149:                 TRISCbits.TRISC3 = 0;
  4223  0116  0140               	movlb	0	; select bank0
  4224  0117  1194               	bcf	20,3	;volatile
  4225                           
  4226                           ;pins.c: 150:                 break;
  4227  0118  2924               	goto	l1427
  4228  0119                     l116:	
  4229                           ;pins.c: 151:             case PINC4 :
  4230                           
  4231                           
  4232                           ;pins.c: 152:                 TRISCbits.TRISC4 = 0;
  4233  0119  0140               	movlb	0	; select bank0
  4234  011A  1214               	bcf	20,4	;volatile
  4235                           
  4236                           ;pins.c: 153:                 break;
  4237  011B  2924               	goto	l1427
  4238  011C                     l117:	
  4239                           ;pins.c: 154:             case PINC5 :
  4240                           
  4241                           
  4242                           ;pins.c: 155:                 TRISCbits.TRISC5 = 0;
  4243  011C  0140               	movlb	0	; select bank0
  4244  011D  1294               	bcf	20,5	;volatile
  4245                           
  4246                           ;pins.c: 156:                 break;
  4247  011E  2924               	goto	l1427
  4248  011F                     l118:	
  4249                           ;pins.c: 157:             case PINC6 :
  4250                           
  4251                           
  4252                           ;pins.c: 158:                 TRISCbits.TRISC6 = 0;
  4253  011F  0140               	movlb	0	; select bank0
  4254  0120  1314               	bcf	20,6	;volatile
  4255                           
  4256                           ;pins.c: 159:                 break;
  4257  0121  2924               	goto	l1427
  4258  0122                     l119:	
  4259                           ;pins.c: 160:             case PINC7 :
  4260                           
  4261                           
  4262                           ;pins.c: 161:                 TRISCbits.TRISC7 = 0;
  4263  0122  0140               	movlb	0	; select bank0
  4264  0123  1394               	bcf	20,7	;volatile
  4265  0124                     l1427:	
  4266                           ;pins.c: 162:                 break;
  4267                           
  4268                           
  4269                           ;pins.c: 164:     }
  4270  0124  3001               	movlw	1
  4271  0125  00F3               	movwf	??_defineGPIODirection
  4272  0126  0873               	movf	??_defineGPIODirection,w
  4273  0127  07F7               	addwf	defineGPIODirection@i,f
  4274  0128                     l1429:	
  4275  0128  0872               	movf	defineGPIODirection@outputLength,w
  4276  0129  0277               	subwf	defineGPIODirection@i,w
  4277  012A  1803               	btfsc	3,0
  4278  012B  0008               	return
  4279  012C  0877               	movf	defineGPIODirection@i,w
  4280  012D  0770               	addwf	defineGPIODirection@output,w
  4281  012E  00F3               	movwf	??_defineGPIODirection
  4282  012F  0873               	movf	??_defineGPIODirection,w
  4283  0130  0086               	movwf	6
  4284  0131  0187               	clrf	7
  4285  0132  0801               	movf	1,w
  4286  0133  00F4               	movwf	??_defineGPIODirection+1
  4287  0134  01F5               	clrf	??_defineGPIODirection+2
  4288                           
  4289                           ; Switch on 2 bytes has been partitioned into a top level switch of size 1, and 1 sub-sw
      +                          itches
  4290                           ; Switch size 1, requested type "simple"
  4291                           ; Number of cases is 1, Range of values is 0 to 0
  4292                           ; switch strategies available:
  4293                           ; Name         Instructions Cycles
  4294                           ; simple_byte            4     3 (average)
  4295                           ; direct_byte            8     6 (fixed)
  4296                           ; jumptable            260     6 (fixed)
  4297                           ;	Chosen strategy is simple_byte
  4298  0135  0875               	movf	??_defineGPIODirection+2,w
  4299  0136  3A00               	xorlw	0	; case 0
  4300  0137  1903               	skipnz
  4301  0138  293A               	goto	l1809
  4302  0139  2924               	goto	l1427
  4303  013A                     l1809:	
  4304                           
  4305                           ; Switch size 1, requested type "simple"
  4306                           ; Number of cases is 17, Range of values is 0 to 16
  4307                           ; switch strategies available:
  4308                           ; Name         Instructions Cycles
  4309                           ; direct_byte           40     6 (fixed)
  4310                           ; simple_byte           52    27 (average)
  4311                           ; jumptable            260     6 (fixed)
  4312                           ;	Chosen strategy is simple_byte
  4313  013A  0874               	movf	??_defineGPIODirection+1,w
  4314  013B  3A00               	xorlw	0	; case 0
  4315  013C  1903               	skipnz
  4316  013D  28F2               	goto	l102
  4317  013E  3A01               	xorlw	1	; case 1
  4318  013F  1903               	skipnz
  4319  0140  28F5               	goto	l104
  4320  0141  3A03               	xorlw	3	; case 2
  4321  0142  1903               	skipnz
  4322  0143  28F8               	goto	l105
  4323  0144  3A01               	xorlw	1	; case 3
  4324  0145  1903               	skipnz
  4325  0146  28FB               	goto	l106
  4326  0147  3A07               	xorlw	7	; case 4
  4327  0148  1903               	skipnz
  4328  0149  28FE               	goto	l107
  4329  014A  3A01               	xorlw	1	; case 5
  4330  014B  1903               	skipnz
  4331  014C  2901               	goto	l108
  4332  014D  3A03               	xorlw	3	; case 6
  4333  014E  1903               	skipnz
  4334  014F  2904               	goto	l109
  4335  0150  3A01               	xorlw	1	; case 7
  4336  0151  1903               	skipnz
  4337  0152  2907               	goto	l110
  4338  0153  3A0F               	xorlw	15	; case 8
  4339  0154  1903               	skipnz
  4340  0155  290A               	goto	l111
  4341  0156  3A01               	xorlw	1	; case 9
  4342  0157  1903               	skipnz
  4343  0158  290D               	goto	l112
  4344  0159  3A03               	xorlw	3	; case 10
  4345  015A  1903               	skipnz
  4346  015B  2910               	goto	l113
  4347  015C  3A01               	xorlw	1	; case 11
  4348  015D  1903               	skipnz
  4349  015E  2913               	goto	l114
  4350  015F  3A07               	xorlw	7	; case 12
  4351  0160  1903               	skipnz
  4352  0161  2916               	goto	l115
  4353  0162  3A01               	xorlw	1	; case 13
  4354  0163  1903               	skipnz
  4355  0164  2919               	goto	l116
  4356  0165  3A03               	xorlw	3	; case 14
  4357  0166  1903               	skipnz
  4358  0167  291C               	goto	l117
  4359  0168  3A01               	xorlw	1	; case 15
  4360  0169  1903               	skipnz
  4361  016A  291F               	goto	l118
  4362  016B  3A1F               	xorlw	31	; case 16
  4363  016C  1903               	skipnz
  4364  016D  2922               	goto	l119
  4365  016E  2924               	goto	l1427
  4366  016F  2924               	goto	l1427
  4367  0170                     __end_of_defineGPIODirection:	
  4368                           
  4369                           	psect	intentry
  4370  0004                     __pintentry:	
  4371 ;; *************** function _timer0ISR *****************
  4372 ;; Defined at:
  4373 ;;		line 28 in file "timer0.c"
  4374 ;; Parameters:    Size  Location     Type
  4375 ;;		None
  4376 ;; Auto vars:     Size  Location     Type
  4377 ;;		None
  4378 ;; Return value:  Size  Location     Type
  4379 ;;                  1    wreg      void 
  4380 ;; Registers used:
  4381 ;;		wreg
  4382 ;; Tracked objects:
  4383 ;;		On entry : 0/0
  4384 ;;		On exit  : 0/0
  4385 ;;		Unchanged: 0/0
  4386 ;; Data sizes:     COMMON   BANK0   BANK1   BANK2   BANK3   BANK4   BANK5   BANK6   BANK7   BANK8   BANK9  BANK10  BANK1
      +1  BANK12  BANK13  BANK14  BANK15  BANK16  BANK17  BANK18  BANK19  BANK20  BANK21  BANK22  BANK23  BANK24  BANK25
  4387 ;;      Params:         0       0       0       0       0       0       0       0       0       0       0       0       
      +0       0       0       0       0       0       0       0       0       0       0       0       0       0       0
  4388 ;;      Locals:         0       0       0       0       0       0       0       0       0       0       0       0       
      +0       0       0       0       0       0       0       0       0       0       0       0       0       0       0
  4389 ;;      Temps:          0       0       0       0       0       0       0       0       0       0       0       0       
      +0       0       0       0       0       0       0       0       0       0       0       0       0       0       0
  4390 ;;      Totals:         0       0       0       0       0       0       0       0       0       0       0       0       
      +0       0       0       0       0       0       0       0       0       0       0       0       0       0       0
  4391 ;;Total ram usage:        0 bytes
  4392 ;; Hardware stack levels used:    1
  4393 ;; This function calls:
  4394 ;;		Nothing
  4395 ;; This function is called by:
  4396 ;;		Interrupt level 1
  4397 ;; This function uses a non-reentrant model
  4398 ;;
  4399                           
  4400  0004                     _timer0ISR:	
  4401                           
  4402                           ;incstack = 0
  4403  0004  147E               	bsf	126,0	;set compiler interrupt flag (level 1)
  4404                           
  4405                           ; Regs used in _timer0ISR: [wreg]
  4406  0005  3180               	pagesel	$
  4407                           
  4408                           ;timer0.c: 29:     time++;
  4409  0006  3001               	movlw	1
  4410  0007  0140               	movlb	0	; select bank0
  4411  0008  07DE               	addwf	_time,f
  4412  0009  3000               	movlw	0
  4413  000A  3DDF               	addwfc	_time+1,f
  4414  000B  107E               	bcf	126,0	;clear compiler interrupt flag (level 1)
  4415  000C  0009               	retfie
  4416  000D                     __end_of_timer0ISR:	
  4417  007E                     btemp	set	126	;btemp
  4418  007E                     int$flags	set	126
  4419  007E                     wtemp0	set	126


Data Sizes:
    Strings     0
    Constant    0
    Data        10
    BSS         35
    Persistent  32
    Stack       0

Auto Spaces:
    Space          Size  Autos    Used
    COMMON           14     12      14
    BANK0            80     58      79
    BANK1            80      0      22
    BANK2            80      0       0
    BANK3            80      0       0
    BANK4            80      0       0
    BANK5            80      0       0
    BANK6            80      0       0
    BANK7            80      0       0
    BANK8            80      0       0
    BANK9            80      0       0
    BANK10           80      0       0
    BANK11           80      0       0
    BANK12           80      0       0
    BANK13           80      0       0
    BANK14           80      0       0
    BANK15           80      0       0
    BANK16           80      0       0
    BANK17           80      0       0
    BANK18           80      0       0
    BANK19           80      0       0
    BANK20           80      0       0
    BANK21           80      0       0
    BANK22           80      0       0
    BANK23           80      0       0
    BANK24           80      0       0
    BANK25           32      0       0

Pointer List with Targets:

    shuffle@array	PTR enum E11183 size(1) Largest target is 5
		 -> main@output(BANK0[5]), main@input(BANK0[5]), 

    defineGPIODirection@output	PTR enum E11183 size(1) Largest target is 5
		 -> main@output(BANK0[5]), 

    defineGPIODirection@input	PTR enum E11183 size(1) Largest target is 5
		 -> main@input(BANK0[5]), 


Critical Paths under _main in COMMON

    _shuffle->___awdiv
    _rand->___omul
    ___awdiv->_rand

Critical Paths under _timer0ISR in COMMON

    None.

Critical Paths under _main in BANK0

    _main->_shuffle
    _shuffle->___awdiv
    _rand->___omul
    ___awdiv->_rand

Critical Paths under _timer0ISR in BANK0

    None.

Critical Paths under _main in BANK1

    None.

Critical Paths under _timer0ISR in BANK1

    None.

Critical Paths under _main in BANK2

    None.

Critical Paths under _timer0ISR in BANK2

    None.

Critical Paths under _main in BANK3

    None.

Critical Paths under _timer0ISR in BANK3

    None.

Critical Paths under _main in BANK4

    None.

Critical Paths under _timer0ISR in BANK4

    None.

Critical Paths under _main in BANK5

    None.

Critical Paths under _timer0ISR in BANK5

    None.

Critical Paths under _main in BANK6

    None.

Critical Paths under _timer0ISR in BANK6

    None.

Critical Paths under _main in BANK7

    None.

Critical Paths under _timer0ISR in BANK7

    None.

Critical Paths under _main in BANK8

    None.

Critical Paths under _timer0ISR in BANK8

    None.

Critical Paths under _main in BANK9

    None.

Critical Paths under _timer0ISR in BANK9

    None.

Critical Paths under _main in BANK10

    None.

Critical Paths under _timer0ISR in BANK10

    None.

Critical Paths under _main in BANK11

    None.

Critical Paths under _timer0ISR in BANK11

    None.

Critical Paths under _main in BANK12

    None.

Critical Paths under _timer0ISR in BANK12

    None.

Critical Paths under _main in BANK13

    None.

Critical Paths under _timer0ISR in BANK13

    None.

Critical Paths under _main in BANK14

    None.

Critical Paths under _timer0ISR in BANK14

    None.

Critical Paths under _main in BANK15

    None.

Critical Paths under _timer0ISR in BANK15

    None.

Critical Paths under _main in BANK16

    None.

Critical Paths under _timer0ISR in BANK16

    None.

Critical Paths under _main in BANK17

    None.

Critical Paths under _timer0ISR in BANK17

    None.

Critical Paths under _main in BANK18

    None.

Critical Paths under _timer0ISR in BANK18

    None.

Critical Paths under _main in BANK19

    None.

Critical Paths under _timer0ISR in BANK19

    None.

Critical Paths under _main in BANK20

    None.

Critical Paths under _timer0ISR in BANK20

    None.

Critical Paths under _main in BANK21

    None.

Critical Paths under _timer0ISR in BANK21

    None.

Critical Paths under _main in BANK22

    None.

Critical Paths under _timer0ISR in BANK22

    None.

Critical Paths under _main in BANK23

    None.

Critical Paths under _timer0ISR in BANK23

    None.

Critical Paths under _main in BANK24

    None.

Critical Paths under _timer0ISR in BANK24

    None.

Critical Paths under _main in BANK25

    None.

Critical Paths under _timer0ISR in BANK25

    None.

Call Graph Tables:

 ---------------------------------------------------------------------------------
 (Depth) Function   	        Calls       Base Space   Used Autos Params    Refs
 ---------------------------------------------------------------------------------
 (0) _main                                                13    13      0    2912
                                             45 BANK0     13    13      0
                _defineGPIODirection
                            _readPin
                            _shuffle
                           _writePin
 ---------------------------------------------------------------------------------
 (1) _writePin                                             4     3      1     922
                                              0 COMMON     4     3      1
 ---------------------------------------------------------------------------------
 (1) _shuffle                                             13    11      2    1423
                                             32 BANK0     13    11      2
                            ___awdiv
                               _rand
 ---------------------------------------------------------------------------------
 (2) _rand                                                10     8      2     244
                                              9 COMMON     2     0      2
                                             16 BANK0      8     8      0
                             ___omul
 ---------------------------------------------------------------------------------
 (3) ___omul                                              25     9     16     244
                                              0 COMMON     9     9      0
                                              0 BANK0     16     0     16
 ---------------------------------------------------------------------------------
 (2) ___awdiv                                              9     5      4     604
                                             11 COMMON     1     1      0
                                             24 BANK0      8     4      4
                               _rand (ARG)
 ---------------------------------------------------------------------------------
 (1) _readPin                                              3     3      0      22
                                              0 COMMON     3     3      0
 ---------------------------------------------------------------------------------
 (1) _defineGPIODirection                                  8     5      3     441
                                              0 COMMON     8     5      3
 ---------------------------------------------------------------------------------
 Estimated maximum stack depth 3
 ---------------------------------------------------------------------------------
 (Depth) Function   	        Calls       Base Space   Used Autos Params    Refs
 ---------------------------------------------------------------------------------
 (4) _timer0ISR                                            0     0      0       0
 ---------------------------------------------------------------------------------
 Estimated maximum stack depth 4
 ---------------------------------------------------------------------------------

 Call Graph Graphs:

 _main (ROOT)
   _defineGPIODirection
   _readPin
   _shuffle
     ___awdiv
       _rand (ARG)
         ___omul
     _rand
       ___omul
   _writePin

 _timer0ISR (ROOT)

 Address spaces:
Name               Size   Autos  Total    Cost      Usage
BIGRAM             7F0      0       0       0        0.0%
EEDATA             100      0       0       0        0.0%
NULL                 0      0       0       0        0.0%
CODE                 0      0       0       0        0.0%
BITCOMMON            E      0       0       1        0.0%
BITSFR0              0      0       0       1        0.0%
SFR0                 0      0       0       1        0.0%
COMMON               E      C       E       2      100.0%
BITSFR1              0      0       0       2        0.0%
SFR1                 0      0       0       2        0.0%
BITSFR2              0      0       0       3        0.0%
SFR2                 0      0       0       3        0.0%
STACK                0      0       0       3        0.0%
BITBANK0            50      0       0       4        0.0%
BITSFR3              0      0       0       4        0.0%
SFR3                 0      0       0       4        0.0%
BANK0               50     3A      4F       5       98.8%
BITSFR4              0      0       0       5        0.0%
SFR4                 0      0       0       5        0.0%
BITSFR5              0      0       0       6        0.0%
SFR5                 0      0       0       6        0.0%
ABS                  0      0      73       6        0.0%
BITBANK1            50      0       0       7        0.0%
BITSFR6              0      0       0       7        0.0%
SFR6                 0      0       0       7        0.0%
BANK1               50      0      16       8       27.5%
BITSFR7              0      0       0       8        0.0%
SFR7                 0      0       0       8        0.0%
BITBANK2            50      0       0       9        0.0%
BITSFR8              0      0       0       9        0.0%
SFR8                 0      0       0       9        0.0%
BANK2               50      0       0      10        0.0%
BITSFR9              0      0       0      10        0.0%
SFR9                 0      0       0      10        0.0%
BITBANK3            50      0       0      11        0.0%
BITSFR10             0      0       0      11        0.0%
SFR10                0      0       0      11        0.0%
BANK3               50      0       0      12        0.0%
BITSFR11             0      0       0      12        0.0%
SFR11                0      0       0      12        0.0%
BITBANK4            50      0       0      13        0.0%
BITSFR12             0      0       0      13        0.0%
SFR12                0      0       0      13        0.0%
BANK4               50      0       0      14        0.0%
BITSFR13             0      0       0      14        0.0%
SFR13                0      0       0      14        0.0%
BITBANK5            50      0       0      15        0.0%
BITSFR14             0      0       0      15        0.0%
SFR14                0      0       0      15        0.0%
BANK5               50      0       0      16        0.0%
BITSFR15             0      0       0      16        0.0%
SFR15                0      0       0      16        0.0%
BITBANK6            50      0       0      17        0.0%
BITSFR16             0      0       0      17        0.0%
SFR16                0      0       0      17        0.0%
BANK6               50      0       0      18        0.0%
BITSFR17             0      0       0      18        0.0%
SFR17                0      0       0      18        0.0%
BITBANK7            50      0       0      19        0.0%
BITSFR18             0      0       0      19        0.0%
SFR18                0      0       0      19        0.0%
BANK7               50      0       0      20        0.0%
BITSFR19             0      0       0      20        0.0%
SFR19                0      0       0      20        0.0%
BITBANK8            50      0       0      21        0.0%
BITSFR20             0      0       0      21        0.0%
SFR20                0      0       0      21        0.0%
BANK8               50      0       0      22        0.0%
BITSFR21             0      0       0      22        0.0%
SFR21                0      0       0      22        0.0%
BITBANK9            50      0       0      23        0.0%
BITSFR22             0      0       0      23        0.0%
SFR22                0      0       0      23        0.0%
BANK9               50      0       0      24        0.0%
BITSFR23             0      0       0      24        0.0%
SFR23                0      0       0      24        0.0%
BITBANK10           50      0       0      25        0.0%
BITSFR24             0      0       0      25        0.0%
SFR24                0      0       0      25        0.0%
BANK10              50      0       0      26        0.0%
BITSFR25             0      0       0      26        0.0%
SFR25                0      0       0      26        0.0%
BITBANK11           50      0       0      27        0.0%
BITSFR26             0      0       0      27        0.0%
SFR26                0      0       0      27        0.0%
BANK11              50      0       0      28        0.0%
BITSFR27             0      0       0      28        0.0%
SFR27                0      0       0      28        0.0%
BITBANK12           50      0       0      29        0.0%
BITSFR28             0      0       0      29        0.0%
SFR28                0      0       0      29        0.0%
BANK12              50      0       0      30        0.0%
BITSFR29             0      0       0      30        0.0%
SFR29                0      0       0      30        0.0%
BITBANK13           50      0       0      31        0.0%
BITSFR30             0      0       0      31        0.0%
SFR30                0      0       0      31        0.0%
BANK13              50      0       0      32        0.0%
BITSFR31             0      0       0      32        0.0%
SFR31                0      0       0      32        0.0%
BITBANK14           50      0       0      33        0.0%
BITSFR32             0      0       0      33        0.0%
SFR32                0      0       0      33        0.0%
BANK14              50      0       0      34        0.0%
BITSFR33             0      0       0      34        0.0%
SFR33                0      0       0      34        0.0%
BITBANK15           50      0       0      35        0.0%
BITSFR34             0      0       0      35        0.0%
SFR34                0      0       0      35        0.0%
BANK15              50      0       0      36        0.0%
BITSFR35             0      0       0      36        0.0%
SFR35                0      0       0      36        0.0%
BITBANK16           50      0       0      37        0.0%
BITSFR36             0      0       0      37        0.0%
SFR36                0      0       0      37        0.0%
BANK16              50      0       0      38        0.0%
BITSFR37             0      0       0      38        0.0%
SFR37                0      0       0      38        0.0%
BITBANK17           50      0       0      39        0.0%
BITSFR38             0      0       0      39        0.0%
SFR38                0      0       0      39        0.0%
BANK17              50      0       0      40        0.0%
BITSFR39             0      0       0      40        0.0%
SFR39                0      0       0      40        0.0%
BITBANK18           50      0       0      41        0.0%
BITSFR40             0      0       0      41        0.0%
SFR40                0      0       0      41        0.0%
BANK18              50      0       0      42        0.0%
BITSFR41             0      0       0      42        0.0%
SFR41                0      0       0      42        0.0%
BITBANK19           50      0       0      43        0.0%
BITSFR42             0      0       0      43        0.0%
SFR42                0      0       0      43        0.0%
BANK19              50      0       0      44        0.0%
BITSFR43             0      0       0      44        0.0%
SFR43                0      0       0      44        0.0%
BITBANK20           50      0       0      45        0.0%
BITSFR44             0      0       0      45        0.0%
SFR44                0      0       0      45        0.0%
BANK20              50      0       0      46        0.0%
BITSFR45             0      0       0      46        0.0%
SFR45                0      0       0      46        0.0%
BITBANK21           50      0       0      47        0.0%
BITSFR46             0      0       0      47        0.0%
SFR46                0      0       0      47        0.0%
BANK21              50      0       0      48        0.0%
BITSFR47             0      0       0      48        0.0%
SFR47                0      0       0      48        0.0%
BITBANK22           50      0       0      49        0.0%
BITSFR48             0      0       0      49        0.0%
SFR48                0      0       0      49        0.0%
BANK22              50      0       0      50        0.0%
BITSFR49             0      0       0      50        0.0%
SFR49                0      0       0      50        0.0%
BITBANK23           50      0       0      51        0.0%
BITSFR50             0      0       0      51        0.0%
SFR50                0      0       0      51        0.0%
BANK23              50      0       0      52        0.0%
BITSFR51             0      0       0      52        0.0%
SFR51                0      0       0      52        0.0%
BITBANK24           50      0       0      53        0.0%
BITSFR52             0      0       0      53        0.0%
SFR52                0      0       0      53        0.0%
BANK24              50      0       0      54        0.0%
BITSFR53             0      0       0      54        0.0%
SFR53                0      0       0      54        0.0%
BITBANK25           20      0       0      55        0.0%
BITSFR54             0      0       0      55        0.0%
SFR54                0      0       0      55        0.0%
BANK25              20      0       0      56        0.0%
BITSFR55             0      0       0      56        0.0%
SFR55                0      0       0      56        0.0%
BITSFR56             0      0       0      57        0.0%
SFR56                0      0       0      57        0.0%
DATA                 0      0      73      57        0.0%
BITSFR57             0      0       0      58        0.0%
SFR57                0      0       0      58        0.0%
BITSFR58             0      0       0      59        0.0%
SFR58                0      0       0      59        0.0%
BITSFR59             0      0       0      60        0.0%
SFR59                0      0       0      60        0.0%
BITSFR60             0      0       0      61        0.0%
SFR60                0      0       0      61        0.0%
BITSFR61             0      0       0      62        0.0%
SFR61                0      0       0      62        0.0%
BITSFR62             0      0       0      63        0.0%
SFR62                0      0       0      63        0.0%
BITSFR63             0      0       0      64        0.0%
SFR63                0      0       0      64        0.0%


Microchip Technology PIC Macro Assembler V2.05 build -831301201 
Symbol Table                                                                                   Mon Mar 30 11:55:47 2020

                   shuffle@array 004A                               l80 003F                               l90 0075  
                             l82 0045                               l91 007B                               l83 004B  
                             l92 0081                               l84 0051                               l93 0087  
                             l85 0057                               l94 008D                               l86 005D  
                             l95 0093                               l87 0063                               l96 0099  
                             l88 0069                               l97 009F                               l89 006F  
                   ___awdiv@sign 003D                              l110 0107                              l102 00F2  
                            l111 010A                              l112 010D                              l104 00F5  
                            l113 0110                              l105 00F8                              l114 0113  
                            l106 00FB                              l115 0116                              l107 00FE  
                            l116 0119                              l108 0101                              l132 0289  
                            l117 011C                              l109 0104                              l141 0295  
                            l125 027E                              l118 011F                              l150 02A1  
                            l119 0122                              l135 028D                              l127 0302  
                            l144 0299                              l153 02A5                              l129 0285  
                            l162 02B1                              l138 0291                              l171 02BD  
                            l147 029D                              l156 02A9                              l165 02B5  
                            l174 02C1                              l159 02AD                              l168 02B9  
                            l199 027B                              u505 0435                              u425 0371  
                            u390 04A0                              u535 038D                              u465 0419  
                            u545 03A2                              u740 0455                              u485 0423  
                            u750 0463                              u495 042D                              wreg 0009  
                           l1421 00F0                             l1335 04A3                             l1417 00A4  
                           l1441 0281                             l1409 0392                             l1427 0124  
                           l1419 00A8                             l1611 02C5                             l1363 040E  
                           l1339 04B6                             l1429 0128                             l1381 0434  
                           l1373 0416                             l1357 0403                             l1621 0172  
                           l1447 0283                             l1375 0422                             l1385 043D  
                           l1641 01AE                             l1633 0196                             l1625 017E  
                           l1705 0490                             l1803 0246                             l1707 048A  
                           l1805 02CD                             l1389 0445                             l1661 01EA  
                           l1653 01D2                             l1645 01BA                             l1637 01A2  
                           l1629 018A                             l1807 00BA                             l1809 013A  
                           l1681 0226                             l1673 020E                             l1665 01F6  
                           l1657 01DE                             l1649 01C6                             l1691 023E  
                           l1685 0232                             l1677 021A                             l1669 0202  
                           _main 044A                             _rand 0303                             _seed 0062  
                           _time 005E                             fsr0h 0005                             fsr1h 0007  
                           indf0 0000                             fsr0l 0004                             indf1 0001  
                           fsr1l 0006                             btemp 007E                             start 000D  
                          ?_main 0070                            ?_rand 0079                  __end_of___awdiv 044A  
                  __CFG_WDTE$OFF 0000                  ___awdiv@divisor 0038                  ___awdiv@counter 003C  
                          _TMR0H 059D   defineGPIODirection@inputLength 0071                  __end_of_readPin 0303  
                __end_of_shuffle 03F8                            status 0003                            wtemp0 007E  
                __initialization 000F                     __end_of_main 0499                     __end_of_rand 0382  
                         ??_main 004D                           ??_rand 0030                 ___awdiv@dividend 003A  
                    readPin@read 0072                  _buttonLastState 007C                           ___omul 0499  
                      ??___awdiv 007B                 ___awdiv@quotient 003E                        ??_readPin 0070  
                      ??_shuffle 0042                 __end_of_writePin 027C          __end_of__initialization 0038  
                 __pcstackCOMMON 0070                     __pidataBANK0 04ED                     __pidataBANK1 04F2  
                     __pbssBANK0 005A                       __pbssBANK1 00A0     __size_of_defineGPIODirection 0134  
                     __pmaintext 044A                          ?___omul 0020                       __pintentry 0004  
            ___omul@multiplicand 0028               __size_of_timer0ISR 0009                          ___awdiv 03F8  
                __size_of___omul 0048                          __ptext1 0170                          __ptext2 0382  
                        __ptext3 0303                          __ptext4 0499                          __ptext5 03F8  
                        __ptext6 027C                          __ptext7 003C                        ?_writePin 0070  
                        _readPin 027C                          _shuffle 0382                          clrloop0 04E8  
           end_of_initialization 0038                   ___omul@product 0071                          init_ram 04E1  
              __end_of_timer0ISR 000D                          initloop 04E2                       main@F11235 006A  
                     main@F11237 00B1                        _PORTAbits 000C                        _PORTBbits 000D  
                     ??_writePin 0071                        _PORTCbits 000E         defineGPIODirection@input 0076  
                      _TRISAbits 0012                        _TRISBbits 0013                        _TRISCbits 0014  
                    shuffle@temp 0047                      shuffle@size 0040                       main@output 0055  
                 __end_of___omul 04E1  defineGPIODirection@outputLength 0072              _defineGPIODirection 003C  
            start_initialization 000F        defineGPIODirection@output 0070             ?_defineGPIODirection 0070  
              ___omul@multiplier 0020                         ??___omul 0070                      __pdataBANK0 006A  
                    __pdataBANK1 00B1                      __pbssCOMMON 007C                        ___latbits 0003  
                  __pcstackBANK0 0020            ??_defineGPIODirection 0073                         ?___awdiv 0038  
                       ?_readPin 0070                __size_of_writePin 010C                         ?_shuffle 0040  
             _timeButtonReleased 005A                        _pinStates 00A0                         _LATAbits 0018  
                       _LATBbits 0019                         _LATCbits 001A                        clear_ram0 04E7  
                       _PIE0bits 0716                        _timer0ISR 0004                         _WPUAbits 1F39  
                       _WPUBbits 1F44                         _WPUCbits 1F4F                        main@input 0050  
           defineGPIODirection@i 0077                       ?_timer0ISR 0070                    _timeTurnedOff 005C  
               __size_of___awdiv 0052                    _ledLasteState 0060                       _ANSELAbits 1F38  
                     _ANSELBbits 1F43                       _ANSELCbits 1F4E                      _buttonState 007D  
                     _T0CON0bits 059E                       _T0CON1bits 059F                 __size_of_readPin 0087  
               __size_of_shuffle 0076                         _ledState 0061                    __size_of_main 004F  
                  __size_of_rand 007F                         int$flags 007E                         _writePin 0170  
                     _INTCONbits 000B                         intlevel1 0000                     _shuffle$1250 0045  
                    ??_timer0ISR 0070                         shuffle@i 004B                         shuffle@j 0048  
    __end_of_defineGPIODirection 0170                    writePin@value 0070                    writePin@write 0073  
