

Microchip MPLAB XC8 Assembler V2.05 build -831301201 
                                                                                               Mon Mar 30 12:09:39 2020

Microchip MPLAB XC8 C Compiler v2.05 (Free license) build 20181220022703 Og1 
     1                           	processor	16F18446
     2                           	opt	pw 120
     3                           	opt	flic
     4                           	psect	idataBANK0,global,class=CODE,delta=2
     5                           	psect	cinit,global,class=CODE,merge=1,delta=2
     6                           	psect	bssBANK0,global,class=BANK0,space=1,delta=1
     7                           	psect	dataBANK0,global,class=BANK0,space=1,delta=1
     8                           	psect	bssBANK1,global,class=BANK1,space=1,delta=1
     9                           	psect	inittext,global,class=CODE,delta=2
    10                           	psect	clrtext,global,class=CODE,delta=2
    11                           	psect	cstackCOMMON,global,class=COMMON,space=1,delta=1
    12                           	psect	cstackBANK0,global,class=BANK0,space=1,delta=1
    13                           	psect	maintext,global,class=CODE,merge=1,split=1,delta=2
    14                           	psect	text1,local,class=CODE,merge=1,delta=2
    15                           	psect	text2,local,class=CODE,merge=1,delta=2
    16                           	psect	text3,local,class=CODE,merge=1,delta=2,group=2
    17                           	psect	text4,local,class=CODE,merge=1,delta=2,group=1
    18                           	psect	text5,local,class=CODE,merge=1,delta=2,group=1
    19                           	psect	text6,local,class=CODE,merge=1,delta=2
    20                           	psect	text7,local,class=CODE,merge=1,delta=2
    21                           	psect	text8,local,class=CODE,merge=1,delta=2,group=1
    22                           	psect	text9,local,class=CODE,merge=1,delta=2
    23                           	psect	intentry,global,class=CODE,delta=2
    24                           	dabs	1,0x7E,2
    25  0000                     
    26                           ; Version 2.05
    27                           ; Generated 20/12/2018 GMT
    28                           ; 
    29                           ; Copyright © 2018, Microchip Technology Inc. and its subsidiaries ("Microchip")
    30                           ; All rights reserved.
    31                           ; 
    32                           ; This software is developed by Microchip Technology Inc. and its subsidiaries ("Microch
      +                          ip").
    33                           ; 
    34                           ; Redistribution and use in source and binary forms, with or without modification, are
    35                           ; permitted provided that the following conditions are met:
    36                           ; 
    37                           ;     1. Redistributions of source code must retain the above copyright notice, this lis
      +                          t of
    38                           ;        conditions and the following disclaimer.
    39                           ; 
    40                           ;     2. Redistributions in binary form must reproduce the above copyright notice, this 
      +                          list
    41                           ;        of conditions and the following disclaimer in the documentation and/or other
    42                           ;        materials provided with the distribution.
    43                           ; 
    44                           ;     3. Microchip's name may not be used to endorse or promote products derived from th
      +                          is
    45                           ;        software without specific prior written permission.
    46                           ; 
    47                           ; THIS SOFTWARE IS PROVIDED BY MICROCHIP "AS IS" AND ANY EXPRESS OR IMPLIED WARRANTIES,
    48                           ; INCLUDING, BUT NOT LIMITED TO, THE IMPLIED WARRANTIES OF MERCHANTABILITY AND FITNESS F
      +                          OR
    49                           ; PURPOSE ARE DISCLAIMED.  IN NO EVENT SHALL MICROCHIP BE LIABLE FOR ANY DIRECT, INDIREC
      +                          T,
    50                           ; INCIDENTAL, SPECIAL, EXEMPLARY, OR CONSEQUENTIAL DAMAGES (INCLUDING BUT NOT LIMITED TO
    51                           ; PROCUREMENT OF SUBSTITUTE GOODS OR SERVICES; LOSS OF USE, DATA OR PROFITS; OR BUSINESS
    52                           ; INTERRUPTION) HOWSOEVER CAUSED AND ON ANY THEORY OF LIABILITY, WHETHER IN CONTRACT, ST
      +                          RICT
    53                           ; LIABILITY, OR TORT (INCLUDING NEGLIGENCE OR OTHERWISE) ARISING IN ANY WAY OUT OF THE U
      +                          SE OF
    54                           ; THIS SOFTWARE, EVEN IF ADVISED OF THE POSSIBILITY OF SUCH DAMAGE.
    55                           ; 
    56                           ; 
    57                           ; Code-generator required, PIC16F18446 Definitions
    58                           ; 
    59                           ; SFR Addresses
    60  0000                     	;# 
    61  0001                     	;# 
    62  0002                     	;# 
    63  0003                     	;# 
    64  0004                     	;# 
    65  0005                     	;# 
    66  0006                     	;# 
    67  0007                     	;# 
    68  0008                     	;# 
    69  0009                     	;# 
    70  000A                     	;# 
    71  000B                     	;# 
    72  000C                     	;# 
    73  000D                     	;# 
    74  000E                     	;# 
    75  0012                     	;# 
    76  0013                     	;# 
    77  0014                     	;# 
    78  0018                     	;# 
    79  0019                     	;# 
    80  001A                     	;# 
    81  008C                     	;# 
    82  008C                     	;# 
    83  008D                     	;# 
    84  008E                     	;# 
    85  008E                     	;# 
    86  008F                     	;# 
    87  0090                     	;# 
    88  0090                     	;# 
    89  0091                     	;# 
    90  0092                     	;# 
    91  0092                     	;# 
    92  0093                     	;# 
    93  0094                     	;# 
    94  0094                     	;# 
    95  0095                     	;# 
    96  0096                     	;# 
    97  0096                     	;# 
    98  0097                     	;# 
    99  0098                     	;# 
   100  0099                     	;# 
   101  009A                     	;# 
   102  009B                     	;# 
   103  009B                     	;# 
   104  009C                     	;# 
   105  009D                     	;# 
   106  009D                     	;# 
   107  009E                     	;# 
   108  009F                     	;# 
   109  010C                     	;# 
   110  010C                     	;# 
   111  010D                     	;# 
   112  010E                     	;# 
   113  010F                     	;# 
   114  010F                     	;# 
   115  0110                     	;# 
   116  0111                     	;# 
   117  0112                     	;# 
   118  0113                     	;# 
   119  0114                     	;# 
   120  0115                     	;# 
   121  0116                     	;# 
   122  0117                     	;# 
   123  0118                     	;# 
   124  0119                     	;# 
   125  0119                     	;# 
   126  0119                     	;# 
   127  011A                     	;# 
   128  011A                     	;# 
   129  011A                     	;# 
   130  011B                     	;# 
   131  011B                     	;# 
   132  011B                     	;# 
   133  011B                     	;# 
   134  011B                     	;# 
   135  011C                     	;# 
   136  011C                     	;# 
   137  011C                     	;# 
   138  011D                     	;# 
   139  011D                     	;# 
   140  011D                     	;# 
   141  011E                     	;# 
   142  011E                     	;# 
   143  011E                     	;# 
   144  011F                     	;# 
   145  011F                     	;# 
   146  011F                     	;# 
   147  011F                     	;# 
   148  011F                     	;# 
   149  018C                     	;# 
   150  018D                     	;# 
   151  018E                     	;# 
   152  018F                     	;# 
   153  0190                     	;# 
   154  0191                     	;# 
   155  0192                     	;# 
   156  0196                     	;# 
   157  0197                     	;# 
   158  0198                     	;# 
   159  0199                     	;# 
   160  019A                     	;# 
   161  019B                     	;# 
   162  019C                     	;# 
   163  020C                     	;# 
   164  020D                     	;# 
   165  020E                     	;# 
   166  020E                     	;# 
   167  020F                     	;# 
   168  020F                     	;# 
   169  0210                     	;# 
   170  0210                     	;# 
   171  0211                     	;# 
   172  0211                     	;# 
   173  0212                     	;# 
   174  0213                     	;# 
   175  0214                     	;# 
   176  0214                     	;# 
   177  0215                     	;# 
   178  0215                     	;# 
   179  0216                     	;# 
   180  0216                     	;# 
   181  0217                     	;# 
   182  0217                     	;# 
   183  0218                     	;# 
   184  0219                     	;# 
   185  021A                     	;# 
   186  021A                     	;# 
   187  021B                     	;# 
   188  021B                     	;# 
   189  021C                     	;# 
   190  021C                     	;# 
   191  021D                     	;# 
   192  021D                     	;# 
   193  021E                     	;# 
   194  021F                     	;# 
   195  028C                     	;# 
   196  028C                     	;# 
   197  028D                     	;# 
   198  028D                     	;# 
   199  028E                     	;# 
   200  028F                     	;# 
   201  0290                     	;# 
   202  0291                     	;# 
   203  0292                     	;# 
   204  0292                     	;# 
   205  0293                     	;# 
   206  0293                     	;# 
   207  0294                     	;# 
   208  0295                     	;# 
   209  0296                     	;# 
   210  0297                     	;# 
   211  0298                     	;# 
   212  0298                     	;# 
   213  0299                     	;# 
   214  0299                     	;# 
   215  029A                     	;# 
   216  029B                     	;# 
   217  029C                     	;# 
   218  029D                     	;# 
   219  029F                     	;# 
   220  030C                     	;# 
   221  030C                     	;# 
   222  030D                     	;# 
   223  030E                     	;# 
   224  030F                     	;# 
   225  0310                     	;# 
   226  0310                     	;# 
   227  0311                     	;# 
   228  0312                     	;# 
   229  0313                     	;# 
   230  0314                     	;# 
   231  0314                     	;# 
   232  0315                     	;# 
   233  0316                     	;# 
   234  0317                     	;# 
   235  0318                     	;# 
   236  0318                     	;# 
   237  0319                     	;# 
   238  031A                     	;# 
   239  031B                     	;# 
   240  038C                     	;# 
   241  038C                     	;# 
   242  038D                     	;# 
   243  038E                     	;# 
   244  0390                     	;# 
   245  0390                     	;# 
   246  0391                     	;# 
   247  0392                     	;# 
   248  048C                     	;# 
   249  048C                     	;# 
   250  048D                     	;# 
   251  048E                     	;# 
   252  048F                     	;# 
   253  048F                     	;# 
   254  0490                     	;# 
   255  0491                     	;# 
   256  0492                     	;# 
   257  0492                     	;# 
   258  0493                     	;# 
   259  0494                     	;# 
   260  0495                     	;# 
   261  0495                     	;# 
   262  0496                     	;# 
   263  0497                     	;# 
   264  0498                     	;# 
   265  0499                     	;# 
   266  049A                     	;# 
   267  049B                     	;# 
   268  049C                     	;# 
   269  049D                     	;# 
   270  058C                     	;# 
   271  058C                     	;# 
   272  058D                     	;# 
   273  058E                     	;# 
   274  058F                     	;# 
   275  058F                     	;# 
   276  0590                     	;# 
   277  0591                     	;# 
   278  0592                     	;# 
   279  0593                     	;# 
   280  059C                     	;# 
   281  059C                     	;# 
   282  059D                     	;# 
   283  059D                     	;# 
   284  059E                     	;# 
   285  059F                     	;# 
   286  060C                     	;# 
   287  060C                     	;# 
   288  060D                     	;# 
   289  060D                     	;# 
   290  060E                     	;# 
   291  060F                     	;# 
   292  0610                     	;# 
   293  0611                     	;# 
   294  0612                     	;# 
   295  0613                     	;# 
   296  0614                     	;# 
   297  0616                     	;# 
   298  0616                     	;# 
   299  0617                     	;# 
   300  0617                     	;# 
   301  0618                     	;# 
   302  0619                     	;# 
   303  061A                     	;# 
   304  061B                     	;# 
   305  061C                     	;# 
   306  061D                     	;# 
   307  061E                     	;# 
   308  070C                     	;# 
   309  070D                     	;# 
   310  070E                     	;# 
   311  070F                     	;# 
   312  0710                     	;# 
   313  0711                     	;# 
   314  0712                     	;# 
   315  0713                     	;# 
   316  0714                     	;# 
   317  0716                     	;# 
   318  0717                     	;# 
   319  0718                     	;# 
   320  0719                     	;# 
   321  071A                     	;# 
   322  071B                     	;# 
   323  071C                     	;# 
   324  071D                     	;# 
   325  071E                     	;# 
   326  0796                     	;# 
   327  0797                     	;# 
   328  0798                     	;# 
   329  0799                     	;# 
   330  079A                     	;# 
   331  079B                     	;# 
   332  079C                     	;# 
   333  079D                     	;# 
   334  080C                     	;# 
   335  080D                     	;# 
   336  080E                     	;# 
   337  080F                     	;# 
   338  0810                     	;# 
   339  0811                     	;# 
   340  0812                     	;# 
   341  0813                     	;# 
   342  0814                     	;# 
   343  081A                     	;# 
   344  081A                     	;# 
   345  081B                     	;# 
   346  081C                     	;# 
   347  081C                     	;# 
   348  081D                     	;# 
   349  081E                     	;# 
   350  081F                     	;# 
   351  088C                     	;# 
   352  088D                     	;# 
   353  088E                     	;# 
   354  088F                     	;# 
   355  0890                     	;# 
   356  0891                     	;# 
   357  0892                     	;# 
   358  0893                     	;# 
   359  0895                     	;# 
   360  0896                     	;# 
   361  0897                     	;# 
   362  0898                     	;# 
   363  0899                     	;# 
   364  089A                     	;# 
   365  089B                     	;# 
   366  090C                     	;# 
   367  090E                     	;# 
   368  090F                     	;# 
   369  091F                     	;# 
   370  098F                     	;# 
   371  098F                     	;# 
   372  0990                     	;# 
   373  0991                     	;# 
   374  0992                     	;# 
   375  0993                     	;# 
   376  0994                     	;# 
   377  0995                     	;# 
   378  0996                     	;# 
   379  0997                     	;# 
   380  1E0F                     	;# 
   381  1E10                     	;# 
   382  1E11                     	;# 
   383  1E12                     	;# 
   384  1E13                     	;# 
   385  1E14                     	;# 
   386  1E15                     	;# 
   387  1E16                     	;# 
   388  1E17                     	;# 
   389  1E18                     	;# 
   390  1E19                     	;# 
   391  1E1A                     	;# 
   392  1E1B                     	;# 
   393  1E1C                     	;# 
   394  1E1D                     	;# 
   395  1E1E                     	;# 
   396  1E1F                     	;# 
   397  1E20                     	;# 
   398  1E21                     	;# 
   399  1E22                     	;# 
   400  1E23                     	;# 
   401  1E24                     	;# 
   402  1E25                     	;# 
   403  1E26                     	;# 
   404  1E27                     	;# 
   405  1E28                     	;# 
   406  1E29                     	;# 
   407  1E2A                     	;# 
   408  1E2B                     	;# 
   409  1E2C                     	;# 
   410  1E2D                     	;# 
   411  1E2E                     	;# 
   412  1E2F                     	;# 
   413  1E30                     	;# 
   414  1E31                     	;# 
   415  1E32                     	;# 
   416  1E33                     	;# 
   417  1E34                     	;# 
   418  1E35                     	;# 
   419  1E36                     	;# 
   420  1E37                     	;# 
   421  1E8F                     	;# 
   422  1E90                     	;# 
   423  1E91                     	;# 
   424  1E92                     	;# 
   425  1E93                     	;# 
   426  1E94                     	;# 
   427  1E95                     	;# 
   428  1E96                     	;# 
   429  1E97                     	;# 
   430  1E9C                     	;# 
   431  1E9D                     	;# 
   432  1E9E                     	;# 
   433  1EA1                     	;# 
   434  1EA2                     	;# 
   435  1EA3                     	;# 
   436  1EA4                     	;# 
   437  1EA9                     	;# 
   438  1EAA                     	;# 
   439  1EB1                     	;# 
   440  1EB2                     	;# 
   441  1EB8                     	;# 
   442  1EB9                     	;# 
   443  1EBA                     	;# 
   444  1EBB                     	;# 
   445  1EBC                     	;# 
   446  1EBD                     	;# 
   447  1EBE                     	;# 
   448  1EC3                     	;# 
   449  1EC5                     	;# 
   450  1EC6                     	;# 
   451  1EC7                     	;# 
   452  1EC8                     	;# 
   453  1EC9                     	;# 
   454  1ECA                     	;# 
   455  1ECB                     	;# 
   456  1ECB                     	;# 
   457  1ECB                     	;# 
   458  1ECC                     	;# 
   459  1ECC                     	;# 
   460  1ECC                     	;# 
   461  1F10                     	;# 
   462  1F11                     	;# 
   463  1F12                     	;# 
   464  1F14                     	;# 
   465  1F15                     	;# 
   466  1F1C                     	;# 
   467  1F1D                     	;# 
   468  1F1E                     	;# 
   469  1F1F                     	;# 
   470  1F20                     	;# 
   471  1F21                     	;# 
   472  1F22                     	;# 
   473  1F23                     	;# 
   474  1F24                     	;# 
   475  1F25                     	;# 
   476  1F26                     	;# 
   477  1F27                     	;# 
   478  1F38                     	;# 
   479  1F39                     	;# 
   480  1F3A                     	;# 
   481  1F3B                     	;# 
   482  1F3C                     	;# 
   483  1F3D                     	;# 
   484  1F3E                     	;# 
   485  1F3F                     	;# 
   486  1F43                     	;# 
   487  1F44                     	;# 
   488  1F45                     	;# 
   489  1F46                     	;# 
   490  1F47                     	;# 
   491  1F48                     	;# 
   492  1F49                     	;# 
   493  1F4A                     	;# 
   494  1F4E                     	;# 
   495  1F4F                     	;# 
   496  1F50                     	;# 
   497  1F51                     	;# 
   498  1F52                     	;# 
   499  1F53                     	;# 
   500  1F54                     	;# 
   501  1F55                     	;# 
   502  1FE4                     	;# 
   503  1FE5                     	;# 
   504  1FE6                     	;# 
   505  1FE7                     	;# 
   506  1FE8                     	;# 
   507  1FE8                     	;# 
   508  1FE9                     	;# 
   509  1FEA                     	;# 
   510  1FEB                     	;# 
   511  1FED                     	;# 
   512  1FEE                     	;# 
   513  1FEF                     	;# 
   514  0000                     	;# 
   515  0001                     	;# 
   516  0002                     	;# 
   517  0003                     	;# 
   518  0004                     	;# 
   519  0005                     	;# 
   520  0006                     	;# 
   521  0007                     	;# 
   522  0008                     	;# 
   523  0009                     	;# 
   524  000A                     	;# 
   525  000B                     	;# 
   526  000C                     	;# 
   527  000D                     	;# 
   528  000E                     	;# 
   529  0012                     	;# 
   530  0013                     	;# 
   531  0014                     	;# 
   532  0018                     	;# 
   533  0019                     	;# 
   534  001A                     	;# 
   535  008C                     	;# 
   536  008C                     	;# 
   537  008D                     	;# 
   538  008E                     	;# 
   539  008E                     	;# 
   540  008F                     	;# 
   541  0090                     	;# 
   542  0090                     	;# 
   543  0091                     	;# 
   544  0092                     	;# 
   545  0092                     	;# 
   546  0093                     	;# 
   547  0094                     	;# 
   548  0094                     	;# 
   549  0095                     	;# 
   550  0096                     	;# 
   551  0096                     	;# 
   552  0097                     	;# 
   553  0098                     	;# 
   554  0099                     	;# 
   555  009A                     	;# 
   556  009B                     	;# 
   557  009B                     	;# 
   558  009C                     	;# 
   559  009D                     	;# 
   560  009D                     	;# 
   561  009E                     	;# 
   562  009F                     	;# 
   563  010C                     	;# 
   564  010C                     	;# 
   565  010D                     	;# 
   566  010E                     	;# 
   567  010F                     	;# 
   568  010F                     	;# 
   569  0110                     	;# 
   570  0111                     	;# 
   571  0112                     	;# 
   572  0113                     	;# 
   573  0114                     	;# 
   574  0115                     	;# 
   575  0116                     	;# 
   576  0117                     	;# 
   577  0118                     	;# 
   578  0119                     	;# 
   579  0119                     	;# 
   580  0119                     	;# 
   581  011A                     	;# 
   582  011A                     	;# 
   583  011A                     	;# 
   584  011B                     	;# 
   585  011B                     	;# 
   586  011B                     	;# 
   587  011B                     	;# 
   588  011B                     	;# 
   589  011C                     	;# 
   590  011C                     	;# 
   591  011C                     	;# 
   592  011D                     	;# 
   593  011D                     	;# 
   594  011D                     	;# 
   595  011E                     	;# 
   596  011E                     	;# 
   597  011E                     	;# 
   598  011F                     	;# 
   599  011F                     	;# 
   600  011F                     	;# 
   601  011F                     	;# 
   602  011F                     	;# 
   603  018C                     	;# 
   604  018D                     	;# 
   605  018E                     	;# 
   606  018F                     	;# 
   607  0190                     	;# 
   608  0191                     	;# 
   609  0192                     	;# 
   610  0196                     	;# 
   611  0197                     	;# 
   612  0198                     	;# 
   613  0199                     	;# 
   614  019A                     	;# 
   615  019B                     	;# 
   616  019C                     	;# 
   617  020C                     	;# 
   618  020D                     	;# 
   619  020E                     	;# 
   620  020E                     	;# 
   621  020F                     	;# 
   622  020F                     	;# 
   623  0210                     	;# 
   624  0210                     	;# 
   625  0211                     	;# 
   626  0211                     	;# 
   627  0212                     	;# 
   628  0213                     	;# 
   629  0214                     	;# 
   630  0214                     	;# 
   631  0215                     	;# 
   632  0215                     	;# 
   633  0216                     	;# 
   634  0216                     	;# 
   635  0217                     	;# 
   636  0217                     	;# 
   637  0218                     	;# 
   638  0219                     	;# 
   639  021A                     	;# 
   640  021A                     	;# 
   641  021B                     	;# 
   642  021B                     	;# 
   643  021C                     	;# 
   644  021C                     	;# 
   645  021D                     	;# 
   646  021D                     	;# 
   647  021E                     	;# 
   648  021F                     	;# 
   649  028C                     	;# 
   650  028C                     	;# 
   651  028D                     	;# 
   652  028D                     	;# 
   653  028E                     	;# 
   654  028F                     	;# 
   655  0290                     	;# 
   656  0291                     	;# 
   657  0292                     	;# 
   658  0292                     	;# 
   659  0293                     	;# 
   660  0293                     	;# 
   661  0294                     	;# 
   662  0295                     	;# 
   663  0296                     	;# 
   664  0297                     	;# 
   665  0298                     	;# 
   666  0298                     	;# 
   667  0299                     	;# 
   668  0299                     	;# 
   669  029A                     	;# 
   670  029B                     	;# 
   671  029C                     	;# 
   672  029D                     	;# 
   673  029F                     	;# 
   674  030C                     	;# 
   675  030C                     	;# 
   676  030D                     	;# 
   677  030E                     	;# 
   678  030F                     	;# 
   679  0310                     	;# 
   680  0310                     	;# 
   681  0311                     	;# 
   682  0312                     	;# 
   683  0313                     	;# 
   684  0314                     	;# 
   685  0314                     	;# 
   686  0315                     	;# 
   687  0316                     	;# 
   688  0317                     	;# 
   689  0318                     	;# 
   690  0318                     	;# 
   691  0319                     	;# 
   692  031A                     	;# 
   693  031B                     	;# 
   694  038C                     	;# 
   695  038C                     	;# 
   696  038D                     	;# 
   697  038E                     	;# 
   698  0390                     	;# 
   699  0390                     	;# 
   700  0391                     	;# 
   701  0392                     	;# 
   702  048C                     	;# 
   703  048C                     	;# 
   704  048D                     	;# 
   705  048E                     	;# 
   706  048F                     	;# 
   707  048F                     	;# 
   708  0490                     	;# 
   709  0491                     	;# 
   710  0492                     	;# 
   711  0492                     	;# 
   712  0493                     	;# 
   713  0494                     	;# 
   714  0495                     	;# 
   715  0495                     	;# 
   716  0496                     	;# 
   717  0497                     	;# 
   718  0498                     	;# 
   719  0499                     	;# 
   720  049A                     	;# 
   721  049B                     	;# 
   722  049C                     	;# 
   723  049D                     	;# 
   724  058C                     	;# 
   725  058C                     	;# 
   726  058D                     	;# 
   727  058E                     	;# 
   728  058F                     	;# 
   729  058F                     	;# 
   730  0590                     	;# 
   731  0591                     	;# 
   732  0592                     	;# 
   733  0593                     	;# 
   734  059C                     	;# 
   735  059C                     	;# 
   736  059D                     	;# 
   737  059D                     	;# 
   738  059E                     	;# 
   739  059F                     	;# 
   740  060C                     	;# 
   741  060C                     	;# 
   742  060D                     	;# 
   743  060D                     	;# 
   744  060E                     	;# 
   745  060F                     	;# 
   746  0610                     	;# 
   747  0611                     	;# 
   748  0612                     	;# 
   749  0613                     	;# 
   750  0614                     	;# 
   751  0616                     	;# 
   752  0616                     	;# 
   753  0617                     	;# 
   754  0617                     	;# 
   755  0618                     	;# 
   756  0619                     	;# 
   757  061A                     	;# 
   758  061B                     	;# 
   759  061C                     	;# 
   760  061D                     	;# 
   761  061E                     	;# 
   762  070C                     	;# 
   763  070D                     	;# 
   764  070E                     	;# 
   765  070F                     	;# 
   766  0710                     	;# 
   767  0711                     	;# 
   768  0712                     	;# 
   769  0713                     	;# 
   770  0714                     	;# 
   771  0716                     	;# 
   772  0717                     	;# 
   773  0718                     	;# 
   774  0719                     	;# 
   775  071A                     	;# 
   776  071B                     	;# 
   777  071C                     	;# 
   778  071D                     	;# 
   779  071E                     	;# 
   780  0796                     	;# 
   781  0797                     	;# 
   782  0798                     	;# 
   783  0799                     	;# 
   784  079A                     	;# 
   785  079B                     	;# 
   786  079C                     	;# 
   787  079D                     	;# 
   788  080C                     	;# 
   789  080D                     	;# 
   790  080E                     	;# 
   791  080F                     	;# 
   792  0810                     	;# 
   793  0811                     	;# 
   794  0812                     	;# 
   795  0813                     	;# 
   796  0814                     	;# 
   797  081A                     	;# 
   798  081A                     	;# 
   799  081B                     	;# 
   800  081C                     	;# 
   801  081C                     	;# 
   802  081D                     	;# 
   803  081E                     	;# 
   804  081F                     	;# 
   805  088C                     	;# 
   806  088D                     	;# 
   807  088E                     	;# 
   808  088F                     	;# 
   809  0890                     	;# 
   810  0891                     	;# 
   811  0892                     	;# 
   812  0893                     	;# 
   813  0895                     	;# 
   814  0896                     	;# 
   815  0897                     	;# 
   816  0898                     	;# 
   817  0899                     	;# 
   818  089A                     	;# 
   819  089B                     	;# 
   820  090C                     	;# 
   821  090E                     	;# 
   822  090F                     	;# 
   823  091F                     	;# 
   824  098F                     	;# 
   825  098F                     	;# 
   826  0990                     	;# 
   827  0991                     	;# 
   828  0992                     	;# 
   829  0993                     	;# 
   830  0994                     	;# 
   831  0995                     	;# 
   832  0996                     	;# 
   833  0997                     	;# 
   834  1E0F                     	;# 
   835  1E10                     	;# 
   836  1E11                     	;# 
   837  1E12                     	;# 
   838  1E13                     	;# 
   839  1E14                     	;# 
   840  1E15                     	;# 
   841  1E16                     	;# 
   842  1E17                     	;# 
   843  1E18                     	;# 
   844  1E19                     	;# 
   845  1E1A                     	;# 
   846  1E1B                     	;# 
   847  1E1C                     	;# 
   848  1E1D                     	;# 
   849  1E1E                     	;# 
   850  1E1F                     	;# 
   851  1E20                     	;# 
   852  1E21                     	;# 
   853  1E22                     	;# 
   854  1E23                     	;# 
   855  1E24                     	;# 
   856  1E25                     	;# 
   857  1E26                     	;# 
   858  1E27                     	;# 
   859  1E28                     	;# 
   860  1E29                     	;# 
   861  1E2A                     	;# 
   862  1E2B                     	;# 
   863  1E2C                     	;# 
   864  1E2D                     	;# 
   865  1E2E                     	;# 
   866  1E2F                     	;# 
   867  1E30                     	;# 
   868  1E31                     	;# 
   869  1E32                     	;# 
   870  1E33                     	;# 
   871  1E34                     	;# 
   872  1E35                     	;# 
   873  1E36                     	;# 
   874  1E37                     	;# 
   875  1E8F                     	;# 
   876  1E90                     	;# 
   877  1E91                     	;# 
   878  1E92                     	;# 
   879  1E93                     	;# 
   880  1E94                     	;# 
   881  1E95                     	;# 
   882  1E96                     	;# 
   883  1E97                     	;# 
   884  1E9C                     	;# 
   885  1E9D                     	;# 
   886  1E9E                     	;# 
   887  1EA1                     	;# 
   888  1EA2                     	;# 
   889  1EA3                     	;# 
   890  1EA4                     	;# 
   891  1EA9                     	;# 
   892  1EAA                     	;# 
   893  1EB1                     	;# 
   894  1EB2                     	;# 
   895  1EB8                     	;# 
   896  1EB9                     	;# 
   897  1EBA                     	;# 
   898  1EBB                     	;# 
   899  1EBC                     	;# 
   900  1EBD                     	;# 
   901  1EBE                     	;# 
   902  1EC3                     	;# 
   903  1EC5                     	;# 
   904  1EC6                     	;# 
   905  1EC7                     	;# 
   906  1EC8                     	;# 
   907  1EC9                     	;# 
   908  1ECA                     	;# 
   909  1ECB                     	;# 
   910  1ECB                     	;# 
   911  1ECB                     	;# 
   912  1ECC                     	;# 
   913  1ECC                     	;# 
   914  1ECC                     	;# 
   915  1F10                     	;# 
   916  1F11                     	;# 
   917  1F12                     	;# 
   918  1F14                     	;# 
   919  1F15                     	;# 
   920  1F1C                     	;# 
   921  1F1D                     	;# 
   922  1F1E                     	;# 
   923  1F1F                     	;# 
   924  1F20                     	;# 
   925  1F21                     	;# 
   926  1F22                     	;# 
   927  1F23                     	;# 
   928  1F24                     	;# 
   929  1F25                     	;# 
   930  1F26                     	;# 
   931  1F27                     	;# 
   932  1F38                     	;# 
   933  1F39                     	;# 
   934  1F3A                     	;# 
   935  1F3B                     	;# 
   936  1F3C                     	;# 
   937  1F3D                     	;# 
   938  1F3E                     	;# 
   939  1F3F                     	;# 
   940  1F43                     	;# 
   941  1F44                     	;# 
   942  1F45                     	;# 
   943  1F46                     	;# 
   944  1F47                     	;# 
   945  1F48                     	;# 
   946  1F49                     	;# 
   947  1F4A                     	;# 
   948  1F4E                     	;# 
   949  1F4F                     	;# 
   950  1F50                     	;# 
   951  1F51                     	;# 
   952  1F52                     	;# 
   953  1F53                     	;# 
   954  1F54                     	;# 
   955  1F55                     	;# 
   956  1FE4                     	;# 
   957  1FE5                     	;# 
   958  1FE6                     	;# 
   959  1FE7                     	;# 
   960  1FE8                     	;# 
   961  1FE8                     	;# 
   962  1FE9                     	;# 
   963  1FEA                     	;# 
   964  1FEB                     	;# 
   965  1FED                     	;# 
   966  1FEE                     	;# 
   967  1FEF                     	;# 
   968  0000                     	;# 
   969  0001                     	;# 
   970  0002                     	;# 
   971  0003                     	;# 
   972  0004                     	;# 
   973  0005                     	;# 
   974  0006                     	;# 
   975  0007                     	;# 
   976  0008                     	;# 
   977  0009                     	;# 
   978  000A                     	;# 
   979  000B                     	;# 
   980  000C                     	;# 
   981  000D                     	;# 
   982  000E                     	;# 
   983  0012                     	;# 
   984  0013                     	;# 
   985  0014                     	;# 
   986  0018                     	;# 
   987  0019                     	;# 
   988  001A                     	;# 
   989  008C                     	;# 
   990  008C                     	;# 
   991  008D                     	;# 
   992  008E                     	;# 
   993  008E                     	;# 
   994  008F                     	;# 
   995  0090                     	;# 
   996  0090                     	;# 
   997  0091                     	;# 
   998  0092                     	;# 
   999  0092                     	;# 
  1000  0093                     	;# 
  1001  0094                     	;# 
  1002  0094                     	;# 
  1003  0095                     	;# 
  1004  0096                     	;# 
  1005  0096                     	;# 
  1006  0097                     	;# 
  1007  0098                     	;# 
  1008  0099                     	;# 
  1009  009A                     	;# 
  1010  009B                     	;# 
  1011  009B                     	;# 
  1012  009C                     	;# 
  1013  009D                     	;# 
  1014  009D                     	;# 
  1015  009E                     	;# 
  1016  009F                     	;# 
  1017  010C                     	;# 
  1018  010C                     	;# 
  1019  010D                     	;# 
  1020  010E                     	;# 
  1021  010F                     	;# 
  1022  010F                     	;# 
  1023  0110                     	;# 
  1024  0111                     	;# 
  1025  0112                     	;# 
  1026  0113                     	;# 
  1027  0114                     	;# 
  1028  0115                     	;# 
  1029  0116                     	;# 
  1030  0117                     	;# 
  1031  0118                     	;# 
  1032  0119                     	;# 
  1033  0119                     	;# 
  1034  0119                     	;# 
  1035  011A                     	;# 
  1036  011A                     	;# 
  1037  011A                     	;# 
  1038  011B                     	;# 
  1039  011B                     	;# 
  1040  011B                     	;# 
  1041  011B                     	;# 
  1042  011B                     	;# 
  1043  011C                     	;# 
  1044  011C                     	;# 
  1045  011C                     	;# 
  1046  011D                     	;# 
  1047  011D                     	;# 
  1048  011D                     	;# 
  1049  011E                     	;# 
  1050  011E                     	;# 
  1051  011E                     	;# 
  1052  011F                     	;# 
  1053  011F                     	;# 
  1054  011F                     	;# 
  1055  011F                     	;# 
  1056  011F                     	;# 
  1057  018C                     	;# 
  1058  018D                     	;# 
  1059  018E                     	;# 
  1060  018F                     	;# 
  1061  0190                     	;# 
  1062  0191                     	;# 
  1063  0192                     	;# 
  1064  0196                     	;# 
  1065  0197                     	;# 
  1066  0198                     	;# 
  1067  0199                     	;# 
  1068  019A                     	;# 
  1069  019B                     	;# 
  1070  019C                     	;# 
  1071  020C                     	;# 
  1072  020D                     	;# 
  1073  020E                     	;# 
  1074  020E                     	;# 
  1075  020F                     	;# 
  1076  020F                     	;# 
  1077  0210                     	;# 
  1078  0210                     	;# 
  1079  0211                     	;# 
  1080  0211                     	;# 
  1081  0212                     	;# 
  1082  0213                     	;# 
  1083  0214                     	;# 
  1084  0214                     	;# 
  1085  0215                     	;# 
  1086  0215                     	;# 
  1087  0216                     	;# 
  1088  0216                     	;# 
  1089  0217                     	;# 
  1090  0217                     	;# 
  1091  0218                     	;# 
  1092  0219                     	;# 
  1093  021A                     	;# 
  1094  021A                     	;# 
  1095  021B                     	;# 
  1096  021B                     	;# 
  1097  021C                     	;# 
  1098  021C                     	;# 
  1099  021D                     	;# 
  1100  021D                     	;# 
  1101  021E                     	;# 
  1102  021F                     	;# 
  1103  028C                     	;# 
  1104  028C                     	;# 
  1105  028D                     	;# 
  1106  028D                     	;# 
  1107  028E                     	;# 
  1108  028F                     	;# 
  1109  0290                     	;# 
  1110  0291                     	;# 
  1111  0292                     	;# 
  1112  0292                     	;# 
  1113  0293                     	;# 
  1114  0293                     	;# 
  1115  0294                     	;# 
  1116  0295                     	;# 
  1117  0296                     	;# 
  1118  0297                     	;# 
  1119  0298                     	;# 
  1120  0298                     	;# 
  1121  0299                     	;# 
  1122  0299                     	;# 
  1123  029A                     	;# 
  1124  029B                     	;# 
  1125  029C                     	;# 
  1126  029D                     	;# 
  1127  029F                     	;# 
  1128  030C                     	;# 
  1129  030C                     	;# 
  1130  030D                     	;# 
  1131  030E                     	;# 
  1132  030F                     	;# 
  1133  0310                     	;# 
  1134  0310                     	;# 
  1135  0311                     	;# 
  1136  0312                     	;# 
  1137  0313                     	;# 
  1138  0314                     	;# 
  1139  0314                     	;# 
  1140  0315                     	;# 
  1141  0316                     	;# 
  1142  0317                     	;# 
  1143  0318                     	;# 
  1144  0318                     	;# 
  1145  0319                     	;# 
  1146  031A                     	;# 
  1147  031B                     	;# 
  1148  038C                     	;# 
  1149  038C                     	;# 
  1150  038D                     	;# 
  1151  038E                     	;# 
  1152  0390                     	;# 
  1153  0390                     	;# 
  1154  0391                     	;# 
  1155  0392                     	;# 
  1156  048C                     	;# 
  1157  048C                     	;# 
  1158  048D                     	;# 
  1159  048E                     	;# 
  1160  048F                     	;# 
  1161  048F                     	;# 
  1162  0490                     	;# 
  1163  0491                     	;# 
  1164  0492                     	;# 
  1165  0492                     	;# 
  1166  0493                     	;# 
  1167  0494                     	;# 
  1168  0495                     	;# 
  1169  0495                     	;# 
  1170  0496                     	;# 
  1171  0497                     	;# 
  1172  0498                     	;# 
  1173  0499                     	;# 
  1174  049A                     	;# 
  1175  049B                     	;# 
  1176  049C                     	;# 
  1177  049D                     	;# 
  1178  058C                     	;# 
  1179  058C                     	;# 
  1180  058D                     	;# 
  1181  058E                     	;# 
  1182  058F                     	;# 
  1183  058F                     	;# 
  1184  0590                     	;# 
  1185  0591                     	;# 
  1186  0592                     	;# 
  1187  0593                     	;# 
  1188  059C                     	;# 
  1189  059C                     	;# 
  1190  059D                     	;# 
  1191  059D                     	;# 
  1192  059E                     	;# 
  1193  059F                     	;# 
  1194  060C                     	;# 
  1195  060C                     	;# 
  1196  060D                     	;# 
  1197  060D                     	;# 
  1198  060E                     	;# 
  1199  060F                     	;# 
  1200  0610                     	;# 
  1201  0611                     	;# 
  1202  0612                     	;# 
  1203  0613                     	;# 
  1204  0614                     	;# 
  1205  0616                     	;# 
  1206  0616                     	;# 
  1207  0617                     	;# 
  1208  0617                     	;# 
  1209  0618                     	;# 
  1210  0619                     	;# 
  1211  061A                     	;# 
  1212  061B                     	;# 
  1213  061C                     	;# 
  1214  061D                     	;# 
  1215  061E                     	;# 
  1216  070C                     	;# 
  1217  070D                     	;# 
  1218  070E                     	;# 
  1219  070F                     	;# 
  1220  0710                     	;# 
  1221  0711                     	;# 
  1222  0712                     	;# 
  1223  0713                     	;# 
  1224  0714                     	;# 
  1225  0716                     	;# 
  1226  0717                     	;# 
  1227  0718                     	;# 
  1228  0719                     	;# 
  1229  071A                     	;# 
  1230  071B                     	;# 
  1231  071C                     	;# 
  1232  071D                     	;# 
  1233  071E                     	;# 
  1234  0796                     	;# 
  1235  0797                     	;# 
  1236  0798                     	;# 
  1237  0799                     	;# 
  1238  079A                     	;# 
  1239  079B                     	;# 
  1240  079C                     	;# 
  1241  079D                     	;# 
  1242  080C                     	;# 
  1243  080D                     	;# 
  1244  080E                     	;# 
  1245  080F                     	;# 
  1246  0810                     	;# 
  1247  0811                     	;# 
  1248  0812                     	;# 
  1249  0813                     	;# 
  1250  0814                     	;# 
  1251  081A                     	;# 
  1252  081A                     	;# 
  1253  081B                     	;# 
  1254  081C                     	;# 
  1255  081C                     	;# 
  1256  081D                     	;# 
  1257  081E                     	;# 
  1258  081F                     	;# 
  1259  088C                     	;# 
  1260  088D                     	;# 
  1261  088E                     	;# 
  1262  088F                     	;# 
  1263  0890                     	;# 
  1264  0891                     	;# 
  1265  0892                     	;# 
  1266  0893                     	;# 
  1267  0895                     	;# 
  1268  0896                     	;# 
  1269  0897                     	;# 
  1270  0898                     	;# 
  1271  0899                     	;# 
  1272  089A                     	;# 
  1273  089B                     	;# 
  1274  090C                     	;# 
  1275  090E                     	;# 
  1276  090F                     	;# 
  1277  091F                     	;# 
  1278  098F                     	;# 
  1279  098F                     	;# 
  1280  0990                     	;# 
  1281  0991                     	;# 
  1282  0992                     	;# 
  1283  0993                     	;# 
  1284  0994                     	;# 
  1285  0995                     	;# 
  1286  0996                     	;# 
  1287  0997                     	;# 
  1288  1E0F                     	;# 
  1289  1E10                     	;# 
  1290  1E11                     	;# 
  1291  1E12                     	;# 
  1292  1E13                     	;# 
  1293  1E14                     	;# 
  1294  1E15                     	;# 
  1295  1E16                     	;# 
  1296  1E17                     	;# 
  1297  1E18                     	;# 
  1298  1E19                     	;# 
  1299  1E1A                     	;# 
  1300  1E1B                     	;# 
  1301  1E1C                     	;# 
  1302  1E1D                     	;# 
  1303  1E1E                     	;# 
  1304  1E1F                     	;# 
  1305  1E20                     	;# 
  1306  1E21                     	;# 
  1307  1E22                     	;# 
  1308  1E23                     	;# 
  1309  1E24                     	;# 
  1310  1E25                     	;# 
  1311  1E26                     	;# 
  1312  1E27                     	;# 
  1313  1E28                     	;# 
  1314  1E29                     	;# 
  1315  1E2A                     	;# 
  1316  1E2B                     	;# 
  1317  1E2C                     	;# 
  1318  1E2D                     	;# 
  1319  1E2E                     	;# 
  1320  1E2F                     	;# 
  1321  1E30                     	;# 
  1322  1E31                     	;# 
  1323  1E32                     	;# 
  1324  1E33                     	;# 
  1325  1E34                     	;# 
  1326  1E35                     	;# 
  1327  1E36                     	;# 
  1328  1E37                     	;# 
  1329  1E8F                     	;# 
  1330  1E90                     	;# 
  1331  1E91                     	;# 
  1332  1E92                     	;# 
  1333  1E93                     	;# 
  1334  1E94                     	;# 
  1335  1E95                     	;# 
  1336  1E96                     	;# 
  1337  1E97                     	;# 
  1338  1E9C                     	;# 
  1339  1E9D                     	;# 
  1340  1E9E                     	;# 
  1341  1EA1                     	;# 
  1342  1EA2                     	;# 
  1343  1EA3                     	;# 
  1344  1EA4                     	;# 
  1345  1EA9                     	;# 
  1346  1EAA                     	;# 
  1347  1EB1                     	;# 
  1348  1EB2                     	;# 
  1349  1EB8                     	;# 
  1350  1EB9                     	;# 
  1351  1EBA                     	;# 
  1352  1EBB                     	;# 
  1353  1EBC                     	;# 
  1354  1EBD                     	;# 
  1355  1EBE                     	;# 
  1356  1EC3                     	;# 
  1357  1EC5                     	;# 
  1358  1EC6                     	;# 
  1359  1EC7                     	;# 
  1360  1EC8                     	;# 
  1361  1EC9                     	;# 
  1362  1ECA                     	;# 
  1363  1ECB                     	;# 
  1364  1ECB                     	;# 
  1365  1ECB                     	;# 
  1366  1ECC                     	;# 
  1367  1ECC                     	;# 
  1368  1ECC                     	;# 
  1369  1F10                     	;# 
  1370  1F11                     	;# 
  1371  1F12                     	;# 
  1372  1F14                     	;# 
  1373  1F15                     	;# 
  1374  1F1C                     	;# 
  1375  1F1D                     	;# 
  1376  1F1E                     	;# 
  1377  1F1F                     	;# 
  1378  1F20                     	;# 
  1379  1F21                     	;# 
  1380  1F22                     	;# 
  1381  1F23                     	;# 
  1382  1F24                     	;# 
  1383  1F25                     	;# 
  1384  1F26                     	;# 
  1385  1F27                     	;# 
  1386  1F38                     	;# 
  1387  1F39                     	;# 
  1388  1F3A                     	;# 
  1389  1F3B                     	;# 
  1390  1F3C                     	;# 
  1391  1F3D                     	;# 
  1392  1F3E                     	;# 
  1393  1F3F                     	;# 
  1394  1F43                     	;# 
  1395  1F44                     	;# 
  1396  1F45                     	;# 
  1397  1F46                     	;# 
  1398  1F47                     	;# 
  1399  1F48                     	;# 
  1400  1F49                     	;# 
  1401  1F4A                     	;# 
  1402  1F4E                     	;# 
  1403  1F4F                     	;# 
  1404  1F50                     	;# 
  1405  1F51                     	;# 
  1406  1F52                     	;# 
  1407  1F53                     	;# 
  1408  1F54                     	;# 
  1409  1F55                     	;# 
  1410  1FE4                     	;# 
  1411  1FE5                     	;# 
  1412  1FE6                     	;# 
  1413  1FE7                     	;# 
  1414  1FE8                     	;# 
  1415  1FE8                     	;# 
  1416  1FE9                     	;# 
  1417  1FEA                     	;# 
  1418  1FEB                     	;# 
  1419  1FED                     	;# 
  1420  1FEE                     	;# 
  1421  1FEF                     	;# 
  1422  0000                     	;# 
  1423  0001                     	;# 
  1424  0002                     	;# 
  1425  0003                     	;# 
  1426  0004                     	;# 
  1427  0005                     	;# 
  1428  0006                     	;# 
  1429  0007                     	;# 
  1430  0008                     	;# 
  1431  0009                     	;# 
  1432  000A                     	;# 
  1433  000B                     	;# 
  1434  000C                     	;# 
  1435  000D                     	;# 
  1436  000E                     	;# 
  1437  0012                     	;# 
  1438  0013                     	;# 
  1439  0014                     	;# 
  1440  0018                     	;# 
  1441  0019                     	;# 
  1442  001A                     	;# 
  1443  008C                     	;# 
  1444  008C                     	;# 
  1445  008D                     	;# 
  1446  008E                     	;# 
  1447  008E                     	;# 
  1448  008F                     	;# 
  1449  0090                     	;# 
  1450  0090                     	;# 
  1451  0091                     	;# 
  1452  0092                     	;# 
  1453  0092                     	;# 
  1454  0093                     	;# 
  1455  0094                     	;# 
  1456  0094                     	;# 
  1457  0095                     	;# 
  1458  0096                     	;# 
  1459  0096                     	;# 
  1460  0097                     	;# 
  1461  0098                     	;# 
  1462  0099                     	;# 
  1463  009A                     	;# 
  1464  009B                     	;# 
  1465  009B                     	;# 
  1466  009C                     	;# 
  1467  009D                     	;# 
  1468  009D                     	;# 
  1469  009E                     	;# 
  1470  009F                     	;# 
  1471  010C                     	;# 
  1472  010C                     	;# 
  1473  010D                     	;# 
  1474  010E                     	;# 
  1475  010F                     	;# 
  1476  010F                     	;# 
  1477  0110                     	;# 
  1478  0111                     	;# 
  1479  0112                     	;# 
  1480  0113                     	;# 
  1481  0114                     	;# 
  1482  0115                     	;# 
  1483  0116                     	;# 
  1484  0117                     	;# 
  1485  0118                     	;# 
  1486  0119                     	;# 
  1487  0119                     	;# 
  1488  0119                     	;# 
  1489  011A                     	;# 
  1490  011A                     	;# 
  1491  011A                     	;# 
  1492  011B                     	;# 
  1493  011B                     	;# 
  1494  011B                     	;# 
  1495  011B                     	;# 
  1496  011B                     	;# 
  1497  011C                     	;# 
  1498  011C                     	;# 
  1499  011C                     	;# 
  1500  011D                     	;# 
  1501  011D                     	;# 
  1502  011D                     	;# 
  1503  011E                     	;# 
  1504  011E                     	;# 
  1505  011E                     	;# 
  1506  011F                     	;# 
  1507  011F                     	;# 
  1508  011F                     	;# 
  1509  011F                     	;# 
  1510  011F                     	;# 
  1511  018C                     	;# 
  1512  018D                     	;# 
  1513  018E                     	;# 
  1514  018F                     	;# 
  1515  0190                     	;# 
  1516  0191                     	;# 
  1517  0192                     	;# 
  1518  0196                     	;# 
  1519  0197                     	;# 
  1520  0198                     	;# 
  1521  0199                     	;# 
  1522  019A                     	;# 
  1523  019B                     	;# 
  1524  019C                     	;# 
  1525  020C                     	;# 
  1526  020D                     	;# 
  1527  020E                     	;# 
  1528  020E                     	;# 
  1529  020F                     	;# 
  1530  020F                     	;# 
  1531  0210                     	;# 
  1532  0210                     	;# 
  1533  0211                     	;# 
  1534  0211                     	;# 
  1535  0212                     	;# 
  1536  0213                     	;# 
  1537  0214                     	;# 
  1538  0214                     	;# 
  1539  0215                     	;# 
  1540  0215                     	;# 
  1541  0216                     	;# 
  1542  0216                     	;# 
  1543  0217                     	;# 
  1544  0217                     	;# 
  1545  0218                     	;# 
  1546  0219                     	;# 
  1547  021A                     	;# 
  1548  021A                     	;# 
  1549  021B                     	;# 
  1550  021B                     	;# 
  1551  021C                     	;# 
  1552  021C                     	;# 
  1553  021D                     	;# 
  1554  021D                     	;# 
  1555  021E                     	;# 
  1556  021F                     	;# 
  1557  028C                     	;# 
  1558  028C                     	;# 
  1559  028D                     	;# 
  1560  028D                     	;# 
  1561  028E                     	;# 
  1562  028F                     	;# 
  1563  0290                     	;# 
  1564  0291                     	;# 
  1565  0292                     	;# 
  1566  0292                     	;# 
  1567  0293                     	;# 
  1568  0293                     	;# 
  1569  0294                     	;# 
  1570  0295                     	;# 
  1571  0296                     	;# 
  1572  0297                     	;# 
  1573  0298                     	;# 
  1574  0298                     	;# 
  1575  0299                     	;# 
  1576  0299                     	;# 
  1577  029A                     	;# 
  1578  029B                     	;# 
  1579  029C                     	;# 
  1580  029D                     	;# 
  1581  029F                     	;# 
  1582  030C                     	;# 
  1583  030C                     	;# 
  1584  030D                     	;# 
  1585  030E                     	;# 
  1586  030F                     	;# 
  1587  0310                     	;# 
  1588  0310                     	;# 
  1589  0311                     	;# 
  1590  0312                     	;# 
  1591  0313                     	;# 
  1592  0314                     	;# 
  1593  0314                     	;# 
  1594  0315                     	;# 
  1595  0316                     	;# 
  1596  0317                     	;# 
  1597  0318                     	;# 
  1598  0318                     	;# 
  1599  0319                     	;# 
  1600  031A                     	;# 
  1601  031B                     	;# 
  1602  038C                     	;# 
  1603  038C                     	;# 
  1604  038D                     	;# 
  1605  038E                     	;# 
  1606  0390                     	;# 
  1607  0390                     	;# 
  1608  0391                     	;# 
  1609  0392                     	;# 
  1610  048C                     	;# 
  1611  048C                     	;# 
  1612  048D                     	;# 
  1613  048E                     	;# 
  1614  048F                     	;# 
  1615  048F                     	;# 
  1616  0490                     	;# 
  1617  0491                     	;# 
  1618  0492                     	;# 
  1619  0492                     	;# 
  1620  0493                     	;# 
  1621  0494                     	;# 
  1622  0495                     	;# 
  1623  0495                     	;# 
  1624  0496                     	;# 
  1625  0497                     	;# 
  1626  0498                     	;# 
  1627  0499                     	;# 
  1628  049A                     	;# 
  1629  049B                     	;# 
  1630  049C                     	;# 
  1631  049D                     	;# 
  1632  058C                     	;# 
  1633  058C                     	;# 
  1634  058D                     	;# 
  1635  058E                     	;# 
  1636  058F                     	;# 
  1637  058F                     	;# 
  1638  0590                     	;# 
  1639  0591                     	;# 
  1640  0592                     	;# 
  1641  0593                     	;# 
  1642  059C                     	;# 
  1643  059C                     	;# 
  1644  059D                     	;# 
  1645  059D                     	;# 
  1646  059E                     	;# 
  1647  059F                     	;# 
  1648  060C                     	;# 
  1649  060C                     	;# 
  1650  060D                     	;# 
  1651  060D                     	;# 
  1652  060E                     	;# 
  1653  060F                     	;# 
  1654  0610                     	;# 
  1655  0611                     	;# 
  1656  0612                     	;# 
  1657  0613                     	;# 
  1658  0614                     	;# 
  1659  0616                     	;# 
  1660  0616                     	;# 
  1661  0617                     	;# 
  1662  0617                     	;# 
  1663  0618                     	;# 
  1664  0619                     	;# 
  1665  061A                     	;# 
  1666  061B                     	;# 
  1667  061C                     	;# 
  1668  061D                     	;# 
  1669  061E                     	;# 
  1670  070C                     	;# 
  1671  070D                     	;# 
  1672  070E                     	;# 
  1673  070F                     	;# 
  1674  0710                     	;# 
  1675  0711                     	;# 
  1676  0712                     	;# 
  1677  0713                     	;# 
  1678  0714                     	;# 
  1679  0716                     	;# 
  1680  0717                     	;# 
  1681  0718                     	;# 
  1682  0719                     	;# 
  1683  071A                     	;# 
  1684  071B                     	;# 
  1685  071C                     	;# 
  1686  071D                     	;# 
  1687  071E                     	;# 
  1688  0796                     	;# 
  1689  0797                     	;# 
  1690  0798                     	;# 
  1691  0799                     	;# 
  1692  079A                     	;# 
  1693  079B                     	;# 
  1694  079C                     	;# 
  1695  079D                     	;# 
  1696  080C                     	;# 
  1697  080D                     	;# 
  1698  080E                     	;# 
  1699  080F                     	;# 
  1700  0810                     	;# 
  1701  0811                     	;# 
  1702  0812                     	;# 
  1703  0813                     	;# 
  1704  0814                     	;# 
  1705  081A                     	;# 
  1706  081A                     	;# 
  1707  081B                     	;# 
  1708  081C                     	;# 
  1709  081C                     	;# 
  1710  081D                     	;# 
  1711  081E                     	;# 
  1712  081F                     	;# 
  1713  088C                     	;# 
  1714  088D                     	;# 
  1715  088E                     	;# 
  1716  088F                     	;# 
  1717  0890                     	;# 
  1718  0891                     	;# 
  1719  0892                     	;# 
  1720  0893                     	;# 
  1721  0895                     	;# 
  1722  0896                     	;# 
  1723  0897                     	;# 
  1724  0898                     	;# 
  1725  0899                     	;# 
  1726  089A                     	;# 
  1727  089B                     	;# 
  1728  090C                     	;# 
  1729  090E                     	;# 
  1730  090F                     	;# 
  1731  091F                     	;# 
  1732  098F                     	;# 
  1733  098F                     	;# 
  1734  0990                     	;# 
  1735  0991                     	;# 
  1736  0992                     	;# 
  1737  0993                     	;# 
  1738  0994                     	;# 
  1739  0995                     	;# 
  1740  0996                     	;# 
  1741  0997                     	;# 
  1742  1E0F                     	;# 
  1743  1E10                     	;# 
  1744  1E11                     	;# 
  1745  1E12                     	;# 
  1746  1E13                     	;# 
  1747  1E14                     	;# 
  1748  1E15                     	;# 
  1749  1E16                     	;# 
  1750  1E17                     	;# 
  1751  1E18                     	;# 
  1752  1E19                     	;# 
  1753  1E1A                     	;# 
  1754  1E1B                     	;# 
  1755  1E1C                     	;# 
  1756  1E1D                     	;# 
  1757  1E1E                     	;# 
  1758  1E1F                     	;# 
  1759  1E20                     	;# 
  1760  1E21                     	;# 
  1761  1E22                     	;# 
  1762  1E23                     	;# 
  1763  1E24                     	;# 
  1764  1E25                     	;# 
  1765  1E26                     	;# 
  1766  1E27                     	;# 
  1767  1E28                     	;# 
  1768  1E29                     	;# 
  1769  1E2A                     	;# 
  1770  1E2B                     	;# 
  1771  1E2C                     	;# 
  1772  1E2D                     	;# 
  1773  1E2E                     	;# 
  1774  1E2F                     	;# 
  1775  1E30                     	;# 
  1776  1E31                     	;# 
  1777  1E32                     	;# 
  1778  1E33                     	;# 
  1779  1E34                     	;# 
  1780  1E35                     	;# 
  1781  1E36                     	;# 
  1782  1E37                     	;# 
  1783  1E8F                     	;# 
  1784  1E90                     	;# 
  1785  1E91                     	;# 
  1786  1E92                     	;# 
  1787  1E93                     	;# 
  1788  1E94                     	;# 
  1789  1E95                     	;# 
  1790  1E96                     	;# 
  1791  1E97                     	;# 
  1792  1E9C                     	;# 
  1793  1E9D                     	;# 
  1794  1E9E                     	;# 
  1795  1EA1                     	;# 
  1796  1EA2                     	;# 
  1797  1EA3                     	;# 
  1798  1EA4                     	;# 
  1799  1EA9                     	;# 
  1800  1EAA                     	;# 
  1801  1EB1                     	;# 
  1802  1EB2                     	;# 
  1803  1EB8                     	;# 
  1804  1EB9                     	;# 
  1805  1EBA                     	;# 
  1806  1EBB                     	;# 
  1807  1EBC                     	;# 
  1808  1EBD                     	;# 
  1809  1EBE                     	;# 
  1810  1EC3                     	;# 
  1811  1EC5                     	;# 
  1812  1EC6                     	;# 
  1813  1EC7                     	;# 
  1814  1EC8                     	;# 
  1815  1EC9                     	;# 
  1816  1ECA                     	;# 
  1817  1ECB                     	;# 
  1818  1ECB                     	;# 
  1819  1ECB                     	;# 
  1820  1ECC                     	;# 
  1821  1ECC                     	;# 
  1822  1ECC                     	;# 
  1823  1F10                     	;# 
  1824  1F11                     	;# 
  1825  1F12                     	;# 
  1826  1F14                     	;# 
  1827  1F15                     	;# 
  1828  1F1C                     	;# 
  1829  1F1D                     	;# 
  1830  1F1E                     	;# 
  1831  1F1F                     	;# 
  1832  1F20                     	;# 
  1833  1F21                     	;# 
  1834  1F22                     	;# 
  1835  1F23                     	;# 
  1836  1F24                     	;# 
  1837  1F25                     	;# 
  1838  1F26                     	;# 
  1839  1F27                     	;# 
  1840  1F38                     	;# 
  1841  1F39                     	;# 
  1842  1F3A                     	;# 
  1843  1F3B                     	;# 
  1844  1F3C                     	;# 
  1845  1F3D                     	;# 
  1846  1F3E                     	;# 
  1847  1F3F                     	;# 
  1848  1F43                     	;# 
  1849  1F44                     	;# 
  1850  1F45                     	;# 
  1851  1F46                     	;# 
  1852  1F47                     	;# 
  1853  1F48                     	;# 
  1854  1F49                     	;# 
  1855  1F4A                     	;# 
  1856  1F4E                     	;# 
  1857  1F4F                     	;# 
  1858  1F50                     	;# 
  1859  1F51                     	;# 
  1860  1F52                     	;# 
  1861  1F53                     	;# 
  1862  1F54                     	;# 
  1863  1F55                     	;# 
  1864  1FE4                     	;# 
  1865  1FE5                     	;# 
  1866  1FE6                     	;# 
  1867  1FE7                     	;# 
  1868  1FE8                     	;# 
  1869  1FE8                     	;# 
  1870  1FE9                     	;# 
  1871  1FEA                     	;# 
  1872  1FEB                     	;# 
  1873  1FED                     	;# 
  1874  1FEE                     	;# 
  1875  1FEF                     	;# 
  1876                           
  1877                           	psect	idataBANK0
  1878  0541                     __pidataBANK0:	
  1879                           
  1880                           ;initializer for main@F11243
  1881  0541  340A               	retlw	10
  1882  0542  340B               	retlw	11
  1883  0543  3405               	retlw	5
  1884  0544  3406               	retlw	6
  1885  0545  3407               	retlw	7
  1886                           
  1887                           ;initializer for main@F11241
  1888  0546  340D               	retlw	13
  1889  0547  340C               	retlw	12
  1890  0548  340F               	retlw	15
  1891  0549  3410               	retlw	16
  1892  054A  3408               	retlw	8
  1893  000B                     _INTCONbits	set	11
  1894  001A                     _LATCbits	set	26
  1895  0019                     _LATBbits	set	25
  1896  0018                     _LATAbits	set	24
  1897  000E                     _PORTCbits	set	14
  1898  000D                     _PORTBbits	set	13
  1899  000C                     _PORTAbits	set	12
  1900  0014                     _TRISCbits	set	20
  1901  0013                     _TRISBbits	set	19
  1902  0012                     _TRISAbits	set	18
  1903  059D                     _TMR0H	set	1437
  1904  059F                     _T0CON1bits	set	1439
  1905  059E                     _T0CON0bits	set	1438
  1906  0716                     _PIE0bits	set	1814
  1907  1F4F                     _WPUCbits	set	8015
  1908  1F4E                     _ANSELCbits	set	8014
  1909  1F44                     _WPUBbits	set	8004
  1910  1F43                     _ANSELBbits	set	8003
  1911  1F39                     _WPUAbits	set	7993
  1912  1F38                     _ANSELAbits	set	7992
  1913                           
  1914                           ; #config settings
  1915  0000                     
  1916                           	psect	cinit
  1917  000F                     start_initialization:	
  1918  000F                     __initialization:	
  1919                           
  1920                           ; Initialize objects allocated to BANK0
  1921  000F  3041               	movlw	low __pidataBANK0
  1922  0010  0084               	movwf	4
  1923  0011  3085               	movlw	(high __pidataBANK0)| (0+128)
  1924  0012  0085               	movwf	5
  1925  0013  3064               	movlw	low __pdataBANK0
  1926  0014  0086               	movwf	6
  1927  0015  3000               	movlw	high __pdataBANK0
  1928  0016  0087               	movwf	7
  1929  0017  300A               	movlw	10
  1930  0018  3185  254B  3180   	fcall	init_ram
  1931                           
  1932                           ; Clear objects allocated to BANK0
  1933  001B  305A               	movlw	low __pbssBANK0
  1934  001C  0084               	movwf	4
  1935  001D  3000               	movlw	high __pbssBANK0
  1936  001E  0085               	movwf	5
  1937  001F  300A               	movlw	10
  1938  0020  3185  2551  3180   	fcall	clear_ram0
  1939                           
  1940                           ; Clear objects allocated to BANK1
  1941  0023  30A0               	movlw	low __pbssBANK1
  1942  0024  0084               	movwf	4
  1943  0025  3000               	movlw	high __pbssBANK1
  1944  0026  0085               	movwf	5
  1945  0027  3020               	movlw	32
  1946  0028  3185  2551         	fcall	clear_ram0
  1947  002A                     end_of_initialization:	
  1948                           ;End of C runtime variable initialization code
  1949                           
  1950  002A                     __end_of__initialization:	
  1951  002A  107E               	bcf	int$flags,0	;clear compiler interrupt flag (level 1)
  1952  002B  0140               	movlb	0
  1953  002C  3183  2BEA         	ljmp	_main	;jump to C main() function
  1954                           
  1955                           	psect	bssBANK0
  1956  005A                     __pbssBANK0:	
  1957  005A                     _time:	
  1958  005A                     	ds	2
  1959  005C                     _seed:	
  1960  005C                     	ds	8
  1961                           
  1962                           	psect	dataBANK0
  1963  0064                     __pdataBANK0:	
  1964  0064                     main@F11243:	
  1965  0064                     	ds	5
  1966  0069                     main@F11241:	
  1967  0069                     	ds	5
  1968                           
  1969                           	psect	bssBANK1
  1970  00A0                     __pbssBANK1:	
  1971  00A0                     _pinStates:	
  1972  00A0                     	ds	17
  1973  00B1                     _moles:	
  1974  00B1                     	ds	15
  1975                           
  1976                           	psect	inittext
  1977  054B                     init_ram:	
  1978  054B  00FE               	movwf	126
  1979  054C                     initloop:	
  1980  054C  0012               	moviw fsr0++
  1981  054D  001E               	movwi fsr1++
  1982  054E  0BFE               	decfsz	126,f
  1983  054F  2D4C               	goto	initloop
  1984  0550  3400               	retlw	0
  1985                           
  1986                           	psect	clrtext
  1987  0551                     clear_ram0:	
  1988                           ;	Called with FSR0 containing the base address, and
  1989                           ;	WREG with the size to clear
  1990                           
  1991  0551  0064               	clrwdt	;clear the watchdog before getting into this loop
  1992  0552                     clrloop0:	
  1993  0552  0180               	clrf	0	;clear RAM location pointed to by FSR
  1994  0553  3101               	addfsr 0,1
  1995  0554  0B89               	decfsz	9,f	;Have we reached the end of clearing yet?
  1996  0555  2D52               	goto	clrloop0	;have we reached the end yet?
  1997  0556  3400               	retlw	0	;all done for this memory range, return
  1998                           
  1999                           	psect	cstackCOMMON
  2000  0070                     __pcstackCOMMON:	
  2001  0070                     ?_defineGPIODirection:	
  2002  0070                     ?_readPin:	
  2003                           ; 1 bytes @ 0x0
  2004                           
  2005  0070                     ??_readPin:	
  2006                           ; 1 bytes @ 0x0
  2007                           
  2008  0070                     ?_writePin:	
  2009                           ; 1 bytes @ 0x0
  2010                           
  2011  0070                     ?_main:	
  2012                           ; 1 bytes @ 0x0
  2013                           
  2014  0070                     ?_timer0ISR:	
  2015                           ; 1 bytes @ 0x0
  2016                           
  2017  0070                     ??_timer0ISR:	
  2018                           ; 1 bytes @ 0x0
  2019                           
  2020  0070                     ??___omul:	
  2021                           ; 1 bytes @ 0x0
  2022                           
  2023  0070                     ?___bmul:	
  2024                           ; 1 bytes @ 0x0
  2025                           
  2026  0070                     defineGPIODirection@output:	
  2027                           ; 1 bytes @ 0x0
  2028                           
  2029  0070                     writePin@value:	
  2030                           ; 1 bytes @ 0x0
  2031                           
  2032  0070                     ___bmul@multiplicand:	
  2033                           ; 1 bytes @ 0x0
  2034                           
  2035                           
  2036                           ; 1 bytes @ 0x0
  2037  0070                     	ds	1
  2038  0071                     ??_writePin:	
  2039  0071                     ??___bmul:	
  2040                           ; 1 bytes @ 0x1
  2041                           
  2042  0071                     defineGPIODirection@inputLength:	
  2043                           ; 1 bytes @ 0x1
  2044                           
  2045  0071                     ___omul@product:	
  2046                           ; 1 bytes @ 0x1
  2047                           
  2048                           
  2049                           ; 8 bytes @ 0x1
  2050  0071                     	ds	1
  2051  0072                     defineGPIODirection@outputLength:	
  2052  0072                     readPin@read:	
  2053                           ; 1 bytes @ 0x2
  2054                           
  2055  0072                     ___bmul@product:	
  2056                           ; 1 bytes @ 0x2
  2057                           
  2058                           
  2059                           ; 1 bytes @ 0x2
  2060  0072                     	ds	1
  2061  0073                     ??_defineGPIODirection:	
  2062  0073                     writePin@write:	
  2063                           ; 1 bytes @ 0x3
  2064                           
  2065  0073                     ___bmul@multiplier:	
  2066                           ; 1 bytes @ 0x3
  2067                           
  2068                           
  2069                           ; 1 bytes @ 0x3
  2070  0073                     	ds	1
  2071  0074                     ?_initMoles:	
  2072  0074                     initMoles@output:	
  2073                           ; 1 bytes @ 0x4
  2074                           
  2075                           
  2076                           ; 1 bytes @ 0x4
  2077  0074                     	ds	1
  2078  0075                     initMoles@inputLength:	
  2079                           
  2080                           ; 1 bytes @ 0x5
  2081  0075                     	ds	1
  2082  0076                     initMoles@outputLength:	
  2083  0076                     defineGPIODirection@input:	
  2084                           ; 1 bytes @ 0x6
  2085                           
  2086                           
  2087                           ; 1 bytes @ 0x6
  2088  0076                     	ds	1
  2089  0077                     ??_initMoles:	
  2090  0077                     defineGPIODirection@i:	
  2091                           ; 1 bytes @ 0x7
  2092                           
  2093                           
  2094                           ; 1 bytes @ 0x7
  2095  0077                     	ds	2
  2096  0079                     ?_rand:	
  2097                           
  2098                           ; 2 bytes @ 0x9
  2099  0079                     	ds	1
  2100  007A                     initMoles@input:	
  2101                           
  2102                           ; 1 bytes @ 0xA
  2103  007A                     	ds	1
  2104  007B                     ??___awdiv:	
  2105  007B                     initMoles@i:	
  2106                           ; 1 bytes @ 0xB
  2107                           
  2108                           
  2109                           ; 2 bytes @ 0xB
  2110  007B                     	ds	2
  2111                           
  2112                           	psect	cstackBANK0
  2113  0020                     __pcstackBANK0:	
  2114  0020                     ?___omul:	
  2115  0020                     ___omul@multiplier:	
  2116                           ; 8 bytes @ 0x0
  2117                           
  2118                           
  2119                           ; 8 bytes @ 0x0
  2120  0020                     	ds	8
  2121  0028                     ___omul@multiplicand:	
  2122                           
  2123                           ; 8 bytes @ 0x8
  2124  0028                     	ds	8
  2125  0030                     ??_rand:	
  2126                           
  2127                           ; 1 bytes @ 0x10
  2128  0030                     	ds	8
  2129  0038                     ?___awdiv:	
  2130  0038                     ___awdiv@divisor:	
  2131                           ; 2 bytes @ 0x18
  2132                           
  2133                           
  2134                           ; 2 bytes @ 0x18
  2135  0038                     	ds	2
  2136  003A                     ___awdiv@dividend:	
  2137                           
  2138                           ; 2 bytes @ 0x1A
  2139  003A                     	ds	2
  2140  003C                     ___awdiv@counter:	
  2141                           
  2142                           ; 1 bytes @ 0x1C
  2143  003C                     	ds	1
  2144  003D                     ___awdiv@sign:	
  2145                           
  2146                           ; 1 bytes @ 0x1D
  2147  003D                     	ds	1
  2148  003E                     ___awdiv@quotient:	
  2149                           
  2150                           ; 2 bytes @ 0x1E
  2151  003E                     	ds	2
  2152  0040                     ?_shuffle:	
  2153  0040                     shuffle@size:	
  2154                           ; 1 bytes @ 0x20
  2155                           
  2156                           
  2157                           ; 2 bytes @ 0x20
  2158  0040                     	ds	2
  2159  0042                     ??_shuffle:	
  2160                           
  2161                           ; 1 bytes @ 0x22
  2162  0042                     	ds	3
  2163  0045                     _shuffle$1261:	
  2164                           
  2165                           ; 2 bytes @ 0x25
  2166  0045                     	ds	2
  2167  0047                     shuffle@temp:	
  2168                           
  2169                           ; 1 bytes @ 0x27
  2170  0047                     	ds	1
  2171  0048                     shuffle@j:	
  2172                           
  2173                           ; 2 bytes @ 0x28
  2174  0048                     	ds	2
  2175  004A                     shuffle@array:	
  2176                           
  2177                           ; 1 bytes @ 0x2A
  2178  004A                     	ds	1
  2179  004B                     shuffle@i:	
  2180                           
  2181                           ; 2 bytes @ 0x2B
  2182  004B                     	ds	2
  2183  004D                     ??_main:	
  2184                           
  2185                           ; 1 bytes @ 0x2D
  2186  004D                     	ds	3
  2187  0050                     main@input:	
  2188                           
  2189                           ; 5 bytes @ 0x30
  2190  0050                     	ds	5
  2191  0055                     main@output:	
  2192                           
  2193                           ; 5 bytes @ 0x35
  2194  0055                     	ds	5
  2195                           
  2196                           	psect	maintext
  2197  03EA                     __pmaintext:	
  2198 ;;
  2199 ;;Main: autosize = 0, tempsize = 3, incstack = 0, save=0
  2200 ;;
  2201 ;; *************** function _main *****************
  2202 ;; Defined at:
  2203 ;;		line 31 in file "main.c"
  2204 ;; Parameters:    Size  Location     Type
  2205 ;;		None
  2206 ;; Auto vars:     Size  Location     Type
  2207 ;;  output          5   53[BANK0 ] enum E11183[5]
  2208 ;;  input           5   48[BANK0 ] enum E11183[5]
  2209 ;; Return value:  Size  Location     Type
  2210 ;;                  1    wreg      void 
  2211 ;; Registers used:
  2212 ;;		wreg, fsr0l, fsr0h, fsr1l, fsr1h, status,2, status,0, pclath, cstack
  2213 ;; Tracked objects:
  2214 ;;		On entry : B3F/0
  2215 ;;		On exit  : 0/0
  2216 ;;		Unchanged: 0/0
  2217 ;; Data sizes:     COMMON   BANK0   BANK1   BANK2   BANK3   BANK4   BANK5   BANK6   BANK7   BANK8   BANK9  BANK10  BANK1
      +1  BANK12  BANK13  BANK14  BANK15  BANK16  BANK17  BANK18  BANK19  BANK20  BANK21  BANK22  BANK23  BANK24  BANK25
  2218 ;;      Params:         0       0       0       0       0       0       0       0       0       0       0       0       
      +0       0       0       0       0       0       0       0       0       0       0       0       0       0       0
  2219 ;;      Locals:         0      10       0       0       0       0       0       0       0       0       0       0       
      +0       0       0       0       0       0       0       0       0       0       0       0       0       0       0
  2220 ;;      Temps:          0       3       0       0       0       0       0       0       0       0       0       0       
      +0       0       0       0       0       0       0       0       0       0       0       0       0       0       0
  2221 ;;      Totals:         0      13       0       0       0       0       0       0       0       0       0       0       
      +0       0       0       0       0       0       0       0       0       0       0       0       0       0       0
  2222 ;;Total ram usage:       13 bytes
  2223 ;; Hardware stack levels required when called:    4
  2224 ;; This function calls:
  2225 ;;		_defineGPIODirection
  2226 ;;		_initMoles
  2227 ;;		_readPin
  2228 ;;		_shuffle
  2229 ;;		_writePin
  2230 ;; This function is called by:
  2231 ;;		Startup code after reset
  2232 ;; This function uses a non-reentrant model
  2233 ;;
  2234                           
  2235                           
  2236                           ;psect for function _main
  2237  03EA                     _main:	
  2238                           
  2239                           ;incstack = 0
  2240                           ; Regs used in _main: [wreg-fsr1h+status,2+status,0+pclath+cstack]
  2241  03EA  3069               	movlw	low main@F11241
  2242  03EB  0086               	movwf	6
  2243  03EC  3000               	movlw	high main@F11241
  2244  03ED  0087               	movwf	7
  2245  03EE  3050               	movlw	low main@input
  2246  03EF  0084               	movwf	4
  2247  03F0  3000               	movlw	high main@input
  2248  03F1  0085               	movwf	5
  2249  03F2  3005               	movlw	5
  2250  03F3  0140               	movlb	0	; select bank0
  2251  03F4  00CD               	movwf	??_main
  2252  03F5                     u820:	
  2253  03F5  0016               	moviw fsr1++
  2254  03F6  001A               	movwi fsr0++
  2255  03F7  0BCD               	decfsz	??_main,f
  2256  03F8  2BF5               	goto	u820
  2257  03F9  3064               	movlw	low main@F11243
  2258  03FA  0086               	movwf	6
  2259  03FB  3000               	movlw	high main@F11243
  2260  03FC  0087               	movwf	7
  2261  03FD  3055               	movlw	low main@output
  2262  03FE  0084               	movwf	4
  2263  03FF  3000               	movlw	high main@output
  2264  0400  0085               	movwf	5
  2265  0401  3005               	movlw	5
  2266  0402  00CD               	movwf	??_main
  2267  0403                     u830:	
  2268  0403  0016               	moviw fsr1++
  2269  0404  001A               	movwi fsr0++
  2270  0405  0BCD               	decfsz	??_main,f
  2271  0406  2C03               	goto	u830
  2272  0407  3005               	movlw	5
  2273  0408  00C0               	movwf	shuffle@size
  2274  0409  3000               	movlw	0
  2275  040A  00C1               	movwf	shuffle@size+1
  2276  040B  3050               	movlw	(low (main@input| 0))& (0+255)
  2277  040C  3183  2374  3183   	fcall	_shuffle
  2278  040F  3005               	movlw	5
  2279  0410  0140               	movlb	0	; select bank0
  2280  0411  00C0               	movwf	shuffle@size
  2281  0412  3000               	movlw	0
  2282  0413  00C1               	movwf	shuffle@size+1
  2283  0414  3055               	movlw	(low (main@output| 0))& (0+255)
  2284  0415  3183  2374  3183   	fcall	_shuffle
  2285  0418  3055               	movlw	(low (main@output| 0))& (0+255)
  2286  0419  0140               	movlb	0	; select bank0
  2287  041A  00CD               	movwf	??_main
  2288  041B  084D               	movf	??_main,w
  2289  041C  00F0               	movwf	defineGPIODirection@output
  2290  041D  3005               	movlw	5
  2291  041E  00CE               	movwf	??_main+1
  2292  041F  084E               	movf	??_main+1,w
  2293  0420  00F1               	movwf	defineGPIODirection@inputLength
  2294  0421  3005               	movlw	5
  2295  0422  00CF               	movwf	??_main+2
  2296  0423  084F               	movf	??_main+2,w
  2297  0424  00F2               	movwf	defineGPIODirection@outputLength
  2298  0425  3050               	movlw	(low (main@input| 0))& (0+255)
  2299  0426  3180  202E  3183   	fcall	_defineGPIODirection
  2300  0429  3055               	movlw	(low (main@output| 0))& (0+255)
  2301  042A  0140               	movlb	0	; select bank0
  2302  042B  00CD               	movwf	??_main
  2303  042C  084D               	movf	??_main,w
  2304  042D  00F4               	movwf	initMoles@output
  2305  042E  3005               	movlw	5
  2306  042F  00CE               	movwf	??_main+1
  2307  0430  084E               	movf	??_main+1,w
  2308  0431  00F5               	movwf	initMoles@inputLength
  2309  0432  3005               	movlw	5
  2310  0433  00CF               	movwf	??_main+2
  2311  0434  084F               	movf	??_main+2,w
  2312  0435  00F6               	movwf	initMoles@outputLength
  2313  0436  3050               	movlw	(low (main@input| 0))& (0+255)
  2314  0437  3184  249C  3183   	fcall	_initMoles
  2315  043A  2C41               	goto	l1772
  2316  043B                     l1774:	
  2317  043B  01F0               	clrf	writePin@value
  2318  043C  0AF0               	incf	writePin@value,f
  2319  043D                     L1:	
  2320  043D  3010               	movlw	16
  2321  043E  3181  2162  3183   	fcall	_writePin
  2322  0441                     l1772:	
  2323  0441  3008               	movlw	8
  2324  0442  3182  226E  3183   	fcall	_readPin
  2325  0445  3A00               	xorlw	0
  2326  0446  1903               	btfsc	3,2
  2327  0447  2C3B               	goto	l1774
  2328  0448  01F0               	clrf	writePin@value
  2329  0449  2C3D               	goto	L1
  2330  044A                     __end_of_main:	
  2331                           
  2332                           	psect	text1
  2333  0162                     __ptext1:	
  2334 ;; *************** function _writePin *****************
  2335 ;; Defined at:
  2336 ;;		line 274 in file "pins.c"
  2337 ;; Parameters:    Size  Location     Type
  2338 ;;  write           1    wreg     enum E11183
  2339 ;;  value           1    0[COMMON] unsigned char 
  2340 ;; Auto vars:     Size  Location     Type
  2341 ;;  write           1    3[COMMON] enum E11183
  2342 ;; Return value:  Size  Location     Type
  2343 ;;                  1    wreg      void 
  2344 ;; Registers used:
  2345 ;;		wreg, fsr0l, fsr0h, status,2, status,0
  2346 ;; Tracked objects:
  2347 ;;		On entry : 0/0
  2348 ;;		On exit  : 0/0
  2349 ;;		Unchanged: 0/0
  2350 ;; Data sizes:     COMMON   BANK0   BANK1   BANK2   BANK3   BANK4   BANK5   BANK6   BANK7   BANK8   BANK9  BANK10  BANK1
      +1  BANK12  BANK13  BANK14  BANK15  BANK16  BANK17  BANK18  BANK19  BANK20  BANK21  BANK22  BANK23  BANK24  BANK25
  2351 ;;      Params:         1       0       0       0       0       0       0       0       0       0       0       0       
      +0       0       0       0       0       0       0       0       0       0       0       0       0       0       0
  2352 ;;      Locals:         1       0       0       0       0       0       0       0       0       0       0       0       
      +0       0       0       0       0       0       0       0       0       0       0       0       0       0       0
  2353 ;;      Temps:          2       0       0       0       0       0       0       0       0       0       0       0       
      +0       0       0       0       0       0       0       0       0       0       0       0       0       0       0
  2354 ;;      Totals:         4       0       0       0       0       0       0       0       0       0       0       0       
      +0       0       0       0       0       0       0       0       0       0       0       0       0       0       0
  2355 ;;Total ram usage:        4 bytes
  2356 ;; Hardware stack levels used:    1
  2357 ;; Hardware stack levels required when called:    1
  2358 ;; This function calls:
  2359 ;;		Nothing
  2360 ;; This function is called by:
  2361 ;;		_main
  2362 ;; This function uses a non-reentrant model
  2363 ;;
  2364                           
  2365                           
  2366                           ;psect for function _writePin
  2367  0162                     _writePin:	
  2368                           
  2369                           ;incstack = 0
  2370                           ; Regs used in _writePin: [wreg-fsr0h+status,2+status,0]
  2371                           ;writePin@write stored from wreg
  2372  0162  00F3               	movwf	writePin@write
  2373                           
  2374                           ;pins.c: 275:     switch(write) {
  2375  0163  2A30               	goto	l1756
  2376  0164                     l1686:	
  2377                           
  2378                           ;pins.c: 277:             LATAbits.LATA0 = value;
  2379  0164  0C70               	rrf	writePin@value,w
  2380  0165  0140               	movlb	0	; select bank0
  2381  0166  1C03               	skipc
  2382  0167  1018               	bcf	24,0	;volatile
  2383  0168  1803               	skipnc
  2384  0169  1418               	bsf	24,0	;volatile
  2385                           
  2386                           ;pins.c: 278:             pinStates[PINA0] = value;
  2387  016A  0870               	movf	writePin@value,w
  2388  016B  00F1               	movwf	??_writePin
  2389  016C  0871               	movf	??_writePin,w
  2390  016D  0141               	movlb	1	; select bank1
  2391  016E  00A0               	movwf	_pinStates^(0+128)
  2392                           
  2393                           ;pins.c: 279:             break;
  2394  016F  0008               	return
  2395  0170                     l1690:	
  2396                           
  2397                           ;pins.c: 281:             LATAbits.LATA1 = value;
  2398  0170  0C70               	rrf	writePin@value,w
  2399  0171  0140               	movlb	0	; select bank0
  2400  0172  1C03               	skipc
  2401  0173  1098               	bcf	24,1	;volatile
  2402  0174  1803               	skipnc
  2403  0175  1498               	bsf	24,1	;volatile
  2404                           
  2405                           ;pins.c: 282:             pinStates[PINA1] = value;
  2406  0176  0870               	movf	writePin@value,w
  2407  0177  00F1               	movwf	??_writePin
  2408  0178  0871               	movf	??_writePin,w
  2409  0179  0141               	movlb	1	; select bank1
  2410  017A  00A1               	movwf	(_pinStates^(0+128)+1)
  2411                           
  2412                           ;pins.c: 283:             break;
  2413  017B  0008               	return
  2414  017C                     l1694:	
  2415                           
  2416                           ;pins.c: 285:             LATAbits.LATA2 = value;
  2417  017C  0C70               	rrf	writePin@value,w
  2418  017D  0140               	movlb	0	; select bank0
  2419  017E  1C03               	skipc
  2420  017F  1118               	bcf	24,2	;volatile
  2421  0180  1803               	skipnc
  2422  0181  1518               	bsf	24,2	;volatile
  2423                           
  2424                           ;pins.c: 286:             pinStates[PINA2] = value;
  2425  0182  0870               	movf	writePin@value,w
  2426  0183  00F1               	movwf	??_writePin
  2427  0184  0871               	movf	??_writePin,w
  2428  0185  0141               	movlb	1	; select bank1
  2429  0186  00A2               	movwf	(_pinStates^(0+128)+2)
  2430                           
  2431                           ;pins.c: 287:             break;
  2432  0187  0008               	return
  2433  0188                     l1698:	
  2434                           
  2435                           ;pins.c: 289:             LATAbits.LATA4 = value;
  2436  0188  0C70               	rrf	writePin@value,w
  2437  0189  0140               	movlb	0	; select bank0
  2438  018A  1C03               	skipc
  2439  018B  1218               	bcf	24,4	;volatile
  2440  018C  1803               	skipnc
  2441  018D  1618               	bsf	24,4	;volatile
  2442                           
  2443                           ;pins.c: 290:             pinStates[PINA4] = value;
  2444  018E  0870               	movf	writePin@value,w
  2445  018F  00F1               	movwf	??_writePin
  2446  0190  0871               	movf	??_writePin,w
  2447  0191  0141               	movlb	1	; select bank1
  2448  0192  00A3               	movwf	(_pinStates^(0+128)+3)
  2449                           
  2450                           ;pins.c: 291:             break;
  2451  0193  0008               	return
  2452  0194                     l1702:	
  2453                           
  2454                           ;pins.c: 293:             LATAbits.LATA5 = value;
  2455  0194  0C70               	rrf	writePin@value,w
  2456  0195  0140               	movlb	0	; select bank0
  2457  0196  1C03               	skipc
  2458  0197  1298               	bcf	24,5	;volatile
  2459  0198  1803               	skipnc
  2460  0199  1698               	bsf	24,5	;volatile
  2461                           
  2462                           ;pins.c: 294:             pinStates[PINA5] = value;
  2463  019A  0870               	movf	writePin@value,w
  2464  019B  00F1               	movwf	??_writePin
  2465  019C  0871               	movf	??_writePin,w
  2466  019D  0141               	movlb	1	; select bank1
  2467  019E  00A4               	movwf	(_pinStates^(0+128)+4)
  2468                           
  2469                           ;pins.c: 295:             break;
  2470  019F  0008               	return
  2471  01A0                     l1706:	
  2472                           
  2473                           ;pins.c: 297:             LATBbits.LATB4 = value;
  2474  01A0  0C70               	rrf	writePin@value,w
  2475  01A1  0140               	movlb	0	; select bank0
  2476  01A2  1C03               	skipc
  2477  01A3  1219               	bcf	25,4	;volatile
  2478  01A4  1803               	skipnc
  2479  01A5  1619               	bsf	25,4	;volatile
  2480                           
  2481                           ;pins.c: 298:             pinStates[PINB4] = value;
  2482  01A6  0870               	movf	writePin@value,w
  2483  01A7  00F1               	movwf	??_writePin
  2484  01A8  0871               	movf	??_writePin,w
  2485  01A9  0141               	movlb	1	; select bank1
  2486  01AA  00A5               	movwf	(_pinStates^(0+128)+5)
  2487                           
  2488                           ;pins.c: 299:             break;
  2489  01AB  0008               	return
  2490  01AC                     l1710:	
  2491                           
  2492                           ;pins.c: 301:             LATBbits.LATB5 = value;
  2493  01AC  0C70               	rrf	writePin@value,w
  2494  01AD  0140               	movlb	0	; select bank0
  2495  01AE  1C03               	skipc
  2496  01AF  1299               	bcf	25,5	;volatile
  2497  01B0  1803               	skipnc
  2498  01B1  1699               	bsf	25,5	;volatile
  2499                           
  2500                           ;pins.c: 302:             pinStates[PINB5] = value;
  2501  01B2  0870               	movf	writePin@value,w
  2502  01B3  00F1               	movwf	??_writePin
  2503  01B4  0871               	movf	??_writePin,w
  2504  01B5  0141               	movlb	1	; select bank1
  2505  01B6  00A6               	movwf	(_pinStates^(0+128)+6)
  2506                           
  2507                           ;pins.c: 303:             break;
  2508  01B7  0008               	return
  2509  01B8                     l1714:	
  2510                           
  2511                           ;pins.c: 305:             LATBbits.LATB6 = value;
  2512  01B8  0C70               	rrf	writePin@value,w
  2513  01B9  0140               	movlb	0	; select bank0
  2514  01BA  1C03               	skipc
  2515  01BB  1319               	bcf	25,6	;volatile
  2516  01BC  1803               	skipnc
  2517  01BD  1719               	bsf	25,6	;volatile
  2518                           
  2519                           ;pins.c: 306:             pinStates[PINB6] = value;
  2520  01BE  0870               	movf	writePin@value,w
  2521  01BF  00F1               	movwf	??_writePin
  2522  01C0  0871               	movf	??_writePin,w
  2523  01C1  0141               	movlb	1	; select bank1
  2524  01C2  00A7               	movwf	(_pinStates^(0+128)+7)
  2525                           
  2526                           ;pins.c: 307:             break;
  2527  01C3  0008               	return
  2528  01C4                     l1718:	
  2529                           
  2530                           ;pins.c: 309:             LATBbits.LATB7 = value;
  2531  01C4  0C70               	rrf	writePin@value,w
  2532  01C5  0140               	movlb	0	; select bank0
  2533  01C6  1C03               	skipc
  2534  01C7  1399               	bcf	25,7	;volatile
  2535  01C8  1803               	skipnc
  2536  01C9  1799               	bsf	25,7	;volatile
  2537                           
  2538                           ;pins.c: 310:             pinStates[PINB7] = value;
  2539  01CA  0870               	movf	writePin@value,w
  2540  01CB  00F1               	movwf	??_writePin
  2541  01CC  0871               	movf	??_writePin,w
  2542  01CD  0141               	movlb	1	; select bank1
  2543  01CE  00A8               	movwf	(_pinStates^(0+128)+8)
  2544                           
  2545                           ;pins.c: 311:             break;
  2546  01CF  0008               	return
  2547  01D0                     l1722:	
  2548                           
  2549                           ;pins.c: 313:             LATCbits.LATC0 = value;
  2550  01D0  0C70               	rrf	writePin@value,w
  2551  01D1  0140               	movlb	0	; select bank0
  2552  01D2  1C03               	skipc
  2553  01D3  101A               	bcf	26,0	;volatile
  2554  01D4  1803               	skipnc
  2555  01D5  141A               	bsf	26,0	;volatile
  2556                           
  2557                           ;pins.c: 314:             pinStates[PINC0] = value;
  2558  01D6  0870               	movf	writePin@value,w
  2559  01D7  00F1               	movwf	??_writePin
  2560  01D8  0871               	movf	??_writePin,w
  2561  01D9  0141               	movlb	1	; select bank1
  2562  01DA  00A9               	movwf	(_pinStates^(0+128)+9)
  2563                           
  2564                           ;pins.c: 315:             break;
  2565  01DB  0008               	return
  2566  01DC                     l1726:	
  2567                           
  2568                           ;pins.c: 317:             LATCbits.LATC1 = value;
  2569  01DC  0C70               	rrf	writePin@value,w
  2570  01DD  0140               	movlb	0	; select bank0
  2571  01DE  1C03               	skipc
  2572  01DF  109A               	bcf	26,1	;volatile
  2573  01E0  1803               	skipnc
  2574  01E1  149A               	bsf	26,1	;volatile
  2575                           
  2576                           ;pins.c: 318:             pinStates[PINC1] = value;
  2577  01E2  0870               	movf	writePin@value,w
  2578  01E3  00F1               	movwf	??_writePin
  2579  01E4  0871               	movf	??_writePin,w
  2580  01E5  0141               	movlb	1	; select bank1
  2581  01E6  00AA               	movwf	(_pinStates^(0+128)+10)
  2582                           
  2583                           ;pins.c: 319:             break;
  2584  01E7  0008               	return
  2585  01E8                     l1730:	
  2586                           
  2587                           ;pins.c: 321:             LATCbits.LATC2 = value;
  2588  01E8  0C70               	rrf	writePin@value,w
  2589  01E9  0140               	movlb	0	; select bank0
  2590  01EA  1C03               	skipc
  2591  01EB  111A               	bcf	26,2	;volatile
  2592  01EC  1803               	skipnc
  2593  01ED  151A               	bsf	26,2	;volatile
  2594                           
  2595                           ;pins.c: 322:             pinStates[PINC2] = value;
  2596  01EE  0870               	movf	writePin@value,w
  2597  01EF  00F1               	movwf	??_writePin
  2598  01F0  0871               	movf	??_writePin,w
  2599  01F1  0141               	movlb	1	; select bank1
  2600  01F2  00AB               	movwf	(_pinStates^(0+128)+11)
  2601                           
  2602                           ;pins.c: 323:             break;
  2603  01F3  0008               	return
  2604  01F4                     l1734:	
  2605                           
  2606                           ;pins.c: 325:             LATCbits.LATC3 = value;
  2607  01F4  0C70               	rrf	writePin@value,w
  2608  01F5  0140               	movlb	0	; select bank0
  2609  01F6  1C03               	skipc
  2610  01F7  119A               	bcf	26,3	;volatile
  2611  01F8  1803               	skipnc
  2612  01F9  159A               	bsf	26,3	;volatile
  2613                           
  2614                           ;pins.c: 326:             pinStates[PINC3] = value;
  2615  01FA  0870               	movf	writePin@value,w
  2616  01FB  00F1               	movwf	??_writePin
  2617  01FC  0871               	movf	??_writePin,w
  2618  01FD  0141               	movlb	1	; select bank1
  2619  01FE  00AC               	movwf	(_pinStates^(0+128)+12)
  2620                           
  2621                           ;pins.c: 327:             break;
  2622  01FF  0008               	return
  2623  0200                     l1738:	
  2624                           
  2625                           ;pins.c: 329:             LATCbits.LATC4 = value;
  2626  0200  0C70               	rrf	writePin@value,w
  2627  0201  0140               	movlb	0	; select bank0
  2628  0202  1C03               	skipc
  2629  0203  121A               	bcf	26,4	;volatile
  2630  0204  1803               	skipnc
  2631  0205  161A               	bsf	26,4	;volatile
  2632                           
  2633                           ;pins.c: 330:             pinStates[PINC4] = value;
  2634  0206  0870               	movf	writePin@value,w
  2635  0207  00F1               	movwf	??_writePin
  2636  0208  0871               	movf	??_writePin,w
  2637  0209  0141               	movlb	1	; select bank1
  2638  020A  00AD               	movwf	(_pinStates^(0+128)+13)
  2639                           
  2640                           ;pins.c: 331:             break;
  2641  020B  0008               	return
  2642  020C                     l1742:	
  2643                           
  2644                           ;pins.c: 333:             LATCbits.LATC5 = value;
  2645  020C  0C70               	rrf	writePin@value,w
  2646  020D  0140               	movlb	0	; select bank0
  2647  020E  1C03               	skipc
  2648  020F  129A               	bcf	26,5	;volatile
  2649  0210  1803               	skipnc
  2650  0211  169A               	bsf	26,5	;volatile
  2651                           
  2652                           ;pins.c: 334:             pinStates[PINC5] = value;
  2653  0212  0870               	movf	writePin@value,w
  2654  0213  00F1               	movwf	??_writePin
  2655  0214  0871               	movf	??_writePin,w
  2656  0215  0141               	movlb	1	; select bank1
  2657  0216  00AE               	movwf	(_pinStates^(0+128)+14)
  2658                           
  2659                           ;pins.c: 335:             break;
  2660  0217  0008               	return
  2661  0218                     l1746:	
  2662                           
  2663                           ;pins.c: 337:             LATCbits.LATC6 = value;
  2664  0218  0C70               	rrf	writePin@value,w
  2665  0219  0140               	movlb	0	; select bank0
  2666  021A  1C03               	skipc
  2667  021B  131A               	bcf	26,6	;volatile
  2668  021C  1803               	skipnc
  2669  021D  171A               	bsf	26,6	;volatile
  2670                           
  2671                           ;pins.c: 338:             pinStates[PINC6] = value;
  2672  021E  0870               	movf	writePin@value,w
  2673  021F  00F1               	movwf	??_writePin
  2674  0220  0871               	movf	??_writePin,w
  2675  0221  0141               	movlb	1	; select bank1
  2676  0222  00AF               	movwf	(_pinStates^(0+128)+15)
  2677                           
  2678                           ;pins.c: 339:             break;
  2679  0223  0008               	return
  2680  0224                     l1750:	
  2681                           
  2682                           ;pins.c: 341:             LATCbits.LATC7 = value;
  2683  0224  0C70               	rrf	writePin@value,w
  2684  0225  0140               	movlb	0	; select bank0
  2685  0226  1C03               	skipc
  2686  0227  139A               	bcf	26,7	;volatile
  2687  0228  1803               	skipnc
  2688  0229  179A               	bsf	26,7	;volatile
  2689                           
  2690                           ;pins.c: 342:             pinStates[PINC7] = value;
  2691  022A  0870               	movf	writePin@value,w
  2692  022B  00F1               	movwf	??_writePin
  2693  022C  0871               	movf	??_writePin,w
  2694  022D  0141               	movlb	1	; select bank1
  2695  022E  00B0               	movwf	(_pinStates^(0+128)+16)
  2696                           
  2697                           ;pins.c: 343:             break;
  2698  022F  0008               	return
  2699  0230                     l1756:	
  2700  0230  0873               	movf	writePin@write,w
  2701  0231  00F1               	movwf	??_writePin
  2702  0232  01F2               	clrf	??_writePin+1
  2703                           
  2704                           ; Switch on 2 bytes has been partitioned into a top level switch of size 1, and 1 sub-sw
      +                          itches
  2705                           ; Switch size 1, requested type "simple"
  2706                           ; Number of cases is 1, Range of values is 0 to 0
  2707                           ; switch strategies available:
  2708                           ; Name         Instructions Cycles
  2709                           ; simple_byte            4     3 (average)
  2710                           ; direct_byte            8     6 (fixed)
  2711                           ; jumptable            260     6 (fixed)
  2712                           ;	Chosen strategy is simple_byte
  2713  0233  0872               	movf	??_writePin+1,w
  2714  0234  3A00               	xorlw	0	; case 0
  2715  0235  1903               	skipnz
  2716  0236  2A38               	goto	l1880
  2717  0237  2A6D               	goto	l194
  2718  0238                     l1880:	
  2719                           
  2720                           ; Switch size 1, requested type "simple"
  2721                           ; Number of cases is 17, Range of values is 0 to 16
  2722                           ; switch strategies available:
  2723                           ; Name         Instructions Cycles
  2724                           ; direct_byte           40     6 (fixed)
  2725                           ; simple_byte           52    27 (average)
  2726                           ; jumptable            260     6 (fixed)
  2727                           ;	Chosen strategy is simple_byte
  2728  0238  0871               	movf	??_writePin,w
  2729  0239  3A00               	xorlw	0	; case 0
  2730  023A  1903               	skipnz
  2731  023B  2964               	goto	l1686
  2732  023C  3A01               	xorlw	1	; case 1
  2733  023D  1903               	skipnz
  2734  023E  2970               	goto	l1690
  2735  023F  3A03               	xorlw	3	; case 2
  2736  0240  1903               	skipnz
  2737  0241  297C               	goto	l1694
  2738  0242  3A01               	xorlw	1	; case 3
  2739  0243  1903               	skipnz
  2740  0244  2988               	goto	l1698
  2741  0245  3A07               	xorlw	7	; case 4
  2742  0246  1903               	skipnz
  2743  0247  2994               	goto	l1702
  2744  0248  3A01               	xorlw	1	; case 5
  2745  0249  1903               	skipnz
  2746  024A  29A0               	goto	l1706
  2747  024B  3A03               	xorlw	3	; case 6
  2748  024C  1903               	skipnz
  2749  024D  29AC               	goto	l1710
  2750  024E  3A01               	xorlw	1	; case 7
  2751  024F  1903               	skipnz
  2752  0250  29B8               	goto	l1714
  2753  0251  3A0F               	xorlw	15	; case 8
  2754  0252  1903               	skipnz
  2755  0253  29C4               	goto	l1718
  2756  0254  3A01               	xorlw	1	; case 9
  2757  0255  1903               	skipnz
  2758  0256  29D0               	goto	l1722
  2759  0257  3A03               	xorlw	3	; case 10
  2760  0258  1903               	skipnz
  2761  0259  29DC               	goto	l1726
  2762  025A  3A01               	xorlw	1	; case 11
  2763  025B  1903               	skipnz
  2764  025C  29E8               	goto	l1730
  2765  025D  3A07               	xorlw	7	; case 12
  2766  025E  1903               	skipnz
  2767  025F  29F4               	goto	l1734
  2768  0260  3A01               	xorlw	1	; case 13
  2769  0261  1903               	skipnz
  2770  0262  2A00               	goto	l1738
  2771  0263  3A03               	xorlw	3	; case 14
  2772  0264  1903               	skipnz
  2773  0265  2A0C               	goto	l1742
  2774  0266  3A01               	xorlw	1	; case 15
  2775  0267  1903               	skipnz
  2776  0268  2A18               	goto	l1746
  2777  0269  3A1F               	xorlw	31	; case 16
  2778  026A  1903               	skipnz
  2779  026B  2A24               	goto	l1750
  2780  026C  2A6D               	goto	l194
  2781  026D                     l194:	
  2782  026D  0008               	return
  2783  026E                     __end_of_writePin:	
  2784                           
  2785                           	psect	text2
  2786  0374                     __ptext2:	
  2787 ;; *************** function _shuffle *****************
  2788 ;; Defined at:
  2789 ;;		line 347 in file "pins.c"
  2790 ;; Parameters:    Size  Location     Type
  2791 ;;  array           1    wreg     PTR enum E11183
  2792 ;;		 -> main@output(5), main@input(5), 
  2793 ;;  size            2   32[BANK0 ] int 
  2794 ;; Auto vars:     Size  Location     Type
  2795 ;;  array           1   42[BANK0 ] PTR enum E11183
  2796 ;;		 -> main@output(5), main@input(5), 
  2797 ;;  j               2   40[BANK0 ] int 
  2798 ;;  temp            1   39[BANK0 ] enum E11183
  2799 ;;  i               2   43[BANK0 ] int 
  2800 ;; Return value:  Size  Location     Type
  2801 ;;                  1    wreg      void 
  2802 ;; Registers used:
  2803 ;;		wreg, fsr1l, fsr1h, status,2, status,0, pclath, cstack
  2804 ;; Tracked objects:
  2805 ;;		On entry : 0/0
  2806 ;;		On exit  : 0/0
  2807 ;;		Unchanged: 0/0
  2808 ;; Data sizes:     COMMON   BANK0   BANK1   BANK2   BANK3   BANK4   BANK5   BANK6   BANK7   BANK8   BANK9  BANK10  BANK1
      +1  BANK12  BANK13  BANK14  BANK15  BANK16  BANK17  BANK18  BANK19  BANK20  BANK21  BANK22  BANK23  BANK24  BANK25
  2809 ;;      Params:         0       2       0       0       0       0       0       0       0       0       0       0       
      +0       0       0       0       0       0       0       0       0       0       0       0       0       0       0
  2810 ;;      Locals:         0       8       0       0       0       0       0       0       0       0       0       0       
      +0       0       0       0       0       0       0       0       0       0       0       0       0       0       0
  2811 ;;      Temps:          0       3       0       0       0       0       0       0       0       0       0       0       
      +0       0       0       0       0       0       0       0       0       0       0       0       0       0       0
  2812 ;;      Totals:         0      13       0       0       0       0       0       0       0       0       0       0       
      +0       0       0       0       0       0       0       0       0       0       0       0       0       0       0
  2813 ;;Total ram usage:       13 bytes
  2814 ;; Hardware stack levels used:    1
  2815 ;; Hardware stack levels required when called:    3
  2816 ;; This function calls:
  2817 ;;		___awdiv
  2818 ;;		_rand
  2819 ;; This function is called by:
  2820 ;;		_main
  2821 ;; This function uses a non-reentrant model
  2822 ;;
  2823                           
  2824                           
  2825                           ;psect for function _shuffle
  2826  0374                     _shuffle:	
  2827                           
  2828                           ;incstack = 0
  2829                           ; Regs used in _shuffle: [wreg+fsr1l+fsr1h+status,2+status,0+pclath+cstack]
  2830                           ;shuffle@array stored from wreg
  2831  0374  0140               	movlb	0	; select bank0
  2832  0375  00CA               	movwf	shuffle@array
  2833                           
  2834                           ;pins.c: 348:     if(size > 1) {
  2835  0376  0841               	movf	shuffle@size+1,w
  2836  0377  3A80               	xorlw	128
  2837  0378  00C2               	movwf	??_shuffle
  2838  0379  3080               	movlw	128
  2839  037A  0242               	subwf	??_shuffle,w
  2840  037B  1D03               	skipz
  2841  037C  2B7F               	goto	u615
  2842  037D  3002               	movlw	2
  2843  037E  0240               	subwf	shuffle@size,w
  2844  037F                     u615:	
  2845  037F  1C03               	skipc
  2846  0380  0008               	return
  2847                           
  2848                           ;pins.c: 349:         int i;;pins.c: 350:         for(i = 0; i < size - 1; i++) {
  2849  0381  0140               	movlb	0	; select bank0
  2850  0382  01CB               	clrf	shuffle@i
  2851  0383  01CC               	clrf	shuffle@i+1
  2852  0384                     l1474:	
  2853  0384  0840               	movf	shuffle@size,w
  2854  0385  3EFF               	addlw	255
  2855  0386  00C2               	movwf	??_shuffle
  2856  0387  30FF               	movlw	255
  2857  0388  3D41               	addwfc	shuffle@size+1,w
  2858  0389  00C3               	movwf	??_shuffle+1
  2859  038A  084C               	movf	shuffle@i+1,w
  2860  038B  3A80               	xorlw	128
  2861  038C  00C4               	movwf	??_shuffle+2
  2862  038D  0843               	movf	??_shuffle+1,w
  2863  038E  3A80               	xorlw	128
  2864  038F  0244               	subwf	??_shuffle+2,w
  2865  0390  1D03               	skipz
  2866  0391  2B94               	goto	u625
  2867  0392  0842               	movf	??_shuffle,w
  2868  0393  024B               	subwf	shuffle@i,w
  2869  0394                     u625:	
  2870  0394  1803               	btfsc	3,0
  2871  0395  0008               	return
  2872                           
  2873                           ;pins.c: 351:             int j = i + rand() / ((0x7fff) / (size - i) + 1);
  2874  0396  0140               	movlb	0	; select bank0
  2875  0397  084B               	movf	shuffle@i,w
  2876  0398  0240               	subwf	shuffle@size,w
  2877  0399  00B8               	movwf	___awdiv@divisor
  2878  039A  084C               	movf	shuffle@i+1,w
  2879  039B  3B41               	subwfb	shuffle@size+1,w
  2880  039C  00B9               	movwf	___awdiv@divisor+1
  2881  039D  30FF               	movlw	255
  2882  039E  00BA               	movwf	___awdiv@dividend
  2883  039F  307F               	movlw	127
  2884  03A0  00BB               	movwf	___awdiv@dividend+1
  2885  03A1  3184  244A  3183   	fcall	___awdiv
  2886  03A4  0140               	movlb	0	; select bank0
  2887  03A5  0838               	movf	?___awdiv,w
  2888  03A6  3E01               	addlw	1
  2889  03A7  00C5               	movwf	_shuffle$1261
  2890  03A8  3000               	movlw	0
  2891  03A9  3D39               	addwfc	?___awdiv+1,w
  2892  03AA  00C6               	movwf	_shuffle$1261+1
  2893                           
  2894                           ;pins.c: 351:             int j = i + rand() / ((0x7fff) / (size - i) + 1);
  2895  03AB  0846               	movf	_shuffle$1261+1,w
  2896  03AC  00B9               	movwf	___awdiv@divisor+1
  2897  03AD  0845               	movf	_shuffle$1261,w
  2898  03AE  00B8               	movwf	___awdiv@divisor
  2899  03AF  3182  22F5  3183   	fcall	_rand
  2900  03B2  087A               	movf	?_rand+1,w
  2901  03B3  0140               	movlb	0	; select bank0
  2902  03B4  00BB               	movwf	___awdiv@dividend+1
  2903  03B5  0879               	movf	?_rand,w
  2904  03B6  00BA               	movwf	___awdiv@dividend
  2905  03B7  3184  244A  3183   	fcall	___awdiv
  2906  03BA  0140               	movlb	0	; select bank0
  2907  03BB  084B               	movf	shuffle@i,w
  2908  03BC  0738               	addwf	?___awdiv,w
  2909  03BD  00C8               	movwf	shuffle@j
  2910  03BE  084C               	movf	shuffle@i+1,w
  2911  03BF  3D39               	addwfc	?___awdiv+1,w
  2912  03C0  00C9               	movwf	shuffle@j+1
  2913                           
  2914                           ;pins.c: 352:             pins_t temp = array[j];
  2915  03C1  0848               	movf	shuffle@j,w
  2916  03C2  074A               	addwf	shuffle@array,w
  2917  03C3  00C2               	movwf	??_shuffle
  2918  03C4  0842               	movf	??_shuffle,w
  2919  03C5  0086               	movwf	6
  2920  03C6  0187               	clrf	7
  2921  03C7  0801               	movf	1,w
  2922  03C8  00C3               	movwf	??_shuffle+1
  2923  03C9  0843               	movf	??_shuffle+1,w
  2924  03CA  00C7               	movwf	shuffle@temp
  2925                           
  2926                           ;pins.c: 353:             array[j] = array [i];
  2927  03CB  084B               	movf	shuffle@i,w
  2928  03CC  074A               	addwf	shuffle@array,w
  2929  03CD  00C2               	movwf	??_shuffle
  2930  03CE  0842               	movf	??_shuffle,w
  2931  03CF  0086               	movwf	6
  2932  03D0  0187               	clrf	7
  2933  03D1  0801               	movf	1,w
  2934  03D2  00C3               	movwf	??_shuffle+1
  2935  03D3  0848               	movf	shuffle@j,w
  2936  03D4  074A               	addwf	shuffle@array,w
  2937  03D5  00C4               	movwf	??_shuffle+2
  2938  03D6  0844               	movf	??_shuffle+2,w
  2939  03D7  0086               	movwf	6
  2940  03D8  0187               	clrf	7
  2941  03D9  0843               	movf	??_shuffle+1,w
  2942  03DA  0081               	movwf	1
  2943                           
  2944                           ;pins.c: 354:             array[i] = temp;
  2945  03DB  0847               	movf	shuffle@temp,w
  2946  03DC  00C2               	movwf	??_shuffle
  2947  03DD  084B               	movf	shuffle@i,w
  2948  03DE  074A               	addwf	shuffle@array,w
  2949  03DF  00C3               	movwf	??_shuffle+1
  2950  03E0  0843               	movf	??_shuffle+1,w
  2951  03E1  0086               	movwf	6
  2952  03E2  0187               	clrf	7
  2953  03E3  0842               	movf	??_shuffle,w
  2954  03E4  0081               	movwf	1
  2955                           
  2956                           ;pins.c: 355:         }
  2957  03E5  3001               	movlw	1
  2958  03E6  07CB               	addwf	shuffle@i,f
  2959  03E7  3000               	movlw	0
  2960  03E8  3DCC               	addwfc	shuffle@i+1,f
  2961  03E9  2B84               	goto	l1474
  2962  03EA                     __end_of_shuffle:	
  2963                           
  2964                           	psect	text3
  2965  02F5                     __ptext3:	
  2966 ;; *************** function _rand *****************
  2967 ;; Defined at:
  2968 ;;		line 15 in file "C:\Program Files (x86)\Microchip\xc8\v2.05\pic\sources\c99\common\rand.c"
  2969 ;; Parameters:    Size  Location     Type
  2970 ;;		None
  2971 ;; Auto vars:     Size  Location     Type
  2972 ;;		None
  2973 ;; Return value:  Size  Location     Type
  2974 ;;                  2    9[COMMON] int 
  2975 ;; Registers used:
  2976 ;;		wreg, fsr1l, fsr1h, status,2, status,0, pclath, cstack
  2977 ;; Tracked objects:
  2978 ;;		On entry : 0/0
  2979 ;;		On exit  : 0/0
  2980 ;;		Unchanged: 0/0
  2981 ;; Data sizes:     COMMON   BANK0   BANK1   BANK2   BANK3   BANK4   BANK5   BANK6   BANK7   BANK8   BANK9  BANK10  BANK1
      +1  BANK12  BANK13  BANK14  BANK15  BANK16  BANK17  BANK18  BANK19  BANK20  BANK21  BANK22  BANK23  BANK24  BANK25
  2982 ;;      Params:         2       0       0       0       0       0       0       0       0       0       0       0       
      +0       0       0       0       0       0       0       0       0       0       0       0       0       0       0
  2983 ;;      Locals:         0       0       0       0       0       0       0       0       0       0       0       0       
      +0       0       0       0       0       0       0       0       0       0       0       0       0       0       0
  2984 ;;      Temps:          0       8       0       0       0       0       0       0       0       0       0       0       
      +0       0       0       0       0       0       0       0       0       0       0       0       0       0       0
  2985 ;;      Totals:         2       8       0       0       0       0       0       0       0       0       0       0       
      +0       0       0       0       0       0       0       0       0       0       0       0       0       0       0
  2986 ;;Total ram usage:       10 bytes
  2987 ;; Hardware stack levels used:    1
  2988 ;; Hardware stack levels required when called:    2
  2989 ;; This function calls:
  2990 ;;		___omul
  2991 ;; This function is called by:
  2992 ;;		_shuffle
  2993 ;; This function uses a non-reentrant model
  2994 ;;
  2995                           
  2996                           
  2997                           ;psect for function _rand
  2998  02F5                     _rand:	
  2999                           
  3000                           ;incstack = 0
  3001                           ; Regs used in _rand: [wreg+fsr1l+fsr1h+status,2+status,0+pclath+cstack]
  3002  02F5  3001               	movlw	1
  3003  02F6  0140               	movlb	0	; select bank0
  3004  02F7  00B0               	movwf	??_rand
  3005  02F8  3000               	movlw	0
  3006  02F9  00B1               	movwf	??_rand+1
  3007  02FA  3000               	movlw	0
  3008  02FB  00B2               	movwf	??_rand+2
  3009  02FC  3000               	movlw	0
  3010  02FD  00B3               	movwf	??_rand+3
  3011  02FE  3000               	movlw	0
  3012  02FF  00B4               	movwf	??_rand+4
  3013  0300  3000               	movlw	0
  3014  0301  00B5               	movwf	??_rand+5
  3015  0302  3000               	movlw	0
  3016  0303  00B6               	movwf	??_rand+6
  3017  0304  3000               	movlw	0
  3018  0305  00B7               	movwf	??_rand+7
  3019  0306  085C               	movf	_seed,w
  3020  0307  00A0               	movwf	___omul@multiplier
  3021  0308  085D               	movf	_seed+1,w
  3022  0309  00A1               	movwf	___omul@multiplier+1
  3023  030A  085E               	movf	_seed+2,w
  3024  030B  00A2               	movwf	___omul@multiplier+2
  3025  030C  085F               	movf	_seed+3,w
  3026  030D  00A3               	movwf	___omul@multiplier+3
  3027  030E  0860               	movf	_seed+4,w
  3028  030F  00A4               	movwf	___omul@multiplier+4
  3029  0310  0861               	movf	_seed+5,w
  3030  0311  00A5               	movwf	___omul@multiplier+5
  3031  0312  0862               	movf	_seed+6,w
  3032  0313  00A6               	movwf	___omul@multiplier+6
  3033  0314  0863               	movf	_seed+7,w
  3034  0315  00A7               	movwf	___omul@multiplier+7
  3035  0316  3058               	movlw	88
  3036  0317  00AF               	movwf	___omul@multiplicand+7
  3037  0318  3051               	movlw	81
  3038  0319  00AE               	movwf	___omul@multiplicand+6
  3039  031A  30F4               	movlw	244
  3040  031B  00AD               	movwf	___omul@multiplicand+5
  3041  031C  302D               	movlw	45
  3042  031D  00AC               	movwf	___omul@multiplicand+4
  3043  031E  304C               	movlw	76
  3044  031F  00AB               	movwf	___omul@multiplicand+3
  3045  0320  3095               	movlw	149
  3046  0321  00AA               	movwf	___omul@multiplicand+2
  3047  0322  307F               	movlw	127
  3048  0323  00A9               	movwf	___omul@multiplicand+1
  3049  0324  302D               	movlw	45
  3050  0325  00A8               	movwf	___omul@multiplicand
  3051  0326  3184  24E8  3182   	fcall	___omul
  3052  0329  0140               	movlb	0	; select bank0
  3053  032A  3020               	movlw	low ?___omul
  3054  032B  0086               	movwf	6
  3055  032C  3000               	movlw	high ?___omul
  3056  032D  0087               	movwf	7
  3057  032E  3F40               	moviw [0]fsr1
  3058  032F  07B0               	addwf	??_rand,f
  3059  0330  3F41               	moviw [1]fsr1
  3060  0331  3DB1               	addwfc	??_rand+1,f
  3061  0332  3F42               	moviw [2]fsr1
  3062  0333  3DB2               	addwfc	??_rand+2,f
  3063  0334  3F43               	moviw [3]fsr1
  3064  0335  3DB3               	addwfc	??_rand+3,f
  3065  0336  3F44               	moviw [4]fsr1
  3066  0337  3DB4               	addwfc	??_rand+4,f
  3067  0338  3F45               	moviw [5]fsr1
  3068  0339  3DB5               	addwfc	??_rand+5,f
  3069  033A  3F46               	moviw [6]fsr1
  3070  033B  3DB6               	addwfc	??_rand+6,f
  3071  033C  3F47               	moviw [7]fsr1
  3072  033D  3DB7               	addwfc	??_rand+7,f
  3073  033E  0837               	movf	??_rand+7,w
  3074  033F  00E3               	movwf	_seed+7
  3075  0340  0836               	movf	??_rand+6,w
  3076  0341  00E2               	movwf	_seed+6
  3077  0342  0835               	movf	??_rand+5,w
  3078  0343  00E1               	movwf	_seed+5
  3079  0344  0834               	movf	??_rand+4,w
  3080  0345  00E0               	movwf	_seed+4
  3081  0346  0833               	movf	??_rand+3,w
  3082  0347  00DF               	movwf	_seed+3
  3083  0348  0832               	movf	??_rand+2,w
  3084  0349  00DE               	movwf	_seed+2
  3085  034A  0831               	movf	??_rand+1,w
  3086  034B  00DD               	movwf	_seed+1
  3087  034C  0830               	movf	??_rand,w
  3088  034D  00DC               	movwf	_seed
  3089  034E  305C               	movlw	low _seed
  3090  034F  0086               	movwf	6
  3091  0350  3000               	movlw	high _seed
  3092  0351  0087               	movwf	7
  3093  0352  3F40               	moviw [0]fsr1
  3094  0353  00B0               	movwf	??_rand
  3095  0354  3F41               	moviw [1]fsr1
  3096  0355  00B1               	movwf	??_rand+1
  3097  0356  3F42               	moviw [2]fsr1
  3098  0357  00B2               	movwf	??_rand+2
  3099  0358  3F43               	moviw [3]fsr1
  3100  0359  00B3               	movwf	??_rand+3
  3101  035A  3F44               	moviw [4]fsr1
  3102  035B  00B4               	movwf	??_rand+4
  3103  035C  3F45               	moviw [5]fsr1
  3104  035D  00B5               	movwf	??_rand+5
  3105  035E  3F46               	moviw [6]fsr1
  3106  035F  00B6               	movwf	??_rand+6
  3107  0360  3F47               	moviw [7]fsr1
  3108  0361  00B7               	movwf	??_rand+7
  3109  0362  3007               	movlw	7
  3110  0363                     u475:	
  3111  0363  0140               	movlb	0	; select bank0
  3112  0364  36B7               	lsrf	??_rand+7,f
  3113  0365  0CB6               	rrf	??_rand+6,f
  3114  0366  0CB5               	rrf	??_rand+5,f
  3115  0367  0CB4               	rrf	??_rand+4,f
  3116  0368  0CB3               	rrf	??_rand+3,f
  3117  0369  0CB2               	rrf	??_rand+2,f
  3118  036A  0CB1               	rrf	??_rand+1,f
  3119  036B  0CB0               	rrf	??_rand,f
  3120  036C  0B89               	decfsz	9,f
  3121  036D  2B63               	goto	u475
  3122  036E  0140               	movlb	0	; select bank0
  3123  036F  0831               	movf	??_rand+1,w
  3124  0370  00FA               	movwf	?_rand+1
  3125  0371  0830               	movf	??_rand,w
  3126  0372  00F9               	movwf	?_rand
  3127  0373  0008               	return
  3128  0374                     __end_of_rand:	
  3129                           
  3130                           	psect	text4
  3131  04E8                     __ptext4:	
  3132 ;; *************** function ___omul *****************
  3133 ;; Defined at:
  3134 ;;		line 91 in file "C:\Program Files (x86)\Microchip\xc8\v2.05\pic\sources\c99\common\Umul64.c"
  3135 ;; Parameters:    Size  Location     Type
  3136 ;;  multiplier      8    0[BANK0 ] unsigned long long 
  3137 ;;  multiplicand    8    8[BANK0 ] unsigned long long 
  3138 ;; Auto vars:     Size  Location     Type
  3139 ;;  product         8    1[COMMON] unsigned long long 
  3140 ;; Return value:  Size  Location     Type
  3141 ;;                  8    0[BANK0 ] unsigned long long 
  3142 ;; Registers used:
  3143 ;;		wreg, fsr1l, fsr1h, status,2, status,0
  3144 ;; Tracked objects:
  3145 ;;		On entry : 0/0
  3146 ;;		On exit  : 0/0
  3147 ;;		Unchanged: 0/0
  3148 ;; Data sizes:     COMMON   BANK0   BANK1   BANK2   BANK3   BANK4   BANK5   BANK6   BANK7   BANK8   BANK9  BANK10  BANK1
      +1  BANK12  BANK13  BANK14  BANK15  BANK16  BANK17  BANK18  BANK19  BANK20  BANK21  BANK22  BANK23  BANK24  BANK25
  3149 ;;      Params:         0      16       0       0       0       0       0       0       0       0       0       0       
      +0       0       0       0       0       0       0       0       0       0       0       0       0       0       0
  3150 ;;      Locals:         8       0       0       0       0       0       0       0       0       0       0       0       
      +0       0       0       0       0       0       0       0       0       0       0       0       0       0       0
  3151 ;;      Temps:          1       0       0       0       0       0       0       0       0       0       0       0       
      +0       0       0       0       0       0       0       0       0       0       0       0       0       0       0
  3152 ;;      Totals:         9      16       0       0       0       0       0       0       0       0       0       0       
      +0       0       0       0       0       0       0       0       0       0       0       0       0       0       0
  3153 ;;Total ram usage:       25 bytes
  3154 ;; Hardware stack levels used:    1
  3155 ;; Hardware stack levels required when called:    1
  3156 ;; This function calls:
  3157 ;;		Nothing
  3158 ;; This function is called by:
  3159 ;;		_rand
  3160 ;; This function uses a non-reentrant model
  3161 ;;
  3162                           
  3163                           
  3164                           ;psect for function ___omul
  3165  04E8                     ___omul:	
  3166                           
  3167                           ;incstack = 0
  3168                           ; Regs used in ___omul: [wreg+fsr1l+fsr1h+status,2+status,0]
  3169  04E8  3071               	movlw	low ___omul@product
  3170  04E9  0086               	movwf	6
  3171  04EA  3000               	movlw	high ___omul@product
  3172  04EB  0087               	movwf	7
  3173  04EC  3008               	movlw	8
  3174  04ED  00F0               	movwf	??___omul
  3175  04EE  3000               	movlw	0
  3176  04EF                     u440:	
  3177  04EF  001E               	movwi fsr1++
  3178  04F0  0BF0               	decfsz	??___omul,f
  3179  04F1  2CEF               	goto	u440
  3180  04F2                     l1374:	
  3181  04F2  0140               	movlb	0	; select bank0
  3182  04F3  1C20               	btfss	___omul@multiplier,0
  3183  04F4  2D05               	goto	l1378
  3184  04F5  0828               	movf	___omul@multiplicand,w
  3185  04F6  07F1               	addwf	___omul@product,f
  3186  04F7  0829               	movf	___omul@multiplicand+1,w
  3187  04F8  3DF2               	addwfc	___omul@product+1,f
  3188  04F9  082A               	movf	___omul@multiplicand+2,w
  3189  04FA  3DF3               	addwfc	___omul@product+2,f
  3190  04FB  082B               	movf	___omul@multiplicand+3,w
  3191  04FC  3DF4               	addwfc	___omul@product+3,f
  3192  04FD  082C               	movf	___omul@multiplicand+4,w
  3193  04FE  3DF5               	addwfc	___omul@product+4,f
  3194  04FF  082D               	movf	___omul@multiplicand+5,w
  3195  0500  3DF6               	addwfc	___omul@product+5,f
  3196  0501  082E               	movf	___omul@multiplicand+6,w
  3197  0502  3DF7               	addwfc	___omul@product+6,f
  3198  0503  082F               	movf	___omul@multiplicand+7,w
  3199  0504  3DF8               	addwfc	___omul@product+7,f
  3200  0505                     l1378:	
  3201  0505  35A8               	lslf	___omul@multiplicand,f
  3202  0506  0DA9               	rlf	___omul@multiplicand+1,f
  3203  0507  0DAA               	rlf	___omul@multiplicand+2,f
  3204  0508  0DAB               	rlf	___omul@multiplicand+3,f
  3205  0509  0DAC               	rlf	___omul@multiplicand+4,f
  3206  050A  0DAD               	rlf	___omul@multiplicand+5,f
  3207  050B  0DAE               	rlf	___omul@multiplicand+6,f
  3208  050C  0DAF               	rlf	___omul@multiplicand+7,f
  3209  050D  36A7               	lsrf	___omul@multiplier+7,f
  3210  050E  0CA6               	rrf	___omul@multiplier+6,f
  3211  050F  0CA5               	rrf	___omul@multiplier+5,f
  3212  0510  0CA4               	rrf	___omul@multiplier+4,f
  3213  0511  0CA3               	rrf	___omul@multiplier+3,f
  3214  0512  0CA2               	rrf	___omul@multiplier+2,f
  3215  0513  0CA1               	rrf	___omul@multiplier+1,f
  3216  0514  0CA0               	rrf	___omul@multiplier,f
  3217  0515  0820               	movf	___omul@multiplier,w
  3218  0516  0421               	iorwf	___omul@multiplier+1,w
  3219  0517  0422               	iorwf	___omul@multiplier+2,w
  3220  0518  0423               	iorwf	___omul@multiplier+3,w
  3221  0519  0424               	iorwf	___omul@multiplier+4,w
  3222  051A  0425               	iorwf	___omul@multiplier+5,w
  3223  051B  0426               	iorwf	___omul@multiplier+6,w
  3224  051C  0427               	iorwf	___omul@multiplier+7,w
  3225  051D  1D03               	skipz
  3226  051E  2CF2               	goto	l1374
  3227  051F  0871               	movf	___omul@product,w
  3228  0520  00A0               	movwf	?___omul
  3229  0521  0872               	movf	___omul@product+1,w
  3230  0522  00A1               	movwf	?___omul+1
  3231  0523  0873               	movf	___omul@product+2,w
  3232  0524  00A2               	movwf	?___omul+2
  3233  0525  0874               	movf	___omul@product+3,w
  3234  0526  00A3               	movwf	?___omul+3
  3235  0527  0875               	movf	___omul@product+4,w
  3236  0528  00A4               	movwf	?___omul+4
  3237  0529  0876               	movf	___omul@product+5,w
  3238  052A  00A5               	movwf	?___omul+5
  3239  052B  0877               	movf	___omul@product+6,w
  3240  052C  00A6               	movwf	?___omul+6
  3241  052D  0878               	movf	___omul@product+7,w
  3242  052E  00A7               	movwf	?___omul+7
  3243  052F  0008               	return
  3244  0530                     __end_of___omul:	
  3245                           
  3246                           	psect	text5
  3247  044A                     __ptext5:	
  3248 ;; *************** function ___awdiv *****************
  3249 ;; Defined at:
  3250 ;;		line 5 in file "C:\Program Files (x86)\Microchip\xc8\v2.05\pic\sources\c99\common\awdiv.c"
  3251 ;; Parameters:    Size  Location     Type
  3252 ;;  divisor         2   24[BANK0 ] int 
  3253 ;;  dividend        2   26[BANK0 ] int 
  3254 ;; Auto vars:     Size  Location     Type
  3255 ;;  quotient        2   30[BANK0 ] int 
  3256 ;;  sign            1   29[BANK0 ] unsigned char 
  3257 ;;  counter         1   28[BANK0 ] unsigned char 
  3258 ;; Return value:  Size  Location     Type
  3259 ;;                  2   24[BANK0 ] int 
  3260 ;; Registers used:
  3261 ;;		wreg, status,2, status,0
  3262 ;; Tracked objects:
  3263 ;;		On entry : 0/0
  3264 ;;		On exit  : 0/0
  3265 ;;		Unchanged: 0/0
  3266 ;; Data sizes:     COMMON   BANK0   BANK1   BANK2   BANK3   BANK4   BANK5   BANK6   BANK7   BANK8   BANK9  BANK10  BANK1
      +1  BANK12  BANK13  BANK14  BANK15  BANK16  BANK17  BANK18  BANK19  BANK20  BANK21  BANK22  BANK23  BANK24  BANK25
  3267 ;;      Params:         0       4       0       0       0       0       0       0       0       0       0       0       
      +0       0       0       0       0       0       0       0       0       0       0       0       0       0       0
  3268 ;;      Locals:         0       4       0       0       0       0       0       0       0       0       0       0       
      +0       0       0       0       0       0       0       0       0       0       0       0       0       0       0
  3269 ;;      Temps:          1       0       0       0       0       0       0       0       0       0       0       0       
      +0       0       0       0       0       0       0       0       0       0       0       0       0       0       0
  3270 ;;      Totals:         1       8       0       0       0       0       0       0       0       0       0       0       
      +0       0       0       0       0       0       0       0       0       0       0       0       0       0       0
  3271 ;;Total ram usage:        9 bytes
  3272 ;; Hardware stack levels used:    1
  3273 ;; Hardware stack levels required when called:    1
  3274 ;; This function calls:
  3275 ;;		Nothing
  3276 ;; This function is called by:
  3277 ;;		_shuffle
  3278 ;; This function uses a non-reentrant model
  3279 ;;
  3280                           
  3281                           
  3282                           ;psect for function ___awdiv
  3283  044A                     ___awdiv:	
  3284                           
  3285                           ;incstack = 0
  3286                           ; Regs used in ___awdiv: [wreg+status,2+status,0]
  3287  044A  0140               	movlb	0	; select bank0
  3288  044B  01BD               	clrf	___awdiv@sign
  3289  044C  1FB9               	btfss	___awdiv@divisor+1,7
  3290  044D  2C55               	goto	l1410
  3291  044E  09B8               	comf	___awdiv@divisor,f
  3292  044F  09B9               	comf	___awdiv@divisor+1,f
  3293  0450  0AB8               	incf	___awdiv@divisor,f
  3294  0451  1903               	skipnz
  3295  0452  0AB9               	incf	___awdiv@divisor+1,f
  3296  0453  01BD               	clrf	___awdiv@sign
  3297  0454  0ABD               	incf	___awdiv@sign,f
  3298  0455                     l1410:	
  3299  0455  1FBB               	btfss	___awdiv@dividend+1,7
  3300  0456  2C60               	goto	l1416
  3301  0457  09BA               	comf	___awdiv@dividend,f
  3302  0458  09BB               	comf	___awdiv@dividend+1,f
  3303  0459  0ABA               	incf	___awdiv@dividend,f
  3304  045A  1903               	skipnz
  3305  045B  0ABB               	incf	___awdiv@dividend+1,f
  3306  045C  3001               	movlw	1
  3307  045D  00FB               	movwf	??___awdiv
  3308  045E  087B               	movf	??___awdiv,w
  3309  045F  06BD               	xorwf	___awdiv@sign,f
  3310  0460                     l1416:	
  3311  0460  01BE               	clrf	___awdiv@quotient
  3312  0461  01BF               	clrf	___awdiv@quotient+1
  3313  0462  0838               	movf	___awdiv@divisor,w
  3314  0463  0439               	iorwf	___awdiv@divisor+1,w
  3315  0464  1903               	btfsc	3,2
  3316  0465  2C8F               	goto	l1438
  3317  0466  01BC               	clrf	___awdiv@counter
  3318  0467  0ABC               	incf	___awdiv@counter,f
  3319  0468                     l1426:	
  3320  0468  1BB9               	btfsc	___awdiv@divisor+1,7
  3321  0469  2C74               	goto	l1428
  3322  046A  3001               	movlw	1
  3323  046B                     u535:	
  3324  046B  35B8               	lslf	___awdiv@divisor,f
  3325  046C  0DB9               	rlf	___awdiv@divisor+1,f
  3326  046D  0B89               	decfsz	9,f
  3327  046E  2C6B               	goto	u535
  3328  046F  3001               	movlw	1
  3329  0470  00FB               	movwf	??___awdiv
  3330  0471  087B               	movf	??___awdiv,w
  3331  0472  07BC               	addwf	___awdiv@counter,f
  3332  0473  2C68               	goto	l1426
  3333  0474                     l1428:	
  3334  0474  3001               	movlw	1
  3335  0475                     u555:	
  3336  0475  35BE               	lslf	___awdiv@quotient,f
  3337  0476  0DBF               	rlf	___awdiv@quotient+1,f
  3338  0477  0B89               	decfsz	9,f
  3339  0478  2C75               	goto	u555
  3340  0479  0839               	movf	___awdiv@divisor+1,w
  3341  047A  023B               	subwf	___awdiv@dividend+1,w
  3342  047B  1D03               	skipz
  3343  047C  2C7F               	goto	u565
  3344  047D  0838               	movf	___awdiv@divisor,w
  3345  047E  023A               	subwf	___awdiv@dividend,w
  3346  047F                     u565:	
  3347  047F  1C03               	skipc
  3348  0480  2C86               	goto	l1434
  3349  0481  0838               	movf	___awdiv@divisor,w
  3350  0482  02BA               	subwf	___awdiv@dividend,f
  3351  0483  0839               	movf	___awdiv@divisor+1,w
  3352  0484  3BBB               	subwfb	___awdiv@dividend+1,f
  3353  0485  143E               	bsf	___awdiv@quotient,0
  3354  0486                     l1434:	
  3355  0486  3001               	movlw	1
  3356  0487                     u575:	
  3357  0487  36B9               	lsrf	___awdiv@divisor+1,f
  3358  0488  0CB8               	rrf	___awdiv@divisor,f
  3359  0489  0B89               	decfsz	9,f
  3360  048A  2C87               	goto	u575
  3361  048B  3001               	movlw	1
  3362  048C  02BC               	subwf	___awdiv@counter,f
  3363  048D  1D03               	btfss	3,2
  3364  048E  2C74               	goto	l1428
  3365  048F                     l1438:	
  3366  048F  083D               	movf	___awdiv@sign,w
  3367  0490  1903               	btfsc	3,2
  3368  0491  2C97               	goto	l1442
  3369  0492  09BE               	comf	___awdiv@quotient,f
  3370  0493  09BF               	comf	___awdiv@quotient+1,f
  3371  0494  0ABE               	incf	___awdiv@quotient,f
  3372  0495  1903               	skipnz
  3373  0496  0ABF               	incf	___awdiv@quotient+1,f
  3374  0497                     l1442:	
  3375  0497  083F               	movf	___awdiv@quotient+1,w
  3376  0498  00B9               	movwf	?___awdiv+1
  3377  0499  083E               	movf	___awdiv@quotient,w
  3378  049A  00B8               	movwf	?___awdiv
  3379  049B  0008               	return
  3380  049C                     __end_of___awdiv:	
  3381                           
  3382                           	psect	text6
  3383  026E                     __ptext6:	
  3384 ;; *************** function _readPin *****************
  3385 ;; Defined at:
  3386 ;;		line 167 in file "pins.c"
  3387 ;; Parameters:    Size  Location     Type
  3388 ;;  read            1    wreg     enum E11183
  3389 ;; Auto vars:     Size  Location     Type
  3390 ;;  read            1    2[COMMON] enum E11183
  3391 ;; Return value:  Size  Location     Type
  3392 ;;                  1    wreg      _Bool 
  3393 ;; Registers used:
  3394 ;;		wreg, fsr0l, fsr0h, status,2, status,0
  3395 ;; Tracked objects:
  3396 ;;		On entry : 0/0
  3397 ;;		On exit  : 0/0
  3398 ;;		Unchanged: 0/0
  3399 ;; Data sizes:     COMMON   BANK0   BANK1   BANK2   BANK3   BANK4   BANK5   BANK6   BANK7   BANK8   BANK9  BANK10  BANK1
      +1  BANK12  BANK13  BANK14  BANK15  BANK16  BANK17  BANK18  BANK19  BANK20  BANK21  BANK22  BANK23  BANK24  BANK25
  3400 ;;      Params:         0       0       0       0       0       0       0       0       0       0       0       0       
      +0       0       0       0       0       0       0       0       0       0       0       0       0       0       0
  3401 ;;      Locals:         1       0       0       0       0       0       0       0       0       0       0       0       
      +0       0       0       0       0       0       0       0       0       0       0       0       0       0       0
  3402 ;;      Temps:          2       0       0       0       0       0       0       0       0       0       0       0       
      +0       0       0       0       0       0       0       0       0       0       0       0       0       0       0
  3403 ;;      Totals:         3       0       0       0       0       0       0       0       0       0       0       0       
      +0       0       0       0       0       0       0       0       0       0       0       0       0       0       0
  3404 ;;Total ram usage:        3 bytes
  3405 ;; Hardware stack levels used:    1
  3406 ;; Hardware stack levels required when called:    1
  3407 ;; This function calls:
  3408 ;;		Nothing
  3409 ;; This function is called by:
  3410 ;;		_main
  3411 ;; This function uses a non-reentrant model
  3412 ;;
  3413                           
  3414                           
  3415                           ;psect for function _readPin
  3416  026E                     _readPin:	
  3417                           
  3418                           ;incstack = 0
  3419                           ; Regs used in _readPin: [wreg-fsr0h+status,2+status,0]
  3420                           ;readPin@read stored from wreg
  3421  026E  00F2               	movwf	readPin@read
  3422                           
  3423                           ;pins.c: 168:     switch (read) {
  3424  026F  2AB7               	goto	l1676
  3425  0270                     l120:	
  3426                           ;pins.c: 169:         case PINA0 :
  3427                           
  3428                           
  3429                           ;pins.c: 170:             if(PORTAbits.RA0 == 0) {
  3430  0270  0140               	movlb	0	; select bank0
  3431  0271  180C               	btfsc	12,0	;volatile
  3432  0272  2A75               	goto	l1512
  3433  0273                     l1506:	
  3434                           
  3435                           ;pins.c: 171:                 return 0;
  3436  0273  3000               	movlw	0
  3437  0274  0008               	return
  3438  0275                     l1512:	
  3439                           
  3440                           ;pins.c: 173:                 return 1;
  3441  0275  3001               	movlw	1
  3442  0276  0008               	return
  3443  0277                     l124:	
  3444                           ;pins.c: 175:         case PINA1 :
  3445                           
  3446                           
  3447                           ;pins.c: 176:             if(PORTAbits.RA1 == 0) {
  3448  0277  0140               	movlb	0	; select bank0
  3449  0278  1C8C               	btfss	12,1	;volatile
  3450  0279  2A73               	goto	l1506
  3451  027A  2A75               	goto	l1512
  3452  027B                     l127:	
  3453                           ;pins.c: 181:         case PINA2 :
  3454                           
  3455                           
  3456                           ;pins.c: 182:             if(PORTAbits.RA2 == 0) {
  3457  027B  0140               	movlb	0	; select bank0
  3458  027C  190C               	btfsc	12,2	;volatile
  3459  027D  2A75               	goto	l1512
  3460  027E  2A73               	goto	l1506
  3461  027F                     l130:	
  3462                           ;pins.c: 187:         case PINA4 :
  3463                           
  3464                           
  3465                           ;pins.c: 188:             if(PORTAbits.RA4 == 0) {
  3466  027F  0140               	movlb	0	; select bank0
  3467  0280  1A0C               	btfsc	12,4	;volatile
  3468  0281  2A75               	goto	l1512
  3469  0282  2A73               	goto	l1506
  3470  0283                     l133:	
  3471                           ;pins.c: 193:         case PINA5 :
  3472                           
  3473                           
  3474                           ;pins.c: 194:             if(PORTAbits.RA5 == 0) {
  3475  0283  0140               	movlb	0	; select bank0
  3476  0284  1A8C               	btfsc	12,5	;volatile
  3477  0285  2A75               	goto	l1512
  3478  0286  2A73               	goto	l1506
  3479  0287                     l136:	
  3480                           ;pins.c: 199:         case PINB4 :
  3481                           
  3482                           
  3483                           ;pins.c: 200:             if(PORTBbits.RB4 == 0) {
  3484  0287  0140               	movlb	0	; select bank0
  3485  0288  1A0D               	btfsc	13,4	;volatile
  3486  0289  2A75               	goto	l1512
  3487  028A  2A73               	goto	l1506
  3488  028B                     l139:	
  3489                           ;pins.c: 205:         case PINB5 :
  3490                           
  3491                           
  3492                           ;pins.c: 206:             if(PORTBbits.RB5 == 0) {
  3493  028B  0140               	movlb	0	; select bank0
  3494  028C  1A8D               	btfsc	13,5	;volatile
  3495  028D  2A75               	goto	l1512
  3496  028E  2A73               	goto	l1506
  3497  028F                     l142:	
  3498                           ;pins.c: 211:         case PINB6 :
  3499                           
  3500                           
  3501                           ;pins.c: 212:             if(PORTBbits.RB6 == 0) {
  3502  028F  0140               	movlb	0	; select bank0
  3503  0290  1B0D               	btfsc	13,6	;volatile
  3504  0291  2A75               	goto	l1512
  3505  0292  2A73               	goto	l1506
  3506  0293                     l145:	
  3507                           ;pins.c: 217:         case PINB7 :
  3508                           
  3509                           
  3510                           ;pins.c: 218:             if(PORTBbits.RB7 == 0) {
  3511  0293  0140               	movlb	0	; select bank0
  3512  0294  1B8D               	btfsc	13,7	;volatile
  3513  0295  2A75               	goto	l1512
  3514  0296  2A73               	goto	l1506
  3515  0297                     l148:	
  3516                           ;pins.c: 223:         case PINC0 :
  3517                           
  3518                           
  3519                           ;pins.c: 224:             if(PORTCbits.RC0 == 0) {
  3520  0297  0140               	movlb	0	; select bank0
  3521  0298  180E               	btfsc	14,0	;volatile
  3522  0299  2A75               	goto	l1512
  3523  029A  2A73               	goto	l1506
  3524  029B                     l151:	
  3525                           ;pins.c: 229:         case PINC1 :
  3526                           
  3527                           
  3528                           ;pins.c: 230:             if(PORTCbits.RC1 == 0) {
  3529  029B  0140               	movlb	0	; select bank0
  3530  029C  188E               	btfsc	14,1	;volatile
  3531  029D  2A75               	goto	l1512
  3532  029E  2A73               	goto	l1506
  3533  029F                     l154:	
  3534                           ;pins.c: 235:         case PINC2 :
  3535                           
  3536                           
  3537                           ;pins.c: 236:             if(PORTCbits.RC2 == 0) {
  3538  029F  0140               	movlb	0	; select bank0
  3539  02A0  190E               	btfsc	14,2	;volatile
  3540  02A1  2A75               	goto	l1512
  3541  02A2  2A73               	goto	l1506
  3542  02A3                     l157:	
  3543                           ;pins.c: 241:         case PINC3 :
  3544                           
  3545                           
  3546                           ;pins.c: 242:             if(PORTCbits.RC3 == 0) {
  3547  02A3  0140               	movlb	0	; select bank0
  3548  02A4  198E               	btfsc	14,3	;volatile
  3549  02A5  2A75               	goto	l1512
  3550  02A6  2A73               	goto	l1506
  3551  02A7                     l160:	
  3552                           ;pins.c: 247:         case PINC4 :
  3553                           
  3554                           
  3555                           ;pins.c: 248:             if(PORTCbits.RC4 == 0) {
  3556  02A7  0140               	movlb	0	; select bank0
  3557  02A8  1A0E               	btfsc	14,4	;volatile
  3558  02A9  2A75               	goto	l1512
  3559  02AA  2A73               	goto	l1506
  3560  02AB                     l163:	
  3561                           ;pins.c: 253:         case PINC5 :
  3562                           
  3563                           
  3564                           ;pins.c: 254:             if(PORTCbits.RC5 == 0) {
  3565  02AB  0140               	movlb	0	; select bank0
  3566  02AC  1A8E               	btfsc	14,5	;volatile
  3567  02AD  2A75               	goto	l1512
  3568  02AE  2A73               	goto	l1506
  3569  02AF                     l166:	
  3570                           ;pins.c: 259:         case PINC6:
  3571                           
  3572                           
  3573                           ;pins.c: 260:             if(PORTCbits.RC6 == 0) {
  3574  02AF  0140               	movlb	0	; select bank0
  3575  02B0  1B0E               	btfsc	14,6	;volatile
  3576  02B1  2A75               	goto	l1512
  3577  02B2  2A73               	goto	l1506
  3578  02B3                     l169:	
  3579                           ;pins.c: 265:         case PINC7:
  3580                           
  3581                           
  3582                           ;pins.c: 266:             if(PORTCbits.RC7 == 0) {
  3583  02B3  0140               	movlb	0	; select bank0
  3584  02B4  1B8E               	btfsc	14,7	;volatile
  3585  02B5  2A75               	goto	l1512
  3586  02B6  2A73               	goto	l1506
  3587  02B7                     l1676:	
  3588  02B7  0872               	movf	readPin@read,w
  3589  02B8  00F0               	movwf	??_readPin
  3590  02B9  01F1               	clrf	??_readPin+1
  3591                           
  3592                           ; Switch on 2 bytes has been partitioned into a top level switch of size 1, and 1 sub-sw
      +                          itches
  3593                           ; Switch size 1, requested type "simple"
  3594                           ; Number of cases is 1, Range of values is 0 to 0
  3595                           ; switch strategies available:
  3596                           ; Name         Instructions Cycles
  3597                           ; simple_byte            4     3 (average)
  3598                           ; direct_byte            8     6 (fixed)
  3599                           ; jumptable            260     6 (fixed)
  3600                           ;	Chosen strategy is simple_byte
  3601  02BA  0871               	movf	??_readPin+1,w
  3602  02BB  3A00               	xorlw	0	; case 0
  3603  02BC  1903               	skipnz
  3604  02BD  2ABF               	goto	l1882
  3605  02BE  2AF4               	goto	l122
  3606  02BF                     l1882:	
  3607                           
  3608                           ; Switch size 1, requested type "simple"
  3609                           ; Number of cases is 17, Range of values is 0 to 16
  3610                           ; switch strategies available:
  3611                           ; Name         Instructions Cycles
  3612                           ; direct_byte           40     6 (fixed)
  3613                           ; simple_byte           52    27 (average)
  3614                           ; jumptable            260     6 (fixed)
  3615                           ;	Chosen strategy is simple_byte
  3616  02BF  0870               	movf	??_readPin,w
  3617  02C0  3A00               	xorlw	0	; case 0
  3618  02C1  1903               	skipnz
  3619  02C2  2A70               	goto	l120
  3620  02C3  3A01               	xorlw	1	; case 1
  3621  02C4  1903               	skipnz
  3622  02C5  2A77               	goto	l124
  3623  02C6  3A03               	xorlw	3	; case 2
  3624  02C7  1903               	skipnz
  3625  02C8  2A7B               	goto	l127
  3626  02C9  3A01               	xorlw	1	; case 3
  3627  02CA  1903               	skipnz
  3628  02CB  2A7F               	goto	l130
  3629  02CC  3A07               	xorlw	7	; case 4
  3630  02CD  1903               	skipnz
  3631  02CE  2A83               	goto	l133
  3632  02CF  3A01               	xorlw	1	; case 5
  3633  02D0  1903               	skipnz
  3634  02D1  2A87               	goto	l136
  3635  02D2  3A03               	xorlw	3	; case 6
  3636  02D3  1903               	skipnz
  3637  02D4  2A8B               	goto	l139
  3638  02D5  3A01               	xorlw	1	; case 7
  3639  02D6  1903               	skipnz
  3640  02D7  2A8F               	goto	l142
  3641  02D8  3A0F               	xorlw	15	; case 8
  3642  02D9  1903               	skipnz
  3643  02DA  2A93               	goto	l145
  3644  02DB  3A01               	xorlw	1	; case 9
  3645  02DC  1903               	skipnz
  3646  02DD  2A97               	goto	l148
  3647  02DE  3A03               	xorlw	3	; case 10
  3648  02DF  1903               	skipnz
  3649  02E0  2A9B               	goto	l151
  3650  02E1  3A01               	xorlw	1	; case 11
  3651  02E2  1903               	skipnz
  3652  02E3  2A9F               	goto	l154
  3653  02E4  3A07               	xorlw	7	; case 12
  3654  02E5  1903               	skipnz
  3655  02E6  2AA3               	goto	l157
  3656  02E7  3A01               	xorlw	1	; case 13
  3657  02E8  1903               	skipnz
  3658  02E9  2AA7               	goto	l160
  3659  02EA  3A03               	xorlw	3	; case 14
  3660  02EB  1903               	skipnz
  3661  02EC  2AAB               	goto	l163
  3662  02ED  3A01               	xorlw	1	; case 15
  3663  02EE  1903               	skipnz
  3664  02EF  2AAF               	goto	l166
  3665  02F0  3A1F               	xorlw	31	; case 16
  3666  02F1  1903               	skipnz
  3667  02F2  2AB3               	goto	l169
  3668  02F3  2AF4               	goto	l122
  3669  02F4                     l122:	
  3670  02F4  0008               	return
  3671  02F5                     __end_of_readPin:	
  3672                           
  3673                           	psect	text7
  3674  049C                     __ptext7:	
  3675 ;; *************** function _initMoles *****************
  3676 ;; Defined at:
  3677 ;;		line 22 in file "main.c"
  3678 ;; Parameters:    Size  Location     Type
  3679 ;;  input           1    wreg     PTR enum E11183
  3680 ;;		 -> main@input(5), 
  3681 ;;  output          1    4[COMMON] PTR enum E11183
  3682 ;;		 -> main@output(5), 
  3683 ;;  inputLength     1    5[COMMON] unsigned char 
  3684 ;;  outputLength    1    6[COMMON] unsigned char 
  3685 ;; Auto vars:     Size  Location     Type
  3686 ;;  input           1   10[COMMON] PTR enum E11183
  3687 ;;		 -> main@input(5), 
  3688 ;;  i               2   11[COMMON] int 
  3689 ;; Return value:  Size  Location     Type
  3690 ;;                  1    wreg      void 
  3691 ;; Registers used:
  3692 ;;		wreg, fsr1l, fsr1h, status,2, status,0, pclath, cstack
  3693 ;; Tracked objects:
  3694 ;;		On entry : 0/0
  3695 ;;		On exit  : 0/0
  3696 ;;		Unchanged: 0/0
  3697 ;; Data sizes:     COMMON   BANK0   BANK1   BANK2   BANK3   BANK4   BANK5   BANK6   BANK7   BANK8   BANK9  BANK10  BANK1
      +1  BANK12  BANK13  BANK14  BANK15  BANK16  BANK17  BANK18  BANK19  BANK20  BANK21  BANK22  BANK23  BANK24  BANK25
  3698 ;;      Params:         3       0       0       0       0       0       0       0       0       0       0       0       
      +0       0       0       0       0       0       0       0       0       0       0       0       0       0       0
  3699 ;;      Locals:         3       0       0       0       0       0       0       0       0       0       0       0       
      +0       0       0       0       0       0       0       0       0       0       0       0       0       0       0
  3700 ;;      Temps:          3       0       0       0       0       0       0       0       0       0       0       0       
      +0       0       0       0       0       0       0       0       0       0       0       0       0       0       0
  3701 ;;      Totals:         9       0       0       0       0       0       0       0       0       0       0       0       
      +0       0       0       0       0       0       0       0       0       0       0       0       0       0       0
  3702 ;;Total ram usage:        9 bytes
  3703 ;; Hardware stack levels used:    1
  3704 ;; Hardware stack levels required when called:    2
  3705 ;; This function calls:
  3706 ;;		___bmul
  3707 ;; This function is called by:
  3708 ;;		_main
  3709 ;; This function uses a non-reentrant model
  3710 ;;
  3711                           
  3712                           
  3713                           ;psect for function _initMoles
  3714  049C                     _initMoles:	
  3715                           
  3716                           ;incstack = 0
  3717                           ; Regs used in _initMoles: [wreg+fsr1l+fsr1h+status,2+status,0+pclath+cstack]
  3718                           ;initMoles@input stored from wreg
  3719  049C  00FA               	movwf	initMoles@input
  3720                           
  3721                           ;main.c: 23:         if(readPin(PINB7) == 0) {;main.c: 24:             writePin(PINC7, 1
      +                          );
  3722  049D  01FB               	clrf	initMoles@i
  3723  049E  01FC               	clrf	initMoles@i+1
  3724  049F                     l1452:	
  3725                           
  3726                           ;main.c: 25:         } else {
  3727  049F  087B               	movf	initMoles@i,w
  3728  04A0  00F7               	movwf	??_initMoles
  3729  04A1  3003               	movlw	3
  3730  04A2  00F8               	movwf	??_initMoles+1
  3731  04A3  0878               	movf	??_initMoles+1,w
  3732  04A4  00F0               	movwf	___bmul@multiplicand
  3733  04A5  087B               	movf	initMoles@i,w
  3734  04A6  3185  2530  3184   	fcall	___bmul
  3735  04A9  3EB1               	addlw	(low (_moles| 0))& (0+255)
  3736  04AA  0086               	movwf	6
  3737  04AB  0187               	clrf	7
  3738  04AC  0877               	movf	??_initMoles,w
  3739  04AD  0081               	movwf	1
  3740                           
  3741                           ;main.c: 26:             writePin(PINC7, 0);
  3742  04AE  087B               	movf	initMoles@i,w
  3743  04AF  077A               	addwf	initMoles@input,w
  3744  04B0  00F7               	movwf	??_initMoles
  3745  04B1  0877               	movf	??_initMoles,w
  3746  04B2  0086               	movwf	6
  3747  04B3  0187               	clrf	7
  3748  04B4  0801               	movf	1,w
  3749  04B5  00F8               	movwf	??_initMoles+1
  3750  04B6  3003               	movlw	3
  3751  04B7  00F9               	movwf	??_initMoles+2
  3752  04B8  0879               	movf	??_initMoles+2,w
  3753  04B9  00F0               	movwf	___bmul@multiplicand
  3754  04BA  087B               	movf	initMoles@i,w
  3755  04BB  3185  2530  3184   	fcall	___bmul
  3756  04BE  3EB2               	addlw	(low ((_moles| 0+1)))& (0+255)
  3757  04BF  0086               	movwf	6
  3758  04C0  0187               	clrf	7
  3759  04C1  0878               	movf	??_initMoles+1,w
  3760  04C2  0081               	movwf	1
  3761                           
  3762                           ;main.c: 27:         }
  3763  04C3  087B               	movf	initMoles@i,w
  3764  04C4  0774               	addwf	initMoles@output,w
  3765  04C5  00F7               	movwf	??_initMoles
  3766  04C6  0877               	movf	??_initMoles,w
  3767  04C7  0086               	movwf	6
  3768  04C8  0187               	clrf	7
  3769  04C9  0801               	movf	1,w
  3770  04CA  00F8               	movwf	??_initMoles+1
  3771  04CB  3003               	movlw	3
  3772  04CC  00F9               	movwf	??_initMoles+2
  3773  04CD  0879               	movf	??_initMoles+2,w
  3774  04CE  00F0               	movwf	___bmul@multiplicand
  3775  04CF  087B               	movf	initMoles@i,w
  3776  04D0  3185  2530  3184   	fcall	___bmul
  3777  04D3  3EB3               	addlw	(low ((_moles| 0+2)))& (0+255)
  3778  04D4  0086               	movwf	6
  3779  04D5  0187               	clrf	7
  3780  04D6  0878               	movf	??_initMoles+1,w
  3781  04D7  0081               	movwf	1
  3782                           
  3783                           ;main.c: 28:     }
  3784  04D8  3001               	movlw	1
  3785  04D9  07FB               	addwf	initMoles@i,f
  3786  04DA  3000               	movlw	0
  3787  04DB  3DFC               	addwfc	initMoles@i+1,f
  3788  04DC  087C               	movf	initMoles@i+1,w
  3789  04DD  3A80               	xorlw	128
  3790  04DE  00F7               	movwf	??_initMoles
  3791  04DF  3080               	movlw	128
  3792  04E0  0277               	subwf	??_initMoles,w
  3793  04E1  1D03               	skipz
  3794  04E2  2CE5               	goto	u605
  3795  04E3  3005               	movlw	5
  3796  04E4  027B               	subwf	initMoles@i,w
  3797  04E5                     u605:	
  3798  04E5  1803               	btfsc	3,0
  3799  04E6  0008               	return
  3800  04E7  2C9F               	goto	l1452
  3801  04E8                     __end_of_initMoles:	
  3802                           
  3803                           	psect	text8
  3804  0530                     __ptext8:	
  3805 ;; *************** function ___bmul *****************
  3806 ;; Defined at:
  3807 ;;		line 4 in file "C:\Program Files (x86)\Microchip\xc8\v2.05\pic\sources\c99\common\Umul8.c"
  3808 ;; Parameters:    Size  Location     Type
  3809 ;;  multiplier      1    wreg     unsigned char 
  3810 ;;  multiplicand    1    0[COMMON] unsigned char 
  3811 ;; Auto vars:     Size  Location     Type
  3812 ;;  multiplier      1    3[COMMON] unsigned char 
  3813 ;;  product         1    2[COMMON] unsigned char 
  3814 ;; Return value:  Size  Location     Type
  3815 ;;                  1    wreg      unsigned char 
  3816 ;; Registers used:
  3817 ;;		wreg, status,2, status,0
  3818 ;; Tracked objects:
  3819 ;;		On entry : 0/0
  3820 ;;		On exit  : 0/0
  3821 ;;		Unchanged: 0/0
  3822 ;; Data sizes:     COMMON   BANK0   BANK1   BANK2   BANK3   BANK4   BANK5   BANK6   BANK7   BANK8   BANK9  BANK10  BANK1
      +1  BANK12  BANK13  BANK14  BANK15  BANK16  BANK17  BANK18  BANK19  BANK20  BANK21  BANK22  BANK23  BANK24  BANK25
  3823 ;;      Params:         1       0       0       0       0       0       0       0       0       0       0       0       
      +0       0       0       0       0       0       0       0       0       0       0       0       0       0       0
  3824 ;;      Locals:         2       0       0       0       0       0       0       0       0       0       0       0       
      +0       0       0       0       0       0       0       0       0       0       0       0       0       0       0
  3825 ;;      Temps:          1       0       0       0       0       0       0       0       0       0       0       0       
      +0       0       0       0       0       0       0       0       0       0       0       0       0       0       0
  3826 ;;      Totals:         4       0       0       0       0       0       0       0       0       0       0       0       
      +0       0       0       0       0       0       0       0       0       0       0       0       0       0       0
  3827 ;;Total ram usage:        4 bytes
  3828 ;; Hardware stack levels used:    1
  3829 ;; Hardware stack levels required when called:    1
  3830 ;; This function calls:
  3831 ;;		Nothing
  3832 ;; This function is called by:
  3833 ;;		_initMoles
  3834 ;; This function uses a non-reentrant model
  3835 ;;
  3836                           
  3837                           
  3838                           ;psect for function ___bmul
  3839  0530                     ___bmul:	
  3840                           
  3841                           ;incstack = 0
  3842                           ; Regs used in ___bmul: [wreg+status,2+status,0]
  3843                           ;___bmul@multiplier stored from wreg
  3844  0530  00F3               	movwf	___bmul@multiplier
  3845  0531  01F2               	clrf	___bmul@product
  3846  0532                     l1390:	
  3847  0532  1C73               	btfss	___bmul@multiplier,0
  3848  0533  2D38               	goto	l1394
  3849  0534  0870               	movf	___bmul@multiplicand,w
  3850  0535  00F1               	movwf	??___bmul
  3851  0536  0871               	movf	??___bmul,w
  3852  0537  07F2               	addwf	___bmul@product,f
  3853  0538                     l1394:	
  3854  0538  1003               	clrc
  3855  0539  0DF0               	rlf	___bmul@multiplicand,f
  3856  053A  1003               	clrc
  3857  053B  0CF3               	rrf	___bmul@multiplier,f
  3858  053C  0873               	movf	___bmul@multiplier,w
  3859  053D  1D03               	btfss	3,2
  3860  053E  2D32               	goto	l1390
  3861  053F  0872               	movf	___bmul@product,w
  3862  0540  0008               	return
  3863  0541                     __end_of___bmul:	
  3864                           
  3865                           	psect	text9
  3866  002E                     __ptext9:	
  3867 ;; *************** function _defineGPIODirection *****************
  3868 ;; Defined at:
  3869 ;;		line 18 in file "pins.c"
  3870 ;; Parameters:    Size  Location     Type
  3871 ;;  input           1    wreg     PTR enum E11183
  3872 ;;		 -> main@input(5), 
  3873 ;;  output          1    0[COMMON] PTR enum E11183
  3874 ;;		 -> main@output(5), 
  3875 ;;  inputLength     1    1[COMMON] unsigned char 
  3876 ;;  outputLength    1    2[COMMON] unsigned char 
  3877 ;; Auto vars:     Size  Location     Type
  3878 ;;  input           1    6[COMMON] PTR enum E11183
  3879 ;;		 -> main@input(5), 
  3880 ;;  i               1    7[COMMON] unsigned char 
  3881 ;; Return value:  Size  Location     Type
  3882 ;;                  1    wreg      void 
  3883 ;; Registers used:
  3884 ;;		wreg, fsr0l, fsr0h, fsr1l, fsr1h, status,2, status,0
  3885 ;; Tracked objects:
  3886 ;;		On entry : 0/0
  3887 ;;		On exit  : 0/0
  3888 ;;		Unchanged: 0/0
  3889 ;; Data sizes:     COMMON   BANK0   BANK1   BANK2   BANK3   BANK4   BANK5   BANK6   BANK7   BANK8   BANK9  BANK10  BANK1
      +1  BANK12  BANK13  BANK14  BANK15  BANK16  BANK17  BANK18  BANK19  BANK20  BANK21  BANK22  BANK23  BANK24  BANK25
  3890 ;;      Params:         3       0       0       0       0       0       0       0       0       0       0       0       
      +0       0       0       0       0       0       0       0       0       0       0       0       0       0       0
  3891 ;;      Locals:         2       0       0       0       0       0       0       0       0       0       0       0       
      +0       0       0       0       0       0       0       0       0       0       0       0       0       0       0
  3892 ;;      Temps:          3       0       0       0       0       0       0       0       0       0       0       0       
      +0       0       0       0       0       0       0       0       0       0       0       0       0       0       0
  3893 ;;      Totals:         8       0       0       0       0       0       0       0       0       0       0       0       
      +0       0       0       0       0       0       0       0       0       0       0       0       0       0       0
  3894 ;;Total ram usage:        8 bytes
  3895 ;; Hardware stack levels used:    1
  3896 ;; Hardware stack levels required when called:    1
  3897 ;; This function calls:
  3898 ;;		Nothing
  3899 ;; This function is called by:
  3900 ;;		_main
  3901 ;; This function uses a non-reentrant model
  3902 ;;
  3903                           
  3904                           
  3905                           ;psect for function _defineGPIODirection
  3906  002E                     _defineGPIODirection:	
  3907                           
  3908                           ;incstack = 0
  3909                           ; Regs used in _defineGPIODirection: [wreg-fsr1h+status,2+status,0]
  3910                           ;defineGPIODirection@input stored from wreg
  3911  002E  00F6               	movwf	defineGPIODirection@input
  3912                           
  3913                           ;pins.c: 19:     uint8_t i;;pins.c: 20:     for(i = 0; i < inputLength; i++) {
  3914  002F  01F7               	clrf	defineGPIODirection@i
  3915  0030  289A               	goto	l1484
  3916  0031                     l75:	
  3917                           ;pins.c: 22:             case PINA0 :
  3918                           
  3919                           
  3920                           ;pins.c: 23:                 TRISAbits.TRISA0 = 1;
  3921  0031  0140               	movlb	0	; select bank0
  3922  0032  1412               	bsf	18,0	;volatile
  3923                           
  3924                           ;pins.c: 24:                 ANSELAbits.ANSA0 = 0;
  3925  0033  017E               	movlb	62	; select bank62
  3926  0034  1038               	bcf	56,0	;volatile
  3927                           
  3928                           ;pins.c: 25:                 WPUAbits.WPUA0 = 1;
  3929  0035  1439               	bsf	57,0	;volatile
  3930                           
  3931                           ;pins.c: 26:                 break;
  3932  0036  2896               	goto	l1482
  3933  0037                     l77:	
  3934                           ;pins.c: 27:             case PINA1 :
  3935                           
  3936                           
  3937                           ;pins.c: 28:                 TRISAbits.TRISA1 = 1;
  3938  0037  0140               	movlb	0	; select bank0
  3939  0038  1492               	bsf	18,1	;volatile
  3940                           
  3941                           ;pins.c: 29:                 ANSELAbits.ANSA1 = 0;
  3942  0039  017E               	movlb	62	; select bank62
  3943  003A  10B8               	bcf	56,1	;volatile
  3944                           
  3945                           ;pins.c: 30:                 WPUAbits.WPUA1 = 1;
  3946  003B  14B9               	bsf	57,1	;volatile
  3947                           
  3948                           ;pins.c: 31:                 break;
  3949  003C  2896               	goto	l1482
  3950  003D                     l78:	
  3951                           ;pins.c: 32:             case PINA2 :
  3952                           
  3953                           
  3954                           ;pins.c: 33:                 TRISAbits.TRISA2 = 1;
  3955  003D  0140               	movlb	0	; select bank0
  3956  003E  1512               	bsf	18,2	;volatile
  3957                           
  3958                           ;pins.c: 34:                 ANSELAbits.ANSA2 = 0;
  3959  003F  017E               	movlb	62	; select bank62
  3960  0040  1138               	bcf	56,2	;volatile
  3961                           
  3962                           ;pins.c: 35:                 WPUAbits.WPUA2 = 1;
  3963  0041  1539               	bsf	57,2	;volatile
  3964                           
  3965                           ;pins.c: 36:                 break;
  3966  0042  2896               	goto	l1482
  3967  0043                     l79:	
  3968                           ;pins.c: 37:             case PINA4 :
  3969                           
  3970                           
  3971                           ;pins.c: 38:                 TRISAbits.TRISA4 = 1;
  3972  0043  0140               	movlb	0	; select bank0
  3973  0044  1612               	bsf	18,4	;volatile
  3974                           
  3975                           ;pins.c: 39:                 ANSELAbits.ANSA4 = 0;
  3976  0045  017E               	movlb	62	; select bank62
  3977  0046  1238               	bcf	56,4	;volatile
  3978                           
  3979                           ;pins.c: 40:                 WPUAbits.WPUA4 = 1;
  3980  0047  1639               	bsf	57,4	;volatile
  3981                           
  3982                           ;pins.c: 41:                 break;
  3983  0048  2896               	goto	l1482
  3984  0049                     l80:	
  3985                           ;pins.c: 42:             case PINA5 :
  3986                           
  3987                           
  3988                           ;pins.c: 43:                 TRISAbits.TRISA5 = 1;
  3989  0049  0140               	movlb	0	; select bank0
  3990  004A  1692               	bsf	18,5	;volatile
  3991                           
  3992                           ;pins.c: 44:                 ANSELAbits.ANSA5 = 0;
  3993  004B  017E               	movlb	62	; select bank62
  3994  004C  12B8               	bcf	56,5	;volatile
  3995                           
  3996                           ;pins.c: 45:                 WPUAbits.WPUA5 = 1;
  3997  004D  16B9               	bsf	57,5	;volatile
  3998                           
  3999                           ;pins.c: 46:                 break;
  4000  004E  2896               	goto	l1482
  4001  004F                     l81:	
  4002                           ;pins.c: 47:             case PINB4 :
  4003                           
  4004                           
  4005                           ;pins.c: 48:                 TRISBbits.TRISB4 = 1;
  4006  004F  0140               	movlb	0	; select bank0
  4007  0050  1613               	bsf	19,4	;volatile
  4008                           
  4009                           ;pins.c: 49:                 ANSELBbits.ANSB4 = 0;
  4010  0051  017E               	movlb	62	; select bank62
  4011  0052  1243               	bcf	67,4	;volatile
  4012                           
  4013                           ;pins.c: 50:                 WPUBbits.WPUB4 = 1;
  4014  0053  1644               	bsf	68,4	;volatile
  4015                           
  4016                           ;pins.c: 51:                 break;
  4017  0054  2896               	goto	l1482
  4018  0055                     l82:	
  4019                           ;pins.c: 52:             case PINB5 :
  4020                           
  4021                           
  4022                           ;pins.c: 53:                 TRISBbits.TRISB5 = 1;
  4023  0055  0140               	movlb	0	; select bank0
  4024  0056  1693               	bsf	19,5	;volatile
  4025                           
  4026                           ;pins.c: 54:                 ANSELBbits.ANSB5 = 0;
  4027  0057  017E               	movlb	62	; select bank62
  4028  0058  12C3               	bcf	67,5	;volatile
  4029                           
  4030                           ;pins.c: 55:                 WPUBbits.WPUB5 = 1;
  4031  0059  16C4               	bsf	68,5	;volatile
  4032                           
  4033                           ;pins.c: 56:                 break;
  4034  005A  2896               	goto	l1482
  4035  005B                     l83:	
  4036                           ;pins.c: 57:             case PINB6 :
  4037                           
  4038                           
  4039                           ;pins.c: 58:                 TRISBbits.TRISB6 = 1;
  4040  005B  0140               	movlb	0	; select bank0
  4041  005C  1713               	bsf	19,6	;volatile
  4042                           
  4043                           ;pins.c: 59:                 ANSELBbits.ANSB6 = 0;
  4044  005D  017E               	movlb	62	; select bank62
  4045  005E  1343               	bcf	67,6	;volatile
  4046                           
  4047                           ;pins.c: 60:                 WPUBbits.WPUB6 = 1;
  4048  005F  1744               	bsf	68,6	;volatile
  4049                           
  4050                           ;pins.c: 61:                 break;
  4051  0060  2896               	goto	l1482
  4052  0061                     l84:	
  4053                           ;pins.c: 62:             case PINB7 :
  4054                           
  4055                           
  4056                           ;pins.c: 63:                 TRISBbits.TRISB7 = 1;
  4057  0061  0140               	movlb	0	; select bank0
  4058  0062  1793               	bsf	19,7	;volatile
  4059                           
  4060                           ;pins.c: 64:                 ANSELBbits.ANSB7 = 0;
  4061  0063  017E               	movlb	62	; select bank62
  4062  0064  13C3               	bcf	67,7	;volatile
  4063                           
  4064                           ;pins.c: 65:                 WPUBbits.WPUB7 = 1;
  4065  0065  17C4               	bsf	68,7	;volatile
  4066                           
  4067                           ;pins.c: 66:                 break;
  4068  0066  2896               	goto	l1482
  4069  0067                     l85:	
  4070                           ;pins.c: 67:             case PINC0 :
  4071                           
  4072                           
  4073                           ;pins.c: 68:                 TRISCbits.TRISC0 = 1;
  4074  0067  0140               	movlb	0	; select bank0
  4075  0068  1414               	bsf	20,0	;volatile
  4076                           
  4077                           ;pins.c: 69:                 ANSELCbits.ANSC0 = 0;
  4078  0069  017E               	movlb	62	; select bank62
  4079  006A  104E               	bcf	78,0	;volatile
  4080                           
  4081                           ;pins.c: 70:                 WPUCbits.WPUC0 = 1;
  4082  006B  144F               	bsf	79,0	;volatile
  4083                           
  4084                           ;pins.c: 71:                 break;
  4085  006C  2896               	goto	l1482
  4086  006D                     l86:	
  4087                           ;pins.c: 72:             case PINC1 :
  4088                           
  4089                           
  4090                           ;pins.c: 73:                 TRISCbits.TRISC1 = 1;
  4091  006D  0140               	movlb	0	; select bank0
  4092  006E  1494               	bsf	20,1	;volatile
  4093                           
  4094                           ;pins.c: 74:                 ANSELCbits.ANSC1 = 0;
  4095  006F  017E               	movlb	62	; select bank62
  4096  0070  10CE               	bcf	78,1	;volatile
  4097                           
  4098                           ;pins.c: 75:                 WPUCbits.WPUC1 = 1;
  4099  0071  14CF               	bsf	79,1	;volatile
  4100                           
  4101                           ;pins.c: 76:                 break;
  4102  0072  2896               	goto	l1482
  4103  0073                     l87:	
  4104                           ;pins.c: 77:             case PINC2 :
  4105                           
  4106                           
  4107                           ;pins.c: 78:                 TRISCbits.TRISC2 = 1;
  4108  0073  0140               	movlb	0	; select bank0
  4109  0074  1514               	bsf	20,2	;volatile
  4110                           
  4111                           ;pins.c: 79:                 ANSELCbits.ANSC2 = 0;
  4112  0075  017E               	movlb	62	; select bank62
  4113  0076  114E               	bcf	78,2	;volatile
  4114                           
  4115                           ;pins.c: 80:                 WPUCbits.WPUC2 = 1;
  4116  0077  154F               	bsf	79,2	;volatile
  4117                           
  4118                           ;pins.c: 81:                 break;
  4119  0078  2896               	goto	l1482
  4120  0079                     l88:	
  4121                           ;pins.c: 82:             case PINC3 :
  4122                           
  4123                           
  4124                           ;pins.c: 83:                 TRISCbits.TRISC3 = 1;
  4125  0079  0140               	movlb	0	; select bank0
  4126  007A  1594               	bsf	20,3	;volatile
  4127                           
  4128                           ;pins.c: 84:                 ANSELCbits.ANSC3 = 0;
  4129  007B  017E               	movlb	62	; select bank62
  4130  007C  11CE               	bcf	78,3	;volatile
  4131                           
  4132                           ;pins.c: 85:                 WPUCbits.WPUC3 = 1;
  4133  007D  15CF               	bsf	79,3	;volatile
  4134                           
  4135                           ;pins.c: 86:                 break;
  4136  007E  2896               	goto	l1482
  4137  007F                     l89:	
  4138                           ;pins.c: 87:             case PINC4 :
  4139                           
  4140                           
  4141                           ;pins.c: 88:                 TRISCbits.TRISC4 = 1;
  4142  007F  0140               	movlb	0	; select bank0
  4143  0080  1614               	bsf	20,4	;volatile
  4144                           
  4145                           ;pins.c: 89:                 ANSELCbits.ANSC4 = 0;
  4146  0081  017E               	movlb	62	; select bank62
  4147  0082  124E               	bcf	78,4	;volatile
  4148                           
  4149                           ;pins.c: 90:                 WPUCbits.WPUC4 = 1;
  4150  0083  164F               	bsf	79,4	;volatile
  4151                           
  4152                           ;pins.c: 91:                 break;
  4153  0084  2896               	goto	l1482
  4154  0085                     l90:	
  4155                           ;pins.c: 92:             case PINC5 :
  4156                           
  4157                           
  4158                           ;pins.c: 93:                 TRISCbits.TRISC5 = 1;
  4159  0085  0140               	movlb	0	; select bank0
  4160  0086  1694               	bsf	20,5	;volatile
  4161                           
  4162                           ;pins.c: 94:                 ANSELCbits.ANSC5 = 0;
  4163  0087  017E               	movlb	62	; select bank62
  4164  0088  12CE               	bcf	78,5	;volatile
  4165                           
  4166                           ;pins.c: 95:                 WPUCbits.WPUC5 = 1;
  4167  0089  16CF               	bsf	79,5	;volatile
  4168                           
  4169                           ;pins.c: 96:                 break;
  4170  008A  2896               	goto	l1482
  4171  008B                     l91:	
  4172                           ;pins.c: 97:             case PINC6 :
  4173                           
  4174                           
  4175                           ;pins.c: 98:                 TRISCbits.TRISC6 = 1;
  4176  008B  0140               	movlb	0	; select bank0
  4177  008C  1714               	bsf	20,6	;volatile
  4178                           
  4179                           ;pins.c: 99:                 ANSELCbits.ANSC6 = 0;
  4180  008D  017E               	movlb	62	; select bank62
  4181  008E  134E               	bcf	78,6	;volatile
  4182                           
  4183                           ;pins.c: 100:                 WPUCbits.WPUC6 = 1;
  4184  008F  174F               	bsf	79,6	;volatile
  4185                           
  4186                           ;pins.c: 101:                 break;
  4187  0090  2896               	goto	l1482
  4188  0091                     l92:	
  4189                           ;pins.c: 102:             case PINC7 :
  4190                           
  4191                           
  4192                           ;pins.c: 103:                 TRISCbits.TRISC7 = 1;
  4193  0091  0140               	movlb	0	; select bank0
  4194  0092  1794               	bsf	20,7	;volatile
  4195                           
  4196                           ;pins.c: 104:                 ANSELCbits.ANSC7 = 0;
  4197  0093  017E               	movlb	62	; select bank62
  4198  0094  13CE               	bcf	78,7	;volatile
  4199                           
  4200                           ;pins.c: 105:                 WPUCbits.WPUC7 = 1;
  4201  0095  17CF               	bsf	79,7	;volatile
  4202  0096                     l1482:	
  4203                           ;pins.c: 106:                 break;
  4204                           
  4205                           
  4206                           ;pins.c: 108:     }
  4207  0096  3001               	movlw	1
  4208  0097  00F3               	movwf	??_defineGPIODirection
  4209  0098  0873               	movf	??_defineGPIODirection,w
  4210  0099  07F7               	addwf	defineGPIODirection@i,f
  4211  009A                     l1484:	
  4212  009A  0871               	movf	defineGPIODirection@inputLength,w
  4213  009B  0277               	subwf	defineGPIODirection@i,w
  4214  009C  1803               	btfsc	3,0
  4215  009D  28E2               	goto	l1486
  4216  009E  0877               	movf	defineGPIODirection@i,w
  4217  009F  0776               	addwf	defineGPIODirection@input,w
  4218  00A0  00F3               	movwf	??_defineGPIODirection
  4219  00A1  0873               	movf	??_defineGPIODirection,w
  4220  00A2  0086               	movwf	6
  4221  00A3  0187               	clrf	7
  4222  00A4  0801               	movf	1,w
  4223  00A5  00F4               	movwf	??_defineGPIODirection+1
  4224  00A6  01F5               	clrf	??_defineGPIODirection+2
  4225                           
  4226                           ; Switch on 2 bytes has been partitioned into a top level switch of size 1, and 1 sub-sw
      +                          itches
  4227                           ; Switch size 1, requested type "simple"
  4228                           ; Number of cases is 1, Range of values is 0 to 0
  4229                           ; switch strategies available:
  4230                           ; Name         Instructions Cycles
  4231                           ; simple_byte            4     3 (average)
  4232                           ; direct_byte            8     6 (fixed)
  4233                           ; jumptable            260     6 (fixed)
  4234                           ;	Chosen strategy is simple_byte
  4235  00A7  0875               	movf	??_defineGPIODirection+2,w
  4236  00A8  3A00               	xorlw	0	; case 0
  4237  00A9  1903               	skipnz
  4238  00AA  28AC               	goto	l1884
  4239  00AB  2896               	goto	l1482
  4240  00AC                     l1884:	
  4241                           
  4242                           ; Switch size 1, requested type "simple"
  4243                           ; Number of cases is 17, Range of values is 0 to 16
  4244                           ; switch strategies available:
  4245                           ; Name         Instructions Cycles
  4246                           ; direct_byte           40     6 (fixed)
  4247                           ; simple_byte           52    27 (average)
  4248                           ; jumptable            260     6 (fixed)
  4249                           ;	Chosen strategy is simple_byte
  4250  00AC  0874               	movf	??_defineGPIODirection+1,w
  4251  00AD  3A00               	xorlw	0	; case 0
  4252  00AE  1903               	skipnz
  4253  00AF  2831               	goto	l75
  4254  00B0  3A01               	xorlw	1	; case 1
  4255  00B1  1903               	skipnz
  4256  00B2  2837               	goto	l77
  4257  00B3  3A03               	xorlw	3	; case 2
  4258  00B4  1903               	skipnz
  4259  00B5  283D               	goto	l78
  4260  00B6  3A01               	xorlw	1	; case 3
  4261  00B7  1903               	skipnz
  4262  00B8  2843               	goto	l79
  4263  00B9  3A07               	xorlw	7	; case 4
  4264  00BA  1903               	skipnz
  4265  00BB  2849               	goto	l80
  4266  00BC  3A01               	xorlw	1	; case 5
  4267  00BD  1903               	skipnz
  4268  00BE  284F               	goto	l81
  4269  00BF  3A03               	xorlw	3	; case 6
  4270  00C0  1903               	skipnz
  4271  00C1  2855               	goto	l82
  4272  00C2  3A01               	xorlw	1	; case 7
  4273  00C3  1903               	skipnz
  4274  00C4  285B               	goto	l83
  4275  00C5  3A0F               	xorlw	15	; case 8
  4276  00C6  1903               	skipnz
  4277  00C7  2861               	goto	l84
  4278  00C8  3A01               	xorlw	1	; case 9
  4279  00C9  1903               	skipnz
  4280  00CA  2867               	goto	l85
  4281  00CB  3A03               	xorlw	3	; case 10
  4282  00CC  1903               	skipnz
  4283  00CD  286D               	goto	l86
  4284  00CE  3A01               	xorlw	1	; case 11
  4285  00CF  1903               	skipnz
  4286  00D0  2873               	goto	l87
  4287  00D1  3A07               	xorlw	7	; case 12
  4288  00D2  1903               	skipnz
  4289  00D3  2879               	goto	l88
  4290  00D4  3A01               	xorlw	1	; case 13
  4291  00D5  1903               	skipnz
  4292  00D6  287F               	goto	l89
  4293  00D7  3A03               	xorlw	3	; case 14
  4294  00D8  1903               	skipnz
  4295  00D9  2885               	goto	l90
  4296  00DA  3A01               	xorlw	1	; case 15
  4297  00DB  1903               	skipnz
  4298  00DC  288B               	goto	l91
  4299  00DD  3A1F               	xorlw	31	; case 16
  4300  00DE  1903               	skipnz
  4301  00DF  2891               	goto	l92
  4302  00E0  2896               	goto	l1482
  4303  00E1  2896               	goto	l1482
  4304  00E2                     l1486:	
  4305                           
  4306                           ;pins.c: 110:     for(i = 0; i < outputLength; i++) {
  4307  00E2  01F7               	clrf	defineGPIODirection@i
  4308  00E3  291A               	goto	l1494
  4309  00E4                     l97:	
  4310                           ;pins.c: 112:             case PINA0 :
  4311                           
  4312                           
  4313                           ;pins.c: 113:                 TRISAbits.TRISA0 = 0;
  4314  00E4  0140               	movlb	0	; select bank0
  4315  00E5  1012               	bcf	18,0	;volatile
  4316                           
  4317                           ;pins.c: 114:                 break;
  4318  00E6  2916               	goto	l1492
  4319  00E7                     l99:	
  4320                           ;pins.c: 115:             case PINA1 :
  4321                           
  4322                           
  4323                           ;pins.c: 116:                 TRISAbits.TRISA1 = 0;
  4324  00E7  0140               	movlb	0	; select bank0
  4325  00E8  1092               	bcf	18,1	;volatile
  4326                           
  4327                           ;pins.c: 117:                 break;
  4328  00E9  2916               	goto	l1492
  4329  00EA                     l100:	
  4330                           ;pins.c: 118:             case PINA2 :
  4331                           
  4332                           
  4333                           ;pins.c: 119:                 TRISAbits.TRISA2 = 0;
  4334  00EA  0140               	movlb	0	; select bank0
  4335  00EB  1112               	bcf	18,2	;volatile
  4336                           
  4337                           ;pins.c: 120:                 break;
  4338  00EC  2916               	goto	l1492
  4339  00ED                     l101:	
  4340                           ;pins.c: 121:             case PINA4 :
  4341                           
  4342                           
  4343                           ;pins.c: 122:                 TRISAbits.TRISA4 = 0;
  4344  00ED  0140               	movlb	0	; select bank0
  4345  00EE  1212               	bcf	18,4	;volatile
  4346                           
  4347                           ;pins.c: 123:                 break;
  4348  00EF  2916               	goto	l1492
  4349  00F0                     l102:	
  4350                           ;pins.c: 124:             case PINA5 :
  4351                           
  4352                           
  4353                           ;pins.c: 125:                 TRISAbits.TRISA5 = 0;
  4354  00F0  0140               	movlb	0	; select bank0
  4355  00F1  1292               	bcf	18,5	;volatile
  4356                           
  4357                           ;pins.c: 126:                 break;
  4358  00F2  2916               	goto	l1492
  4359  00F3                     l103:	
  4360                           ;pins.c: 127:             case PINB4 :
  4361                           
  4362                           
  4363                           ;pins.c: 128:                 TRISBbits.TRISB4 = 0;
  4364  00F3  0140               	movlb	0	; select bank0
  4365  00F4  1213               	bcf	19,4	;volatile
  4366                           
  4367                           ;pins.c: 129:                 break;
  4368  00F5  2916               	goto	l1492
  4369  00F6                     l104:	
  4370                           ;pins.c: 130:             case PINB5 :
  4371                           
  4372                           
  4373                           ;pins.c: 131:                 TRISBbits.TRISB5 = 0;
  4374  00F6  0140               	movlb	0	; select bank0
  4375  00F7  1293               	bcf	19,5	;volatile
  4376                           
  4377                           ;pins.c: 132:                 break;
  4378  00F8  2916               	goto	l1492
  4379  00F9                     l105:	
  4380                           ;pins.c: 133:             case PINB6 :
  4381                           
  4382                           
  4383                           ;pins.c: 134:                 TRISBbits.TRISB6 = 0;
  4384  00F9  0140               	movlb	0	; select bank0
  4385  00FA  1313               	bcf	19,6	;volatile
  4386                           
  4387                           ;pins.c: 135:                 break;
  4388  00FB  2916               	goto	l1492
  4389  00FC                     l106:	
  4390                           ;pins.c: 136:             case PINB7 :
  4391                           
  4392                           
  4393                           ;pins.c: 137:                 TRISBbits.TRISB7 = 0;
  4394  00FC  0140               	movlb	0	; select bank0
  4395  00FD  1393               	bcf	19,7	;volatile
  4396                           
  4397                           ;pins.c: 138:                 break;
  4398  00FE  2916               	goto	l1492
  4399  00FF                     l107:	
  4400                           ;pins.c: 139:             case PINC0 :
  4401                           
  4402                           
  4403                           ;pins.c: 140:                 TRISCbits.TRISC0 = 0;
  4404  00FF  0140               	movlb	0	; select bank0
  4405  0100  1014               	bcf	20,0	;volatile
  4406                           
  4407                           ;pins.c: 141:                 break;
  4408  0101  2916               	goto	l1492
  4409  0102                     l108:	
  4410                           ;pins.c: 142:             case PINC1 :
  4411                           
  4412                           
  4413                           ;pins.c: 143:                 TRISCbits.TRISC1 = 0;
  4414  0102  0140               	movlb	0	; select bank0
  4415  0103  1094               	bcf	20,1	;volatile
  4416                           
  4417                           ;pins.c: 144:                 break;
  4418  0104  2916               	goto	l1492
  4419  0105                     l109:	
  4420                           ;pins.c: 145:             case PINC2 :
  4421                           
  4422                           
  4423                           ;pins.c: 146:                 TRISCbits.TRISC2 = 0;
  4424  0105  0140               	movlb	0	; select bank0
  4425  0106  1114               	bcf	20,2	;volatile
  4426                           
  4427                           ;pins.c: 147:                 break;
  4428  0107  2916               	goto	l1492
  4429  0108                     l110:	
  4430                           ;pins.c: 148:             case PINC3 :
  4431                           
  4432                           
  4433                           ;pins.c: 149:                 TRISCbits.TRISC3 = 0;
  4434  0108  0140               	movlb	0	; select bank0
  4435  0109  1194               	bcf	20,3	;volatile
  4436                           
  4437                           ;pins.c: 150:                 break;
  4438  010A  2916               	goto	l1492
  4439  010B                     l111:	
  4440                           ;pins.c: 151:             case PINC4 :
  4441                           
  4442                           
  4443                           ;pins.c: 152:                 TRISCbits.TRISC4 = 0;
  4444  010B  0140               	movlb	0	; select bank0
  4445  010C  1214               	bcf	20,4	;volatile
  4446                           
  4447                           ;pins.c: 153:                 break;
  4448  010D  2916               	goto	l1492
  4449  010E                     l112:	
  4450                           ;pins.c: 154:             case PINC5 :
  4451                           
  4452                           
  4453                           ;pins.c: 155:                 TRISCbits.TRISC5 = 0;
  4454  010E  0140               	movlb	0	; select bank0
  4455  010F  1294               	bcf	20,5	;volatile
  4456                           
  4457                           ;pins.c: 156:                 break;
  4458  0110  2916               	goto	l1492
  4459  0111                     l113:	
  4460                           ;pins.c: 157:             case PINC6 :
  4461                           
  4462                           
  4463                           ;pins.c: 158:                 TRISCbits.TRISC6 = 0;
  4464  0111  0140               	movlb	0	; select bank0
  4465  0112  1314               	bcf	20,6	;volatile
  4466                           
  4467                           ;pins.c: 159:                 break;
  4468  0113  2916               	goto	l1492
  4469  0114                     l114:	
  4470                           ;pins.c: 160:             case PINC7 :
  4471                           
  4472                           
  4473                           ;pins.c: 161:                 TRISCbits.TRISC7 = 0;
  4474  0114  0140               	movlb	0	; select bank0
  4475  0115  1394               	bcf	20,7	;volatile
  4476  0116                     l1492:	
  4477                           ;pins.c: 162:                 break;
  4478                           
  4479                           
  4480                           ;pins.c: 164:     }
  4481  0116  3001               	movlw	1
  4482  0117  00F3               	movwf	??_defineGPIODirection
  4483  0118  0873               	movf	??_defineGPIODirection,w
  4484  0119  07F7               	addwf	defineGPIODirection@i,f
  4485  011A                     l1494:	
  4486  011A  0872               	movf	defineGPIODirection@outputLength,w
  4487  011B  0277               	subwf	defineGPIODirection@i,w
  4488  011C  1803               	btfsc	3,0
  4489  011D  0008               	return
  4490  011E  0877               	movf	defineGPIODirection@i,w
  4491  011F  0770               	addwf	defineGPIODirection@output,w
  4492  0120  00F3               	movwf	??_defineGPIODirection
  4493  0121  0873               	movf	??_defineGPIODirection,w
  4494  0122  0086               	movwf	6
  4495  0123  0187               	clrf	7
  4496  0124  0801               	movf	1,w
  4497  0125  00F4               	movwf	??_defineGPIODirection+1
  4498  0126  01F5               	clrf	??_defineGPIODirection+2
  4499                           
  4500                           ; Switch on 2 bytes has been partitioned into a top level switch of size 1, and 1 sub-sw
      +                          itches
  4501                           ; Switch size 1, requested type "simple"
  4502                           ; Number of cases is 1, Range of values is 0 to 0
  4503                           ; switch strategies available:
  4504                           ; Name         Instructions Cycles
  4505                           ; simple_byte            4     3 (average)
  4506                           ; direct_byte            8     6 (fixed)
  4507                           ; jumptable            260     6 (fixed)
  4508                           ;	Chosen strategy is simple_byte
  4509  0127  0875               	movf	??_defineGPIODirection+2,w
  4510  0128  3A00               	xorlw	0	; case 0
  4511  0129  1903               	skipnz
  4512  012A  292C               	goto	l1886
  4513  012B  2916               	goto	l1492
  4514  012C                     l1886:	
  4515                           
  4516                           ; Switch size 1, requested type "simple"
  4517                           ; Number of cases is 17, Range of values is 0 to 16
  4518                           ; switch strategies available:
  4519                           ; Name         Instructions Cycles
  4520                           ; direct_byte           40     6 (fixed)
  4521                           ; simple_byte           52    27 (average)
  4522                           ; jumptable            260     6 (fixed)
  4523                           ;	Chosen strategy is simple_byte
  4524  012C  0874               	movf	??_defineGPIODirection+1,w
  4525  012D  3A00               	xorlw	0	; case 0
  4526  012E  1903               	skipnz
  4527  012F  28E4               	goto	l97
  4528  0130  3A01               	xorlw	1	; case 1
  4529  0131  1903               	skipnz
  4530  0132  28E7               	goto	l99
  4531  0133  3A03               	xorlw	3	; case 2
  4532  0134  1903               	skipnz
  4533  0135  28EA               	goto	l100
  4534  0136  3A01               	xorlw	1	; case 3
  4535  0137  1903               	skipnz
  4536  0138  28ED               	goto	l101
  4537  0139  3A07               	xorlw	7	; case 4
  4538  013A  1903               	skipnz
  4539  013B  28F0               	goto	l102
  4540  013C  3A01               	xorlw	1	; case 5
  4541  013D  1903               	skipnz
  4542  013E  28F3               	goto	l103
  4543  013F  3A03               	xorlw	3	; case 6
  4544  0140  1903               	skipnz
  4545  0141  28F6               	goto	l104
  4546  0142  3A01               	xorlw	1	; case 7
  4547  0143  1903               	skipnz
  4548  0144  28F9               	goto	l105
  4549  0145  3A0F               	xorlw	15	; case 8
  4550  0146  1903               	skipnz
  4551  0147  28FC               	goto	l106
  4552  0148  3A01               	xorlw	1	; case 9
  4553  0149  1903               	skipnz
  4554  014A  28FF               	goto	l107
  4555  014B  3A03               	xorlw	3	; case 10
  4556  014C  1903               	skipnz
  4557  014D  2902               	goto	l108
  4558  014E  3A01               	xorlw	1	; case 11
  4559  014F  1903               	skipnz
  4560  0150  2905               	goto	l109
  4561  0151  3A07               	xorlw	7	; case 12
  4562  0152  1903               	skipnz
  4563  0153  2908               	goto	l110
  4564  0154  3A01               	xorlw	1	; case 13
  4565  0155  1903               	skipnz
  4566  0156  290B               	goto	l111
  4567  0157  3A03               	xorlw	3	; case 14
  4568  0158  1903               	skipnz
  4569  0159  290E               	goto	l112
  4570  015A  3A01               	xorlw	1	; case 15
  4571  015B  1903               	skipnz
  4572  015C  2911               	goto	l113
  4573  015D  3A1F               	xorlw	31	; case 16
  4574  015E  1903               	skipnz
  4575  015F  2914               	goto	l114
  4576  0160  2916               	goto	l1492
  4577  0161  2916               	goto	l1492
  4578  0162                     __end_of_defineGPIODirection:	
  4579                           
  4580                           	psect	intentry
  4581  0004                     __pintentry:	
  4582 ;; *************** function _timer0ISR *****************
  4583 ;; Defined at:
  4584 ;;		line 28 in file "timer0.c"
  4585 ;; Parameters:    Size  Location     Type
  4586 ;;		None
  4587 ;; Auto vars:     Size  Location     Type
  4588 ;;		None
  4589 ;; Return value:  Size  Location     Type
  4590 ;;                  1    wreg      void 
  4591 ;; Registers used:
  4592 ;;		wreg
  4593 ;; Tracked objects:
  4594 ;;		On entry : 0/0
  4595 ;;		On exit  : 0/0
  4596 ;;		Unchanged: 0/0
  4597 ;; Data sizes:     COMMON   BANK0   BANK1   BANK2   BANK3   BANK4   BANK5   BANK6   BANK7   BANK8   BANK9  BANK10  BANK1
      +1  BANK12  BANK13  BANK14  BANK15  BANK16  BANK17  BANK18  BANK19  BANK20  BANK21  BANK22  BANK23  BANK24  BANK25
  4598 ;;      Params:         0       0       0       0       0       0       0       0       0       0       0       0       
      +0       0       0       0       0       0       0       0       0       0       0       0       0       0       0
  4599 ;;      Locals:         0       0       0       0       0       0       0       0       0       0       0       0       
      +0       0       0       0       0       0       0       0       0       0       0       0       0       0       0
  4600 ;;      Temps:          0       0       0       0       0       0       0       0       0       0       0       0       
      +0       0       0       0       0       0       0       0       0       0       0       0       0       0       0
  4601 ;;      Totals:         0       0       0       0       0       0       0       0       0       0       0       0       
      +0       0       0       0       0       0       0       0       0       0       0       0       0       0       0
  4602 ;;Total ram usage:        0 bytes
  4603 ;; Hardware stack levels used:    1
  4604 ;; This function calls:
  4605 ;;		Nothing
  4606 ;; This function is called by:
  4607 ;;		Interrupt level 1
  4608 ;; This function uses a non-reentrant model
  4609 ;;
  4610                           
  4611  0004                     _timer0ISR:	
  4612                           
  4613                           ;incstack = 0
  4614  0004  147E               	bsf	126,0	;set compiler interrupt flag (level 1)
  4615                           
  4616                           ; Regs used in _timer0ISR: [wreg]
  4617  0005  3180               	pagesel	$
  4618                           
  4619                           ;timer0.c: 29:     time++;
  4620  0006  3001               	movlw	1
  4621  0007  0140               	movlb	0	; select bank0
  4622  0008  07DA               	addwf	_time,f
  4623  0009  3000               	movlw	0
  4624  000A  3DDB               	addwfc	_time+1,f
  4625  000B  107E               	bcf	126,0	;clear compiler interrupt flag (level 1)
  4626  000C  0009               	retfie
  4627  000D                     __end_of_timer0ISR:	
  4628  007E                     btemp	set	126	;btemp
  4629  007E                     int$flags	set	126
  4630  007E                     wtemp0	set	126


Data Sizes:
    Strings     0
    Constant    0
    Data        10
    BSS         42
    Persistent  32
    Stack       0

Auto Spaces:
    Space          Size  Autos    Used
    COMMON           14     13      13
    BANK0            80     58      78
    BANK1            80      0      32
    BANK2            80      0       0
    BANK3            80      0       0
    BANK4            80      0       0
    BANK5            80      0       0
    BANK6            80      0       0
    BANK7            80      0       0
    BANK8            80      0       0
    BANK9            80      0       0
    BANK10           80      0       0
    BANK11           80      0       0
    BANK12           80      0       0
    BANK13           80      0       0
    BANK14           80      0       0
    BANK15           80      0       0
    BANK16           80      0       0
    BANK17           80      0       0
    BANK18           80      0       0
    BANK19           80      0       0
    BANK20           80      0       0
    BANK21           80      0       0
    BANK22           80      0       0
    BANK23           80      0       0
    BANK24           80      0       0
    BANK25           32      0       0

Pointer List with Targets:

    shuffle@array	PTR enum E11183 size(1) Largest target is 5
		 -> main@output(BANK0[5]), main@input(BANK0[5]), 

    defineGPIODirection@output	PTR enum E11183 size(1) Largest target is 5
		 -> main@output(BANK0[5]), 

    defineGPIODirection@input	PTR enum E11183 size(1) Largest target is 5
		 -> main@input(BANK0[5]), 

    initMoles@output	PTR enum E11183 size(1) Largest target is 5
		 -> main@output(BANK0[5]), 

    initMoles@input	PTR enum E11183 size(1) Largest target is 5
		 -> main@input(BANK0[5]), 


Critical Paths under _main in COMMON

    _main->_initMoles
    _shuffle->___awdiv
    _rand->___omul
    ___awdiv->_rand
    _initMoles->___bmul

Critical Paths under _timer0ISR in COMMON

    None.

Critical Paths under _main in BANK0

    _main->_shuffle
    _shuffle->___awdiv
    _rand->___omul
    ___awdiv->_rand

Critical Paths under _timer0ISR in BANK0

    None.

Critical Paths under _main in BANK1

    None.

Critical Paths under _timer0ISR in BANK1

    None.

Critical Paths under _main in BANK2

    None.

Critical Paths under _timer0ISR in BANK2

    None.

Critical Paths under _main in BANK3

    None.

Critical Paths under _timer0ISR in BANK3

    None.

Critical Paths under _main in BANK4

    None.

Critical Paths under _timer0ISR in BANK4

    None.

Critical Paths under _main in BANK5

    None.

Critical Paths under _timer0ISR in BANK5

    None.

Critical Paths under _main in BANK6

    None.

Critical Paths under _timer0ISR in BANK6

    None.

Critical Paths under _main in BANK7

    None.

Critical Paths under _timer0ISR in BANK7

    None.

Critical Paths under _main in BANK8

    None.

Critical Paths under _timer0ISR in BANK8

    None.

Critical Paths under _main in BANK9

    None.

Critical Paths under _timer0ISR in BANK9

    None.

Critical Paths under _main in BANK10

    None.

Critical Paths under _timer0ISR in BANK10

    None.

Critical Paths under _main in BANK11

    None.

Critical Paths under _timer0ISR in BANK11

    None.

Critical Paths under _main in BANK12

    None.

Critical Paths under _timer0ISR in BANK12

    None.

Critical Paths under _main in BANK13

    None.

Critical Paths under _timer0ISR in BANK13

    None.

Critical Paths under _main in BANK14

    None.

Critical Paths under _timer0ISR in BANK14

    None.

Critical Paths under _main in BANK15

    None.

Critical Paths under _timer0ISR in BANK15

    None.

Critical Paths under _main in BANK16

    None.

Critical Paths under _timer0ISR in BANK16

    None.

Critical Paths under _main in BANK17

    None.

Critical Paths under _timer0ISR in BANK17

    None.

Critical Paths under _main in BANK18

    None.

Critical Paths under _timer0ISR in BANK18

    None.

Critical Paths under _main in BANK19

    None.

Critical Paths under _timer0ISR in BANK19

    None.

Critical Paths under _main in BANK20

    None.

Critical Paths under _timer0ISR in BANK20

    None.

Critical Paths under _main in BANK21

    None.

Critical Paths under _timer0ISR in BANK21

    None.

Critical Paths under _main in BANK22

    None.

Critical Paths under _timer0ISR in BANK22

    None.

Critical Paths under _main in BANK23

    None.

Critical Paths under _timer0ISR in BANK23

    None.

Critical Paths under _main in BANK24

    None.

Critical Paths under _timer0ISR in BANK24

    None.

Critical Paths under _main in BANK25

    None.

Critical Paths under _timer0ISR in BANK25

    None.

Call Graph Tables:

 ---------------------------------------------------------------------------------
 (Depth) Function   	        Calls       Base Space   Used Autos Params    Refs
 ---------------------------------------------------------------------------------
 (0) _main                                                13    13      0    3611
                                             45 BANK0     13    13      0
                _defineGPIODirection
                          _initMoles
                            _readPin
                            _shuffle
                           _writePin
 ---------------------------------------------------------------------------------
 (1) _writePin                                             4     3      1     922
                                              0 COMMON     4     3      1
 ---------------------------------------------------------------------------------
 (1) _shuffle                                             13    11      2    1423
                                             32 BANK0     13    11      2
                            ___awdiv
                               _rand
 ---------------------------------------------------------------------------------
 (2) _rand                                                10     8      2     244
                                              9 COMMON     2     0      2
                                             16 BANK0      8     8      0
                             ___omul
 ---------------------------------------------------------------------------------
 (3) ___omul                                              25     9     16     244
                                              0 COMMON     9     9      0
                                              0 BANK0     16     0     16
 ---------------------------------------------------------------------------------
 (2) ___awdiv                                              9     5      4     604
                                             11 COMMON     1     1      0
                                             24 BANK0      8     4      4
                               _rand (ARG)
 ---------------------------------------------------------------------------------
 (1) _readPin                                              3     3      0      22
                                              0 COMMON     3     3      0
 ---------------------------------------------------------------------------------
 (1) _initMoles                                            9     6      3     653
                                              4 COMMON     9     6      3
                             ___bmul
 ---------------------------------------------------------------------------------
 (2) ___bmul                                               4     3      1     170
                                              0 COMMON     4     3      1
 ---------------------------------------------------------------------------------
 (1) _defineGPIODirection                                  8     5      3     441
                                              0 COMMON     8     5      3
 ---------------------------------------------------------------------------------
 Estimated maximum stack depth 3
 ---------------------------------------------------------------------------------
 (Depth) Function   	        Calls       Base Space   Used Autos Params    Refs
 ---------------------------------------------------------------------------------
 (4) _timer0ISR                                            0     0      0       0
 ---------------------------------------------------------------------------------
 Estimated maximum stack depth 4
 ---------------------------------------------------------------------------------

 Call Graph Graphs:

 _main (ROOT)
   _defineGPIODirection
   _initMoles
     ___bmul
   _readPin
   _shuffle
     ___awdiv
       _rand (ARG)
         ___omul
     _rand
       ___omul
   _writePin

 _timer0ISR (ROOT)

 Address spaces:
Name               Size   Autos  Total    Cost      Usage
BIGRAM             7F0      0       0       0        0.0%
EEDATA             100      0       0       0        0.0%
NULL                 0      0       0       0        0.0%
CODE                 0      0       0       0        0.0%
BITCOMMON            E      0       0       1        0.0%
BITSFR0              0      0       0       1        0.0%
SFR0                 0      0       0       1        0.0%
COMMON               E      D       D       2       92.9%
BITSFR1              0      0       0       2        0.0%
SFR1                 0      0       0       2        0.0%
BITSFR2              0      0       0       3        0.0%
SFR2                 0      0       0       3        0.0%
STACK                0      0       0       3        0.0%
BITBANK0            50      0       0       4        0.0%
BITSFR3              0      0       0       4        0.0%
SFR3                 0      0       0       4        0.0%
BANK0               50     3A      4E       5       97.5%
BITSFR4              0      0       0       5        0.0%
SFR4                 0      0       0       5        0.0%
BITSFR5              0      0       0       6        0.0%
SFR5                 0      0       0       6        0.0%
ABS                  0      0      7B       6        0.0%
BITBANK1            50      0       0       7        0.0%
BITSFR6              0      0       0       7        0.0%
SFR6                 0      0       0       7        0.0%
BANK1               50      0      20       8       40.0%
BITSFR7              0      0       0       8        0.0%
SFR7                 0      0       0       8        0.0%
BITBANK2            50      0       0       9        0.0%
BITSFR8              0      0       0       9        0.0%
SFR8                 0      0       0       9        0.0%
BANK2               50      0       0      10        0.0%
BITSFR9              0      0       0      10        0.0%
SFR9                 0      0       0      10        0.0%
BITBANK3            50      0       0      11        0.0%
BITSFR10             0      0       0      11        0.0%
SFR10                0      0       0      11        0.0%
BANK3               50      0       0      12        0.0%
BITSFR11             0      0       0      12        0.0%
SFR11                0      0       0      12        0.0%
BITBANK4            50      0       0      13        0.0%
BITSFR12             0      0       0      13        0.0%
SFR12                0      0       0      13        0.0%
BANK4               50      0       0      14        0.0%
BITSFR13             0      0       0      14        0.0%
SFR13                0      0       0      14        0.0%
BITBANK5            50      0       0      15        0.0%
BITSFR14             0      0       0      15        0.0%
SFR14                0      0       0      15        0.0%
BANK5               50      0       0      16        0.0%
BITSFR15             0      0       0      16        0.0%
SFR15                0      0       0      16        0.0%
BITBANK6            50      0       0      17        0.0%
BITSFR16             0      0       0      17        0.0%
SFR16                0      0       0      17        0.0%
BANK6               50      0       0      18        0.0%
BITSFR17             0      0       0      18        0.0%
SFR17                0      0       0      18        0.0%
BITBANK7            50      0       0      19        0.0%
BITSFR18             0      0       0      19        0.0%
SFR18                0      0       0      19        0.0%
BANK7               50      0       0      20        0.0%
BITSFR19             0      0       0      20        0.0%
SFR19                0      0       0      20        0.0%
BITBANK8            50      0       0      21        0.0%
BITSFR20             0      0       0      21        0.0%
SFR20                0      0       0      21        0.0%
BANK8               50      0       0      22        0.0%
BITSFR21             0      0       0      22        0.0%
SFR21                0      0       0      22        0.0%
BITBANK9            50      0       0      23        0.0%
BITSFR22             0      0       0      23        0.0%
SFR22                0      0       0      23        0.0%
BANK9               50      0       0      24        0.0%
BITSFR23             0      0       0      24        0.0%
SFR23                0      0       0      24        0.0%
BITBANK10           50      0       0      25        0.0%
BITSFR24             0      0       0      25        0.0%
SFR24                0      0       0      25        0.0%
BANK10              50      0       0      26        0.0%
BITSFR25             0      0       0      26        0.0%
SFR25                0      0       0      26        0.0%
BITBANK11           50      0       0      27        0.0%
BITSFR26             0      0       0      27        0.0%
SFR26                0      0       0      27        0.0%
BANK11              50      0       0      28        0.0%
BITSFR27             0      0       0      28        0.0%
SFR27                0      0       0      28        0.0%
BITBANK12           50      0       0      29        0.0%
BITSFR28             0      0       0      29        0.0%
SFR28                0      0       0      29        0.0%
BANK12              50      0       0      30        0.0%
BITSFR29             0      0       0      30        0.0%
SFR29                0      0       0      30        0.0%
BITBANK13           50      0       0      31        0.0%
BITSFR30             0      0       0      31        0.0%
SFR30                0      0       0      31        0.0%
BANK13              50      0       0      32        0.0%
BITSFR31             0      0       0      32        0.0%
SFR31                0      0       0      32        0.0%
BITBANK14           50      0       0      33        0.0%
BITSFR32             0      0       0      33        0.0%
SFR32                0      0       0      33        0.0%
BANK14              50      0       0      34        0.0%
BITSFR33             0      0       0      34        0.0%
SFR33                0      0       0      34        0.0%
BITBANK15           50      0       0      35        0.0%
BITSFR34             0      0       0      35        0.0%
SFR34                0      0       0      35        0.0%
BANK15              50      0       0      36        0.0%
BITSFR35             0      0       0      36        0.0%
SFR35                0      0       0      36        0.0%
BITBANK16           50      0       0      37        0.0%
BITSFR36             0      0       0      37        0.0%
SFR36                0      0       0      37        0.0%
BANK16              50      0       0      38        0.0%
BITSFR37             0      0       0      38        0.0%
SFR37                0      0       0      38        0.0%
BITBANK17           50      0       0      39        0.0%
BITSFR38             0      0       0      39        0.0%
SFR38                0      0       0      39        0.0%
BANK17              50      0       0      40        0.0%
BITSFR39             0      0       0      40        0.0%
SFR39                0      0       0      40        0.0%
BITBANK18           50      0       0      41        0.0%
BITSFR40             0      0       0      41        0.0%
SFR40                0      0       0      41        0.0%
BANK18              50      0       0      42        0.0%
BITSFR41             0      0       0      42        0.0%
SFR41                0      0       0      42        0.0%
BITBANK19           50      0       0      43        0.0%
BITSFR42             0      0       0      43        0.0%
SFR42                0      0       0      43        0.0%
BANK19              50      0       0      44        0.0%
BITSFR43             0      0       0      44        0.0%
SFR43                0      0       0      44        0.0%
BITBANK20           50      0       0      45        0.0%
BITSFR44             0      0       0      45        0.0%
SFR44                0      0       0      45        0.0%
BANK20              50      0       0      46        0.0%
BITSFR45             0      0       0      46        0.0%
SFR45                0      0       0      46        0.0%
BITBANK21           50      0       0      47        0.0%
BITSFR46             0      0       0      47        0.0%
SFR46                0      0       0      47        0.0%
BANK21              50      0       0      48        0.0%
BITSFR47             0      0       0      48        0.0%
SFR47                0      0       0      48        0.0%
BITBANK22           50      0       0      49        0.0%
BITSFR48             0      0       0      49        0.0%
SFR48                0      0       0      49        0.0%
BANK22              50      0       0      50        0.0%
BITSFR49             0      0       0      50        0.0%
SFR49                0      0       0      50        0.0%
BITBANK23           50      0       0      51        0.0%
BITSFR50             0      0       0      51        0.0%
SFR50                0      0       0      51        0.0%
BANK23              50      0       0      52        0.0%
BITSFR51             0      0       0      52        0.0%
SFR51                0      0       0      52        0.0%
BITBANK24           50      0       0      53        0.0%
BITSFR52             0      0       0      53        0.0%
SFR52                0      0       0      53        0.0%
BANK24              50      0       0      54        0.0%
BITSFR53             0      0       0      54        0.0%
SFR53                0      0       0      54        0.0%
BITBANK25           20      0       0      55        0.0%
BITSFR54             0      0       0      55        0.0%
SFR54                0      0       0      55        0.0%
BANK25              20      0       0      56        0.0%
BITSFR55             0      0       0      56        0.0%
SFR55                0      0       0      56        0.0%
BITSFR56             0      0       0      57        0.0%
SFR56                0      0       0      57        0.0%
DATA                 0      0      7B      57        0.0%
BITSFR57             0      0       0      58        0.0%
SFR57                0      0       0      58        0.0%
BITSFR58             0      0       0      59        0.0%
SFR58                0      0       0      59        0.0%
BITSFR59             0      0       0      60        0.0%
SFR59                0      0       0      60        0.0%
BITSFR60             0      0       0      61        0.0%
SFR60                0      0       0      61        0.0%
BITSFR61             0      0       0      62        0.0%
SFR61                0      0       0      62        0.0%
BITSFR62             0      0       0      63        0.0%
SFR62                0      0       0      63        0.0%
BITSFR63             0      0       0      64        0.0%
SFR63                0      0       0      64        0.0%


Microchip Technology PIC Macro Assembler V2.05 build -831301201 
Symbol Table                                                                                   Mon Mar 30 12:09:39 2020

                   shuffle@array 004A                   ___bmul@product 0072                               l80 0049  
                             l81 004F                               l90 0085                               l82 0055  
                             l91 008B                               l83 005B                               l75 0031  
                             l92 0091                               l84 0061                               l85 0067  
                             l77 0037                               l86 006D                               l78 003D  
                             l87 0073                               l79 0043                               l88 0079  
                             l97 00E4                               l89 007F                               l99 00E7  
                   ___awdiv@sign 003D                              l100 00EA                              l101 00ED  
                            l110 0108                              l102 00F0                              l111 010B  
                            l103 00F3                              l112 010E                              l104 00F6  
                            l120 0270                              l113 0111                              l105 00F9  
                            l114 0114                              l106 00FC                              l130 027F  
                            l122 02F4                              l107 00FF                              l108 0102  
                            l124 0277                              l109 0105                              l133 0283  
                            l142 028F                              l151 029B                              l127 027B  
                            l160 02A7                              l136 0287                              l145 0293  
                            l154 029F                              l163 02AB                              l139 028B  
                            l148 0297                              l157 02A3                              l166 02AF  
                            l169 02B3                              l194 026D                              u440 04EF  
                            u605 04E5                              u535 046B                              u615 037F  
                            u625 0394                              u555 0475                              u475 0363  
                            u820 03F5                              u565 047F                              u830 0403  
                            u575 0487                              wreg 0009                             l1410 0455  
                           l1512 0275                             l1416 0460                             l1506 0273  
                           l1442 0497                             l1434 0486                             l1426 0468  
                           l1452 049F                             l1428 0474                             l1390 0532  
                           l1438 048F                             l1374 04F2                             l1710 01AC  
                           l1702 0194                             l1482 0096                             l1394 0538  
                           l1378 0505                             l1474 0384                             l1730 01E8  
                           l1722 01D0                             l1714 01B8                             l1706 01A0  
                           l1492 0116                             l1484 009A                             l1494 011A  
                           l1486 00E2                             l1750 0224                             l1742 020C  
                           l1734 01F4                             l1726 01DC                             l1718 01C4  
                           l1746 0218                             l1738 0200                             l1690 0170  
                           l1676 02B7                             l1756 0230                             l1772 0441  
                           l1694 017C                             l1686 0164                             l1774 043B  
                           l1880 0238                             l1882 02BF                             l1698 0188  
                           l1884 00AC                             l1886 012C            initMoles@outputLength 0076  
                           _main 03EA                             _rand 02F5                             _seed 005C  
                           _time 005A                             fsr0h 0005                             fsr1h 0007  
                           indf0 0000                             fsr0l 0004                             indf1 0001  
                           fsr1l 0006                             btemp 007E                             start 000D  
              ___bmul@multiplier 0073                            ?_main 0070                            ?_rand 0079  
                __end_of___awdiv 049C                    __CFG_WDTE$OFF 0000                  ___awdiv@divisor 0038  
                ___awdiv@counter 003C                            _TMR0H 059D   defineGPIODirection@inputLength 0071  
                __end_of_readPin 02F5                            _moles 00B1                  __end_of_shuffle 03EA  
                          status 0003                            wtemp0 007E                  __initialization 000F  
                   __end_of_main 044A                     __end_of_rand 0374                           ??_main 004D  
                         ??_rand 0030                 ___awdiv@dividend 003A                      readPin@read 0072  
                         ___bmul 0530                           ___omul 04E8                        ??___awdiv 007B  
               ___awdiv@quotient 003E                        ??_readPin 0070                        ??_shuffle 0042  
               __end_of_writePin 026E          __end_of__initialization 002A              ___bmul@multiplicand 0070  
                 __pcstackCOMMON 0070                     __pidataBANK0 0541                       __pbssBANK0 005A  
                     __pbssBANK1 00A0     __size_of_defineGPIODirection 0134               __size_of_initMoles 004C  
                     __pmaintext 03EA                          ?___bmul 0070                          ?___omul 0020  
                     __pintentry 0004              ___omul@multiplicand 0028               __size_of_timer0ISR 0009  
                __size_of___bmul 0011                          ___awdiv 044A                  __size_of___omul 0048  
                        __ptext1 0162                          __ptext2 0374                          __ptext3 02F5  
                        __ptext4 04E8                          __ptext5 044A                          __ptext6 026E  
                        __ptext7 049C                          __ptext8 0530                          __ptext9 002E  
                      ?_writePin 0070                __end_of_initMoles 04E8                          _readPin 026E  
                        _shuffle 0374                          clrloop0 0552             end_of_initialization 002A  
                 ___omul@product 0071                          init_ram 054B                __end_of_timer0ISR 000D  
                        initloop 054C                       main@F11241 0069                       main@F11243 0064  
                      _PORTAbits 000C                        _PORTBbits 000D                       ??_writePin 0071  
                      _PORTCbits 000E         defineGPIODirection@input 0076                   initMoles@input 007A  
                      _TRISAbits 0012                        _TRISBbits 0013                        _TRISCbits 0014  
                    shuffle@temp 0047                      shuffle@size 0040                       main@output 0055  
                 __end_of___bmul 0541                   __end_of___omul 0530  defineGPIODirection@outputLength 0072  
            _defineGPIODirection 002E              start_initialization 000F        defineGPIODirection@output 0070  
           ?_defineGPIODirection 0070                ___omul@multiplier 0020                       initMoles@i 007B  
                       ??___bmul 0071                         ??___omul 0070                      __pdataBANK0 0064  
                      ___latbits 0003                    __pcstackBANK0 0020            ??_defineGPIODirection 0073  
                       ?___awdiv 0038                         ?_readPin 0070                __size_of_writePin 010C  
                       ?_shuffle 0040                        _initMoles 049C                        _pinStates 00A0  
                       _LATAbits 0018                         _LATBbits 0019                         _LATCbits 001A  
                      clear_ram0 0551                         _PIE0bits 0716                        _timer0ISR 0004  
                       _WPUAbits 1F39                         _WPUBbits 1F44                         _WPUCbits 1F4F  
                      main@input 0050                       ?_initMoles 0074             defineGPIODirection@i 0077  
                     ?_timer0ISR 0070                 __size_of___awdiv 0052                       _ANSELAbits 1F38  
                     _ANSELBbits 1F43                       _ANSELCbits 1F4E                       _T0CON0bits 059E  
                     _T0CON1bits 059F                 __size_of_readPin 0087                 __size_of_shuffle 0076  
           initMoles@inputLength 0075                    __size_of_main 0060                    __size_of_rand 007F  
                       int$flags 007E                         _writePin 0162                       _INTCONbits 000B  
                    ??_initMoles 0077                         intlevel1 0000                     _shuffle$1261 0045  
                    ??_timer0ISR 0070                         shuffle@i 004B                         shuffle@j 0048  
    __end_of_defineGPIODirection 0162                    writePin@value 0070                    writePin@write 0073  
                initMoles@output 0074  
