

Microchip MPLAB XC8 Assembler V2.05 build -831301201 
                                                                                               Sat Mar 28 23:58:19 2020

Microchip MPLAB XC8 C Compiler v2.05 (Free license) build 20181220022703 Og1 
     1                           	processor	16F18446
     2                           	opt	pw 120
     3                           	opt	flic
     4                           	psect	idataCOMMON,global,class=CODE,delta=2
     5                           	psect	cinit,global,class=CODE,merge=1,delta=2
     6                           	psect	bssCOMMON,global,class=COMMON,space=1,delta=1
     7                           	psect	dataCOMMON,global,class=COMMON,space=1,delta=1
     8                           	psect	bssBANK0,global,class=BANK0,space=1,delta=1
     9                           	psect	clrtext,global,class=CODE,delta=2
    10                           	psect	cstackCOMMON,global,class=COMMON,space=1,delta=1
    11                           	psect	maintext,global,class=CODE,merge=1,split=1,delta=2
    12                           	psect	text1,local,class=CODE,merge=1,delta=2
    13                           	psect	text2,local,class=CODE,merge=1,delta=2
    14                           	psect	text3,local,class=CODE,merge=1,delta=2
    15                           	psect	text4,local,class=CODE,merge=1,delta=2
    16                           	psect	intentry,global,class=CODE,delta=2
    17                           	dabs	1,0x7E,2
    18  0000                     
    19                           ; Version 2.05
    20                           ; Generated 20/12/2018 GMT
    21                           ; 
    22                           ; Copyright © 2018, Microchip Technology Inc. and its subsidiaries ("Microchip")
    23                           ; All rights reserved.
    24                           ; 
    25                           ; This software is developed by Microchip Technology Inc. and its subsidiaries ("Microch
      +                          ip").
    26                           ; 
    27                           ; Redistribution and use in source and binary forms, with or without modification, are
    28                           ; permitted provided that the following conditions are met:
    29                           ; 
    30                           ;     1. Redistributions of source code must retain the above copyright notice, this lis
      +                          t of
    31                           ;        conditions and the following disclaimer.
    32                           ; 
    33                           ;     2. Redistributions in binary form must reproduce the above copyright notice, this 
      +                          list
    34                           ;        of conditions and the following disclaimer in the documentation and/or other
    35                           ;        materials provided with the distribution.
    36                           ; 
    37                           ;     3. Microchip's name may not be used to endorse or promote products derived from th
      +                          is
    38                           ;        software without specific prior written permission.
    39                           ; 
    40                           ; THIS SOFTWARE IS PROVIDED BY MICROCHIP "AS IS" AND ANY EXPRESS OR IMPLIED WARRANTIES,
    41                           ; INCLUDING, BUT NOT LIMITED TO, THE IMPLIED WARRANTIES OF MERCHANTABILITY AND FITNESS F
      +                          OR
    42                           ; PURPOSE ARE DISCLAIMED.  IN NO EVENT SHALL MICROCHIP BE LIABLE FOR ANY DIRECT, INDIREC
      +                          T,
    43                           ; INCIDENTAL, SPECIAL, EXEMPLARY, OR CONSEQUENTIAL DAMAGES (INCLUDING BUT NOT LIMITED TO
    44                           ; PROCUREMENT OF SUBSTITUTE GOODS OR SERVICES; LOSS OF USE, DATA OR PROFITS; OR BUSINESS
    45                           ; INTERRUPTION) HOWSOEVER CAUSED AND ON ANY THEORY OF LIABILITY, WHETHER IN CONTRACT, ST
      +                          RICT
    46                           ; LIABILITY, OR TORT (INCLUDING NEGLIGENCE OR OTHERWISE) ARISING IN ANY WAY OUT OF THE U
      +                          SE OF
    47                           ; THIS SOFTWARE, EVEN IF ADVISED OF THE POSSIBILITY OF SUCH DAMAGE.
    48                           ; 
    49                           ; 
    50                           ; Code-generator required, PIC16F18446 Definitions
    51                           ; 
    52                           ; SFR Addresses
    53  0000                     	;# 
    54  0001                     	;# 
    55  0002                     	;# 
    56  0003                     	;# 
    57  0004                     	;# 
    58  0005                     	;# 
    59  0006                     	;# 
    60  0007                     	;# 
    61  0008                     	;# 
    62  0009                     	;# 
    63  000A                     	;# 
    64  000B                     	;# 
    65  000C                     	;# 
    66  000D                     	;# 
    67  000E                     	;# 
    68  0012                     	;# 
    69  0013                     	;# 
    70  0014                     	;# 
    71  0018                     	;# 
    72  0019                     	;# 
    73  001A                     	;# 
    74  008C                     	;# 
    75  008C                     	;# 
    76  008D                     	;# 
    77  008E                     	;# 
    78  008E                     	;# 
    79  008F                     	;# 
    80  0090                     	;# 
    81  0090                     	;# 
    82  0091                     	;# 
    83  0092                     	;# 
    84  0092                     	;# 
    85  0093                     	;# 
    86  0094                     	;# 
    87  0094                     	;# 
    88  0095                     	;# 
    89  0096                     	;# 
    90  0096                     	;# 
    91  0097                     	;# 
    92  0098                     	;# 
    93  0099                     	;# 
    94  009A                     	;# 
    95  009B                     	;# 
    96  009B                     	;# 
    97  009C                     	;# 
    98  009D                     	;# 
    99  009D                     	;# 
   100  009E                     	;# 
   101  009F                     	;# 
   102  010C                     	;# 
   103  010C                     	;# 
   104  010D                     	;# 
   105  010E                     	;# 
   106  010F                     	;# 
   107  010F                     	;# 
   108  0110                     	;# 
   109  0111                     	;# 
   110  0112                     	;# 
   111  0113                     	;# 
   112  0114                     	;# 
   113  0115                     	;# 
   114  0116                     	;# 
   115  0117                     	;# 
   116  0118                     	;# 
   117  0119                     	;# 
   118  0119                     	;# 
   119  0119                     	;# 
   120  011A                     	;# 
   121  011A                     	;# 
   122  011A                     	;# 
   123  011B                     	;# 
   124  011B                     	;# 
   125  011B                     	;# 
   126  011B                     	;# 
   127  011B                     	;# 
   128  011C                     	;# 
   129  011C                     	;# 
   130  011C                     	;# 
   131  011D                     	;# 
   132  011D                     	;# 
   133  011D                     	;# 
   134  011E                     	;# 
   135  011E                     	;# 
   136  011E                     	;# 
   137  011F                     	;# 
   138  011F                     	;# 
   139  011F                     	;# 
   140  011F                     	;# 
   141  011F                     	;# 
   142  018C                     	;# 
   143  018D                     	;# 
   144  018E                     	;# 
   145  018F                     	;# 
   146  0190                     	;# 
   147  0191                     	;# 
   148  0192                     	;# 
   149  0196                     	;# 
   150  0197                     	;# 
   151  0198                     	;# 
   152  0199                     	;# 
   153  019A                     	;# 
   154  019B                     	;# 
   155  019C                     	;# 
   156  020C                     	;# 
   157  020D                     	;# 
   158  020E                     	;# 
   159  020E                     	;# 
   160  020F                     	;# 
   161  020F                     	;# 
   162  0210                     	;# 
   163  0210                     	;# 
   164  0211                     	;# 
   165  0211                     	;# 
   166  0212                     	;# 
   167  0213                     	;# 
   168  0214                     	;# 
   169  0214                     	;# 
   170  0215                     	;# 
   171  0215                     	;# 
   172  0216                     	;# 
   173  0216                     	;# 
   174  0217                     	;# 
   175  0217                     	;# 
   176  0218                     	;# 
   177  0219                     	;# 
   178  021A                     	;# 
   179  021A                     	;# 
   180  021B                     	;# 
   181  021B                     	;# 
   182  021C                     	;# 
   183  021C                     	;# 
   184  021D                     	;# 
   185  021D                     	;# 
   186  021E                     	;# 
   187  021F                     	;# 
   188  028C                     	;# 
   189  028C                     	;# 
   190  028D                     	;# 
   191  028D                     	;# 
   192  028E                     	;# 
   193  028F                     	;# 
   194  0290                     	;# 
   195  0291                     	;# 
   196  0292                     	;# 
   197  0292                     	;# 
   198  0293                     	;# 
   199  0293                     	;# 
   200  0294                     	;# 
   201  0295                     	;# 
   202  0296                     	;# 
   203  0297                     	;# 
   204  0298                     	;# 
   205  0298                     	;# 
   206  0299                     	;# 
   207  0299                     	;# 
   208  029A                     	;# 
   209  029B                     	;# 
   210  029C                     	;# 
   211  029D                     	;# 
   212  029F                     	;# 
   213  030C                     	;# 
   214  030C                     	;# 
   215  030D                     	;# 
   216  030E                     	;# 
   217  030F                     	;# 
   218  0310                     	;# 
   219  0310                     	;# 
   220  0311                     	;# 
   221  0312                     	;# 
   222  0313                     	;# 
   223  0314                     	;# 
   224  0314                     	;# 
   225  0315                     	;# 
   226  0316                     	;# 
   227  0317                     	;# 
   228  0318                     	;# 
   229  0318                     	;# 
   230  0319                     	;# 
   231  031A                     	;# 
   232  031B                     	;# 
   233  038C                     	;# 
   234  038C                     	;# 
   235  038D                     	;# 
   236  038E                     	;# 
   237  0390                     	;# 
   238  0390                     	;# 
   239  0391                     	;# 
   240  0392                     	;# 
   241  048C                     	;# 
   242  048C                     	;# 
   243  048D                     	;# 
   244  048E                     	;# 
   245  048F                     	;# 
   246  048F                     	;# 
   247  0490                     	;# 
   248  0491                     	;# 
   249  0492                     	;# 
   250  0492                     	;# 
   251  0493                     	;# 
   252  0494                     	;# 
   253  0495                     	;# 
   254  0495                     	;# 
   255  0496                     	;# 
   256  0497                     	;# 
   257  0498                     	;# 
   258  0499                     	;# 
   259  049A                     	;# 
   260  049B                     	;# 
   261  049C                     	;# 
   262  049D                     	;# 
   263  058C                     	;# 
   264  058C                     	;# 
   265  058D                     	;# 
   266  058E                     	;# 
   267  058F                     	;# 
   268  058F                     	;# 
   269  0590                     	;# 
   270  0591                     	;# 
   271  0592                     	;# 
   272  0593                     	;# 
   273  059C                     	;# 
   274  059C                     	;# 
   275  059D                     	;# 
   276  059D                     	;# 
   277  059E                     	;# 
   278  059F                     	;# 
   279  060C                     	;# 
   280  060C                     	;# 
   281  060D                     	;# 
   282  060D                     	;# 
   283  060E                     	;# 
   284  060F                     	;# 
   285  0610                     	;# 
   286  0611                     	;# 
   287  0612                     	;# 
   288  0613                     	;# 
   289  0614                     	;# 
   290  0616                     	;# 
   291  0616                     	;# 
   292  0617                     	;# 
   293  0617                     	;# 
   294  0618                     	;# 
   295  0619                     	;# 
   296  061A                     	;# 
   297  061B                     	;# 
   298  061C                     	;# 
   299  061D                     	;# 
   300  061E                     	;# 
   301  070C                     	;# 
   302  070D                     	;# 
   303  070E                     	;# 
   304  070F                     	;# 
   305  0710                     	;# 
   306  0711                     	;# 
   307  0712                     	;# 
   308  0713                     	;# 
   309  0714                     	;# 
   310  0716                     	;# 
   311  0717                     	;# 
   312  0718                     	;# 
   313  0719                     	;# 
   314  071A                     	;# 
   315  071B                     	;# 
   316  071C                     	;# 
   317  071D                     	;# 
   318  071E                     	;# 
   319  0796                     	;# 
   320  0797                     	;# 
   321  0798                     	;# 
   322  0799                     	;# 
   323  079A                     	;# 
   324  079B                     	;# 
   325  079C                     	;# 
   326  079D                     	;# 
   327  080C                     	;# 
   328  080D                     	;# 
   329  080E                     	;# 
   330  080F                     	;# 
   331  0810                     	;# 
   332  0811                     	;# 
   333  0812                     	;# 
   334  0813                     	;# 
   335  0814                     	;# 
   336  081A                     	;# 
   337  081A                     	;# 
   338  081B                     	;# 
   339  081C                     	;# 
   340  081C                     	;# 
   341  081D                     	;# 
   342  081E                     	;# 
   343  081F                     	;# 
   344  088C                     	;# 
   345  088D                     	;# 
   346  088E                     	;# 
   347  088F                     	;# 
   348  0890                     	;# 
   349  0891                     	;# 
   350  0892                     	;# 
   351  0893                     	;# 
   352  0895                     	;# 
   353  0896                     	;# 
   354  0897                     	;# 
   355  0898                     	;# 
   356  0899                     	;# 
   357  089A                     	;# 
   358  089B                     	;# 
   359  090C                     	;# 
   360  090E                     	;# 
   361  090F                     	;# 
   362  091F                     	;# 
   363  098F                     	;# 
   364  098F                     	;# 
   365  0990                     	;# 
   366  0991                     	;# 
   367  0992                     	;# 
   368  0993                     	;# 
   369  0994                     	;# 
   370  0995                     	;# 
   371  0996                     	;# 
   372  0997                     	;# 
   373  1E0F                     	;# 
   374  1E10                     	;# 
   375  1E11                     	;# 
   376  1E12                     	;# 
   377  1E13                     	;# 
   378  1E14                     	;# 
   379  1E15                     	;# 
   380  1E16                     	;# 
   381  1E17                     	;# 
   382  1E18                     	;# 
   383  1E19                     	;# 
   384  1E1A                     	;# 
   385  1E1B                     	;# 
   386  1E1C                     	;# 
   387  1E1D                     	;# 
   388  1E1E                     	;# 
   389  1E1F                     	;# 
   390  1E20                     	;# 
   391  1E21                     	;# 
   392  1E22                     	;# 
   393  1E23                     	;# 
   394  1E24                     	;# 
   395  1E25                     	;# 
   396  1E26                     	;# 
   397  1E27                     	;# 
   398  1E28                     	;# 
   399  1E29                     	;# 
   400  1E2A                     	;# 
   401  1E2B                     	;# 
   402  1E2C                     	;# 
   403  1E2D                     	;# 
   404  1E2E                     	;# 
   405  1E2F                     	;# 
   406  1E30                     	;# 
   407  1E31                     	;# 
   408  1E32                     	;# 
   409  1E33                     	;# 
   410  1E34                     	;# 
   411  1E35                     	;# 
   412  1E36                     	;# 
   413  1E37                     	;# 
   414  1E8F                     	;# 
   415  1E90                     	;# 
   416  1E91                     	;# 
   417  1E92                     	;# 
   418  1E93                     	;# 
   419  1E94                     	;# 
   420  1E95                     	;# 
   421  1E96                     	;# 
   422  1E97                     	;# 
   423  1E9C                     	;# 
   424  1E9D                     	;# 
   425  1E9E                     	;# 
   426  1EA1                     	;# 
   427  1EA2                     	;# 
   428  1EA3                     	;# 
   429  1EA4                     	;# 
   430  1EA9                     	;# 
   431  1EAA                     	;# 
   432  1EB1                     	;# 
   433  1EB2                     	;# 
   434  1EB8                     	;# 
   435  1EB9                     	;# 
   436  1EBA                     	;# 
   437  1EBB                     	;# 
   438  1EBC                     	;# 
   439  1EBD                     	;# 
   440  1EBE                     	;# 
   441  1EC3                     	;# 
   442  1EC5                     	;# 
   443  1EC6                     	;# 
   444  1EC7                     	;# 
   445  1EC8                     	;# 
   446  1EC9                     	;# 
   447  1ECA                     	;# 
   448  1ECB                     	;# 
   449  1ECB                     	;# 
   450  1ECB                     	;# 
   451  1ECC                     	;# 
   452  1ECC                     	;# 
   453  1ECC                     	;# 
   454  1F10                     	;# 
   455  1F11                     	;# 
   456  1F12                     	;# 
   457  1F14                     	;# 
   458  1F15                     	;# 
   459  1F1C                     	;# 
   460  1F1D                     	;# 
   461  1F1E                     	;# 
   462  1F1F                     	;# 
   463  1F20                     	;# 
   464  1F21                     	;# 
   465  1F22                     	;# 
   466  1F23                     	;# 
   467  1F24                     	;# 
   468  1F25                     	;# 
   469  1F26                     	;# 
   470  1F27                     	;# 
   471  1F38                     	;# 
   472  1F39                     	;# 
   473  1F3A                     	;# 
   474  1F3B                     	;# 
   475  1F3C                     	;# 
   476  1F3D                     	;# 
   477  1F3E                     	;# 
   478  1F3F                     	;# 
   479  1F43                     	;# 
   480  1F44                     	;# 
   481  1F45                     	;# 
   482  1F46                     	;# 
   483  1F47                     	;# 
   484  1F48                     	;# 
   485  1F49                     	;# 
   486  1F4A                     	;# 
   487  1F4E                     	;# 
   488  1F4F                     	;# 
   489  1F50                     	;# 
   490  1F51                     	;# 
   491  1F52                     	;# 
   492  1F53                     	;# 
   493  1F54                     	;# 
   494  1F55                     	;# 
   495  1FE4                     	;# 
   496  1FE5                     	;# 
   497  1FE6                     	;# 
   498  1FE7                     	;# 
   499  1FE8                     	;# 
   500  1FE8                     	;# 
   501  1FE9                     	;# 
   502  1FEA                     	;# 
   503  1FEB                     	;# 
   504  1FED                     	;# 
   505  1FEE                     	;# 
   506  1FEF                     	;# 
   507  0000                     	;# 
   508  0001                     	;# 
   509  0002                     	;# 
   510  0003                     	;# 
   511  0004                     	;# 
   512  0005                     	;# 
   513  0006                     	;# 
   514  0007                     	;# 
   515  0008                     	;# 
   516  0009                     	;# 
   517  000A                     	;# 
   518  000B                     	;# 
   519  000C                     	;# 
   520  000D                     	;# 
   521  000E                     	;# 
   522  0012                     	;# 
   523  0013                     	;# 
   524  0014                     	;# 
   525  0018                     	;# 
   526  0019                     	;# 
   527  001A                     	;# 
   528  008C                     	;# 
   529  008C                     	;# 
   530  008D                     	;# 
   531  008E                     	;# 
   532  008E                     	;# 
   533  008F                     	;# 
   534  0090                     	;# 
   535  0090                     	;# 
   536  0091                     	;# 
   537  0092                     	;# 
   538  0092                     	;# 
   539  0093                     	;# 
   540  0094                     	;# 
   541  0094                     	;# 
   542  0095                     	;# 
   543  0096                     	;# 
   544  0096                     	;# 
   545  0097                     	;# 
   546  0098                     	;# 
   547  0099                     	;# 
   548  009A                     	;# 
   549  009B                     	;# 
   550  009B                     	;# 
   551  009C                     	;# 
   552  009D                     	;# 
   553  009D                     	;# 
   554  009E                     	;# 
   555  009F                     	;# 
   556  010C                     	;# 
   557  010C                     	;# 
   558  010D                     	;# 
   559  010E                     	;# 
   560  010F                     	;# 
   561  010F                     	;# 
   562  0110                     	;# 
   563  0111                     	;# 
   564  0112                     	;# 
   565  0113                     	;# 
   566  0114                     	;# 
   567  0115                     	;# 
   568  0116                     	;# 
   569  0117                     	;# 
   570  0118                     	;# 
   571  0119                     	;# 
   572  0119                     	;# 
   573  0119                     	;# 
   574  011A                     	;# 
   575  011A                     	;# 
   576  011A                     	;# 
   577  011B                     	;# 
   578  011B                     	;# 
   579  011B                     	;# 
   580  011B                     	;# 
   581  011B                     	;# 
   582  011C                     	;# 
   583  011C                     	;# 
   584  011C                     	;# 
   585  011D                     	;# 
   586  011D                     	;# 
   587  011D                     	;# 
   588  011E                     	;# 
   589  011E                     	;# 
   590  011E                     	;# 
   591  011F                     	;# 
   592  011F                     	;# 
   593  011F                     	;# 
   594  011F                     	;# 
   595  011F                     	;# 
   596  018C                     	;# 
   597  018D                     	;# 
   598  018E                     	;# 
   599  018F                     	;# 
   600  0190                     	;# 
   601  0191                     	;# 
   602  0192                     	;# 
   603  0196                     	;# 
   604  0197                     	;# 
   605  0198                     	;# 
   606  0199                     	;# 
   607  019A                     	;# 
   608  019B                     	;# 
   609  019C                     	;# 
   610  020C                     	;# 
   611  020D                     	;# 
   612  020E                     	;# 
   613  020E                     	;# 
   614  020F                     	;# 
   615  020F                     	;# 
   616  0210                     	;# 
   617  0210                     	;# 
   618  0211                     	;# 
   619  0211                     	;# 
   620  0212                     	;# 
   621  0213                     	;# 
   622  0214                     	;# 
   623  0214                     	;# 
   624  0215                     	;# 
   625  0215                     	;# 
   626  0216                     	;# 
   627  0216                     	;# 
   628  0217                     	;# 
   629  0217                     	;# 
   630  0218                     	;# 
   631  0219                     	;# 
   632  021A                     	;# 
   633  021A                     	;# 
   634  021B                     	;# 
   635  021B                     	;# 
   636  021C                     	;# 
   637  021C                     	;# 
   638  021D                     	;# 
   639  021D                     	;# 
   640  021E                     	;# 
   641  021F                     	;# 
   642  028C                     	;# 
   643  028C                     	;# 
   644  028D                     	;# 
   645  028D                     	;# 
   646  028E                     	;# 
   647  028F                     	;# 
   648  0290                     	;# 
   649  0291                     	;# 
   650  0292                     	;# 
   651  0292                     	;# 
   652  0293                     	;# 
   653  0293                     	;# 
   654  0294                     	;# 
   655  0295                     	;# 
   656  0296                     	;# 
   657  0297                     	;# 
   658  0298                     	;# 
   659  0298                     	;# 
   660  0299                     	;# 
   661  0299                     	;# 
   662  029A                     	;# 
   663  029B                     	;# 
   664  029C                     	;# 
   665  029D                     	;# 
   666  029F                     	;# 
   667  030C                     	;# 
   668  030C                     	;# 
   669  030D                     	;# 
   670  030E                     	;# 
   671  030F                     	;# 
   672  0310                     	;# 
   673  0310                     	;# 
   674  0311                     	;# 
   675  0312                     	;# 
   676  0313                     	;# 
   677  0314                     	;# 
   678  0314                     	;# 
   679  0315                     	;# 
   680  0316                     	;# 
   681  0317                     	;# 
   682  0318                     	;# 
   683  0318                     	;# 
   684  0319                     	;# 
   685  031A                     	;# 
   686  031B                     	;# 
   687  038C                     	;# 
   688  038C                     	;# 
   689  038D                     	;# 
   690  038E                     	;# 
   691  0390                     	;# 
   692  0390                     	;# 
   693  0391                     	;# 
   694  0392                     	;# 
   695  048C                     	;# 
   696  048C                     	;# 
   697  048D                     	;# 
   698  048E                     	;# 
   699  048F                     	;# 
   700  048F                     	;# 
   701  0490                     	;# 
   702  0491                     	;# 
   703  0492                     	;# 
   704  0492                     	;# 
   705  0493                     	;# 
   706  0494                     	;# 
   707  0495                     	;# 
   708  0495                     	;# 
   709  0496                     	;# 
   710  0497                     	;# 
   711  0498                     	;# 
   712  0499                     	;# 
   713  049A                     	;# 
   714  049B                     	;# 
   715  049C                     	;# 
   716  049D                     	;# 
   717  058C                     	;# 
   718  058C                     	;# 
   719  058D                     	;# 
   720  058E                     	;# 
   721  058F                     	;# 
   722  058F                     	;# 
   723  0590                     	;# 
   724  0591                     	;# 
   725  0592                     	;# 
   726  0593                     	;# 
   727  059C                     	;# 
   728  059C                     	;# 
   729  059D                     	;# 
   730  059D                     	;# 
   731  059E                     	;# 
   732  059F                     	;# 
   733  060C                     	;# 
   734  060C                     	;# 
   735  060D                     	;# 
   736  060D                     	;# 
   737  060E                     	;# 
   738  060F                     	;# 
   739  0610                     	;# 
   740  0611                     	;# 
   741  0612                     	;# 
   742  0613                     	;# 
   743  0614                     	;# 
   744  0616                     	;# 
   745  0616                     	;# 
   746  0617                     	;# 
   747  0617                     	;# 
   748  0618                     	;# 
   749  0619                     	;# 
   750  061A                     	;# 
   751  061B                     	;# 
   752  061C                     	;# 
   753  061D                     	;# 
   754  061E                     	;# 
   755  070C                     	;# 
   756  070D                     	;# 
   757  070E                     	;# 
   758  070F                     	;# 
   759  0710                     	;# 
   760  0711                     	;# 
   761  0712                     	;# 
   762  0713                     	;# 
   763  0714                     	;# 
   764  0716                     	;# 
   765  0717                     	;# 
   766  0718                     	;# 
   767  0719                     	;# 
   768  071A                     	;# 
   769  071B                     	;# 
   770  071C                     	;# 
   771  071D                     	;# 
   772  071E                     	;# 
   773  0796                     	;# 
   774  0797                     	;# 
   775  0798                     	;# 
   776  0799                     	;# 
   777  079A                     	;# 
   778  079B                     	;# 
   779  079C                     	;# 
   780  079D                     	;# 
   781  080C                     	;# 
   782  080D                     	;# 
   783  080E                     	;# 
   784  080F                     	;# 
   785  0810                     	;# 
   786  0811                     	;# 
   787  0812                     	;# 
   788  0813                     	;# 
   789  0814                     	;# 
   790  081A                     	;# 
   791  081A                     	;# 
   792  081B                     	;# 
   793  081C                     	;# 
   794  081C                     	;# 
   795  081D                     	;# 
   796  081E                     	;# 
   797  081F                     	;# 
   798  088C                     	;# 
   799  088D                     	;# 
   800  088E                     	;# 
   801  088F                     	;# 
   802  0890                     	;# 
   803  0891                     	;# 
   804  0892                     	;# 
   805  0893                     	;# 
   806  0895                     	;# 
   807  0896                     	;# 
   808  0897                     	;# 
   809  0898                     	;# 
   810  0899                     	;# 
   811  089A                     	;# 
   812  089B                     	;# 
   813  090C                     	;# 
   814  090E                     	;# 
   815  090F                     	;# 
   816  091F                     	;# 
   817  098F                     	;# 
   818  098F                     	;# 
   819  0990                     	;# 
   820  0991                     	;# 
   821  0992                     	;# 
   822  0993                     	;# 
   823  0994                     	;# 
   824  0995                     	;# 
   825  0996                     	;# 
   826  0997                     	;# 
   827  1E0F                     	;# 
   828  1E10                     	;# 
   829  1E11                     	;# 
   830  1E12                     	;# 
   831  1E13                     	;# 
   832  1E14                     	;# 
   833  1E15                     	;# 
   834  1E16                     	;# 
   835  1E17                     	;# 
   836  1E18                     	;# 
   837  1E19                     	;# 
   838  1E1A                     	;# 
   839  1E1B                     	;# 
   840  1E1C                     	;# 
   841  1E1D                     	;# 
   842  1E1E                     	;# 
   843  1E1F                     	;# 
   844  1E20                     	;# 
   845  1E21                     	;# 
   846  1E22                     	;# 
   847  1E23                     	;# 
   848  1E24                     	;# 
   849  1E25                     	;# 
   850  1E26                     	;# 
   851  1E27                     	;# 
   852  1E28                     	;# 
   853  1E29                     	;# 
   854  1E2A                     	;# 
   855  1E2B                     	;# 
   856  1E2C                     	;# 
   857  1E2D                     	;# 
   858  1E2E                     	;# 
   859  1E2F                     	;# 
   860  1E30                     	;# 
   861  1E31                     	;# 
   862  1E32                     	;# 
   863  1E33                     	;# 
   864  1E34                     	;# 
   865  1E35                     	;# 
   866  1E36                     	;# 
   867  1E37                     	;# 
   868  1E8F                     	;# 
   869  1E90                     	;# 
   870  1E91                     	;# 
   871  1E92                     	;# 
   872  1E93                     	;# 
   873  1E94                     	;# 
   874  1E95                     	;# 
   875  1E96                     	;# 
   876  1E97                     	;# 
   877  1E9C                     	;# 
   878  1E9D                     	;# 
   879  1E9E                     	;# 
   880  1EA1                     	;# 
   881  1EA2                     	;# 
   882  1EA3                     	;# 
   883  1EA4                     	;# 
   884  1EA9                     	;# 
   885  1EAA                     	;# 
   886  1EB1                     	;# 
   887  1EB2                     	;# 
   888  1EB8                     	;# 
   889  1EB9                     	;# 
   890  1EBA                     	;# 
   891  1EBB                     	;# 
   892  1EBC                     	;# 
   893  1EBD                     	;# 
   894  1EBE                     	;# 
   895  1EC3                     	;# 
   896  1EC5                     	;# 
   897  1EC6                     	;# 
   898  1EC7                     	;# 
   899  1EC8                     	;# 
   900  1EC9                     	;# 
   901  1ECA                     	;# 
   902  1ECB                     	;# 
   903  1ECB                     	;# 
   904  1ECB                     	;# 
   905  1ECC                     	;# 
   906  1ECC                     	;# 
   907  1ECC                     	;# 
   908  1F10                     	;# 
   909  1F11                     	;# 
   910  1F12                     	;# 
   911  1F14                     	;# 
   912  1F15                     	;# 
   913  1F1C                     	;# 
   914  1F1D                     	;# 
   915  1F1E                     	;# 
   916  1F1F                     	;# 
   917  1F20                     	;# 
   918  1F21                     	;# 
   919  1F22                     	;# 
   920  1F23                     	;# 
   921  1F24                     	;# 
   922  1F25                     	;# 
   923  1F26                     	;# 
   924  1F27                     	;# 
   925  1F38                     	;# 
   926  1F39                     	;# 
   927  1F3A                     	;# 
   928  1F3B                     	;# 
   929  1F3C                     	;# 
   930  1F3D                     	;# 
   931  1F3E                     	;# 
   932  1F3F                     	;# 
   933  1F43                     	;# 
   934  1F44                     	;# 
   935  1F45                     	;# 
   936  1F46                     	;# 
   937  1F47                     	;# 
   938  1F48                     	;# 
   939  1F49                     	;# 
   940  1F4A                     	;# 
   941  1F4E                     	;# 
   942  1F4F                     	;# 
   943  1F50                     	;# 
   944  1F51                     	;# 
   945  1F52                     	;# 
   946  1F53                     	;# 
   947  1F54                     	;# 
   948  1F55                     	;# 
   949  1FE4                     	;# 
   950  1FE5                     	;# 
   951  1FE6                     	;# 
   952  1FE7                     	;# 
   953  1FE8                     	;# 
   954  1FE8                     	;# 
   955  1FE9                     	;# 
   956  1FEA                     	;# 
   957  1FEB                     	;# 
   958  1FED                     	;# 
   959  1FEE                     	;# 
   960  1FEF                     	;# 
   961  0000                     	;# 
   962  0001                     	;# 
   963  0002                     	;# 
   964  0003                     	;# 
   965  0004                     	;# 
   966  0005                     	;# 
   967  0006                     	;# 
   968  0007                     	;# 
   969  0008                     	;# 
   970  0009                     	;# 
   971  000A                     	;# 
   972  000B                     	;# 
   973  000C                     	;# 
   974  000D                     	;# 
   975  000E                     	;# 
   976  0012                     	;# 
   977  0013                     	;# 
   978  0014                     	;# 
   979  0018                     	;# 
   980  0019                     	;# 
   981  001A                     	;# 
   982  008C                     	;# 
   983  008C                     	;# 
   984  008D                     	;# 
   985  008E                     	;# 
   986  008E                     	;# 
   987  008F                     	;# 
   988  0090                     	;# 
   989  0090                     	;# 
   990  0091                     	;# 
   991  0092                     	;# 
   992  0092                     	;# 
   993  0093                     	;# 
   994  0094                     	;# 
   995  0094                     	;# 
   996  0095                     	;# 
   997  0096                     	;# 
   998  0096                     	;# 
   999  0097                     	;# 
  1000  0098                     	;# 
  1001  0099                     	;# 
  1002  009A                     	;# 
  1003  009B                     	;# 
  1004  009B                     	;# 
  1005  009C                     	;# 
  1006  009D                     	;# 
  1007  009D                     	;# 
  1008  009E                     	;# 
  1009  009F                     	;# 
  1010  010C                     	;# 
  1011  010C                     	;# 
  1012  010D                     	;# 
  1013  010E                     	;# 
  1014  010F                     	;# 
  1015  010F                     	;# 
  1016  0110                     	;# 
  1017  0111                     	;# 
  1018  0112                     	;# 
  1019  0113                     	;# 
  1020  0114                     	;# 
  1021  0115                     	;# 
  1022  0116                     	;# 
  1023  0117                     	;# 
  1024  0118                     	;# 
  1025  0119                     	;# 
  1026  0119                     	;# 
  1027  0119                     	;# 
  1028  011A                     	;# 
  1029  011A                     	;# 
  1030  011A                     	;# 
  1031  011B                     	;# 
  1032  011B                     	;# 
  1033  011B                     	;# 
  1034  011B                     	;# 
  1035  011B                     	;# 
  1036  011C                     	;# 
  1037  011C                     	;# 
  1038  011C                     	;# 
  1039  011D                     	;# 
  1040  011D                     	;# 
  1041  011D                     	;# 
  1042  011E                     	;# 
  1043  011E                     	;# 
  1044  011E                     	;# 
  1045  011F                     	;# 
  1046  011F                     	;# 
  1047  011F                     	;# 
  1048  011F                     	;# 
  1049  011F                     	;# 
  1050  018C                     	;# 
  1051  018D                     	;# 
  1052  018E                     	;# 
  1053  018F                     	;# 
  1054  0190                     	;# 
  1055  0191                     	;# 
  1056  0192                     	;# 
  1057  0196                     	;# 
  1058  0197                     	;# 
  1059  0198                     	;# 
  1060  0199                     	;# 
  1061  019A                     	;# 
  1062  019B                     	;# 
  1063  019C                     	;# 
  1064  020C                     	;# 
  1065  020D                     	;# 
  1066  020E                     	;# 
  1067  020E                     	;# 
  1068  020F                     	;# 
  1069  020F                     	;# 
  1070  0210                     	;# 
  1071  0210                     	;# 
  1072  0211                     	;# 
  1073  0211                     	;# 
  1074  0212                     	;# 
  1075  0213                     	;# 
  1076  0214                     	;# 
  1077  0214                     	;# 
  1078  0215                     	;# 
  1079  0215                     	;# 
  1080  0216                     	;# 
  1081  0216                     	;# 
  1082  0217                     	;# 
  1083  0217                     	;# 
  1084  0218                     	;# 
  1085  0219                     	;# 
  1086  021A                     	;# 
  1087  021A                     	;# 
  1088  021B                     	;# 
  1089  021B                     	;# 
  1090  021C                     	;# 
  1091  021C                     	;# 
  1092  021D                     	;# 
  1093  021D                     	;# 
  1094  021E                     	;# 
  1095  021F                     	;# 
  1096  028C                     	;# 
  1097  028C                     	;# 
  1098  028D                     	;# 
  1099  028D                     	;# 
  1100  028E                     	;# 
  1101  028F                     	;# 
  1102  0290                     	;# 
  1103  0291                     	;# 
  1104  0292                     	;# 
  1105  0292                     	;# 
  1106  0293                     	;# 
  1107  0293                     	;# 
  1108  0294                     	;# 
  1109  0295                     	;# 
  1110  0296                     	;# 
  1111  0297                     	;# 
  1112  0298                     	;# 
  1113  0298                     	;# 
  1114  0299                     	;# 
  1115  0299                     	;# 
  1116  029A                     	;# 
  1117  029B                     	;# 
  1118  029C                     	;# 
  1119  029D                     	;# 
  1120  029F                     	;# 
  1121  030C                     	;# 
  1122  030C                     	;# 
  1123  030D                     	;# 
  1124  030E                     	;# 
  1125  030F                     	;# 
  1126  0310                     	;# 
  1127  0310                     	;# 
  1128  0311                     	;# 
  1129  0312                     	;# 
  1130  0313                     	;# 
  1131  0314                     	;# 
  1132  0314                     	;# 
  1133  0315                     	;# 
  1134  0316                     	;# 
  1135  0317                     	;# 
  1136  0318                     	;# 
  1137  0318                     	;# 
  1138  0319                     	;# 
  1139  031A                     	;# 
  1140  031B                     	;# 
  1141  038C                     	;# 
  1142  038C                     	;# 
  1143  038D                     	;# 
  1144  038E                     	;# 
  1145  0390                     	;# 
  1146  0390                     	;# 
  1147  0391                     	;# 
  1148  0392                     	;# 
  1149  048C                     	;# 
  1150  048C                     	;# 
  1151  048D                     	;# 
  1152  048E                     	;# 
  1153  048F                     	;# 
  1154  048F                     	;# 
  1155  0490                     	;# 
  1156  0491                     	;# 
  1157  0492                     	;# 
  1158  0492                     	;# 
  1159  0493                     	;# 
  1160  0494                     	;# 
  1161  0495                     	;# 
  1162  0495                     	;# 
  1163  0496                     	;# 
  1164  0497                     	;# 
  1165  0498                     	;# 
  1166  0499                     	;# 
  1167  049A                     	;# 
  1168  049B                     	;# 
  1169  049C                     	;# 
  1170  049D                     	;# 
  1171  058C                     	;# 
  1172  058C                     	;# 
  1173  058D                     	;# 
  1174  058E                     	;# 
  1175  058F                     	;# 
  1176  058F                     	;# 
  1177  0590                     	;# 
  1178  0591                     	;# 
  1179  0592                     	;# 
  1180  0593                     	;# 
  1181  059C                     	;# 
  1182  059C                     	;# 
  1183  059D                     	;# 
  1184  059D                     	;# 
  1185  059E                     	;# 
  1186  059F                     	;# 
  1187  060C                     	;# 
  1188  060C                     	;# 
  1189  060D                     	;# 
  1190  060D                     	;# 
  1191  060E                     	;# 
  1192  060F                     	;# 
  1193  0610                     	;# 
  1194  0611                     	;# 
  1195  0612                     	;# 
  1196  0613                     	;# 
  1197  0614                     	;# 
  1198  0616                     	;# 
  1199  0616                     	;# 
  1200  0617                     	;# 
  1201  0617                     	;# 
  1202  0618                     	;# 
  1203  0619                     	;# 
  1204  061A                     	;# 
  1205  061B                     	;# 
  1206  061C                     	;# 
  1207  061D                     	;# 
  1208  061E                     	;# 
  1209  070C                     	;# 
  1210  070D                     	;# 
  1211  070E                     	;# 
  1212  070F                     	;# 
  1213  0710                     	;# 
  1214  0711                     	;# 
  1215  0712                     	;# 
  1216  0713                     	;# 
  1217  0714                     	;# 
  1218  0716                     	;# 
  1219  0717                     	;# 
  1220  0718                     	;# 
  1221  0719                     	;# 
  1222  071A                     	;# 
  1223  071B                     	;# 
  1224  071C                     	;# 
  1225  071D                     	;# 
  1226  071E                     	;# 
  1227  0796                     	;# 
  1228  0797                     	;# 
  1229  0798                     	;# 
  1230  0799                     	;# 
  1231  079A                     	;# 
  1232  079B                     	;# 
  1233  079C                     	;# 
  1234  079D                     	;# 
  1235  080C                     	;# 
  1236  080D                     	;# 
  1237  080E                     	;# 
  1238  080F                     	;# 
  1239  0810                     	;# 
  1240  0811                     	;# 
  1241  0812                     	;# 
  1242  0813                     	;# 
  1243  0814                     	;# 
  1244  081A                     	;# 
  1245  081A                     	;# 
  1246  081B                     	;# 
  1247  081C                     	;# 
  1248  081C                     	;# 
  1249  081D                     	;# 
  1250  081E                     	;# 
  1251  081F                     	;# 
  1252  088C                     	;# 
  1253  088D                     	;# 
  1254  088E                     	;# 
  1255  088F                     	;# 
  1256  0890                     	;# 
  1257  0891                     	;# 
  1258  0892                     	;# 
  1259  0893                     	;# 
  1260  0895                     	;# 
  1261  0896                     	;# 
  1262  0897                     	;# 
  1263  0898                     	;# 
  1264  0899                     	;# 
  1265  089A                     	;# 
  1266  089B                     	;# 
  1267  090C                     	;# 
  1268  090E                     	;# 
  1269  090F                     	;# 
  1270  091F                     	;# 
  1271  098F                     	;# 
  1272  098F                     	;# 
  1273  0990                     	;# 
  1274  0991                     	;# 
  1275  0992                     	;# 
  1276  0993                     	;# 
  1277  0994                     	;# 
  1278  0995                     	;# 
  1279  0996                     	;# 
  1280  0997                     	;# 
  1281  1E0F                     	;# 
  1282  1E10                     	;# 
  1283  1E11                     	;# 
  1284  1E12                     	;# 
  1285  1E13                     	;# 
  1286  1E14                     	;# 
  1287  1E15                     	;# 
  1288  1E16                     	;# 
  1289  1E17                     	;# 
  1290  1E18                     	;# 
  1291  1E19                     	;# 
  1292  1E1A                     	;# 
  1293  1E1B                     	;# 
  1294  1E1C                     	;# 
  1295  1E1D                     	;# 
  1296  1E1E                     	;# 
  1297  1E1F                     	;# 
  1298  1E20                     	;# 
  1299  1E21                     	;# 
  1300  1E22                     	;# 
  1301  1E23                     	;# 
  1302  1E24                     	;# 
  1303  1E25                     	;# 
  1304  1E26                     	;# 
  1305  1E27                     	;# 
  1306  1E28                     	;# 
  1307  1E29                     	;# 
  1308  1E2A                     	;# 
  1309  1E2B                     	;# 
  1310  1E2C                     	;# 
  1311  1E2D                     	;# 
  1312  1E2E                     	;# 
  1313  1E2F                     	;# 
  1314  1E30                     	;# 
  1315  1E31                     	;# 
  1316  1E32                     	;# 
  1317  1E33                     	;# 
  1318  1E34                     	;# 
  1319  1E35                     	;# 
  1320  1E36                     	;# 
  1321  1E37                     	;# 
  1322  1E8F                     	;# 
  1323  1E90                     	;# 
  1324  1E91                     	;# 
  1325  1E92                     	;# 
  1326  1E93                     	;# 
  1327  1E94                     	;# 
  1328  1E95                     	;# 
  1329  1E96                     	;# 
  1330  1E97                     	;# 
  1331  1E9C                     	;# 
  1332  1E9D                     	;# 
  1333  1E9E                     	;# 
  1334  1EA1                     	;# 
  1335  1EA2                     	;# 
  1336  1EA3                     	;# 
  1337  1EA4                     	;# 
  1338  1EA9                     	;# 
  1339  1EAA                     	;# 
  1340  1EB1                     	;# 
  1341  1EB2                     	;# 
  1342  1EB8                     	;# 
  1343  1EB9                     	;# 
  1344  1EBA                     	;# 
  1345  1EBB                     	;# 
  1346  1EBC                     	;# 
  1347  1EBD                     	;# 
  1348  1EBE                     	;# 
  1349  1EC3                     	;# 
  1350  1EC5                     	;# 
  1351  1EC6                     	;# 
  1352  1EC7                     	;# 
  1353  1EC8                     	;# 
  1354  1EC9                     	;# 
  1355  1ECA                     	;# 
  1356  1ECB                     	;# 
  1357  1ECB                     	;# 
  1358  1ECB                     	;# 
  1359  1ECC                     	;# 
  1360  1ECC                     	;# 
  1361  1ECC                     	;# 
  1362  1F10                     	;# 
  1363  1F11                     	;# 
  1364  1F12                     	;# 
  1365  1F14                     	;# 
  1366  1F15                     	;# 
  1367  1F1C                     	;# 
  1368  1F1D                     	;# 
  1369  1F1E                     	;# 
  1370  1F1F                     	;# 
  1371  1F20                     	;# 
  1372  1F21                     	;# 
  1373  1F22                     	;# 
  1374  1F23                     	;# 
  1375  1F24                     	;# 
  1376  1F25                     	;# 
  1377  1F26                     	;# 
  1378  1F27                     	;# 
  1379  1F38                     	;# 
  1380  1F39                     	;# 
  1381  1F3A                     	;# 
  1382  1F3B                     	;# 
  1383  1F3C                     	;# 
  1384  1F3D                     	;# 
  1385  1F3E                     	;# 
  1386  1F3F                     	;# 
  1387  1F43                     	;# 
  1388  1F44                     	;# 
  1389  1F45                     	;# 
  1390  1F46                     	;# 
  1391  1F47                     	;# 
  1392  1F48                     	;# 
  1393  1F49                     	;# 
  1394  1F4A                     	;# 
  1395  1F4E                     	;# 
  1396  1F4F                     	;# 
  1397  1F50                     	;# 
  1398  1F51                     	;# 
  1399  1F52                     	;# 
  1400  1F53                     	;# 
  1401  1F54                     	;# 
  1402  1F55                     	;# 
  1403  1FE4                     	;# 
  1404  1FE5                     	;# 
  1405  1FE6                     	;# 
  1406  1FE7                     	;# 
  1407  1FE8                     	;# 
  1408  1FE8                     	;# 
  1409  1FE9                     	;# 
  1410  1FEA                     	;# 
  1411  1FEB                     	;# 
  1412  1FED                     	;# 
  1413  1FEE                     	;# 
  1414  1FEF                     	;# 
  1415  0000                     	;# 
  1416  0001                     	;# 
  1417  0002                     	;# 
  1418  0003                     	;# 
  1419  0004                     	;# 
  1420  0005                     	;# 
  1421  0006                     	;# 
  1422  0007                     	;# 
  1423  0008                     	;# 
  1424  0009                     	;# 
  1425  000A                     	;# 
  1426  000B                     	;# 
  1427  000C                     	;# 
  1428  000D                     	;# 
  1429  000E                     	;# 
  1430  0012                     	;# 
  1431  0013                     	;# 
  1432  0014                     	;# 
  1433  0018                     	;# 
  1434  0019                     	;# 
  1435  001A                     	;# 
  1436  008C                     	;# 
  1437  008C                     	;# 
  1438  008D                     	;# 
  1439  008E                     	;# 
  1440  008E                     	;# 
  1441  008F                     	;# 
  1442  0090                     	;# 
  1443  0090                     	;# 
  1444  0091                     	;# 
  1445  0092                     	;# 
  1446  0092                     	;# 
  1447  0093                     	;# 
  1448  0094                     	;# 
  1449  0094                     	;# 
  1450  0095                     	;# 
  1451  0096                     	;# 
  1452  0096                     	;# 
  1453  0097                     	;# 
  1454  0098                     	;# 
  1455  0099                     	;# 
  1456  009A                     	;# 
  1457  009B                     	;# 
  1458  009B                     	;# 
  1459  009C                     	;# 
  1460  009D                     	;# 
  1461  009D                     	;# 
  1462  009E                     	;# 
  1463  009F                     	;# 
  1464  010C                     	;# 
  1465  010C                     	;# 
  1466  010D                     	;# 
  1467  010E                     	;# 
  1468  010F                     	;# 
  1469  010F                     	;# 
  1470  0110                     	;# 
  1471  0111                     	;# 
  1472  0112                     	;# 
  1473  0113                     	;# 
  1474  0114                     	;# 
  1475  0115                     	;# 
  1476  0116                     	;# 
  1477  0117                     	;# 
  1478  0118                     	;# 
  1479  0119                     	;# 
  1480  0119                     	;# 
  1481  0119                     	;# 
  1482  011A                     	;# 
  1483  011A                     	;# 
  1484  011A                     	;# 
  1485  011B                     	;# 
  1486  011B                     	;# 
  1487  011B                     	;# 
  1488  011B                     	;# 
  1489  011B                     	;# 
  1490  011C                     	;# 
  1491  011C                     	;# 
  1492  011C                     	;# 
  1493  011D                     	;# 
  1494  011D                     	;# 
  1495  011D                     	;# 
  1496  011E                     	;# 
  1497  011E                     	;# 
  1498  011E                     	;# 
  1499  011F                     	;# 
  1500  011F                     	;# 
  1501  011F                     	;# 
  1502  011F                     	;# 
  1503  011F                     	;# 
  1504  018C                     	;# 
  1505  018D                     	;# 
  1506  018E                     	;# 
  1507  018F                     	;# 
  1508  0190                     	;# 
  1509  0191                     	;# 
  1510  0192                     	;# 
  1511  0196                     	;# 
  1512  0197                     	;# 
  1513  0198                     	;# 
  1514  0199                     	;# 
  1515  019A                     	;# 
  1516  019B                     	;# 
  1517  019C                     	;# 
  1518  020C                     	;# 
  1519  020D                     	;# 
  1520  020E                     	;# 
  1521  020E                     	;# 
  1522  020F                     	;# 
  1523  020F                     	;# 
  1524  0210                     	;# 
  1525  0210                     	;# 
  1526  0211                     	;# 
  1527  0211                     	;# 
  1528  0212                     	;# 
  1529  0213                     	;# 
  1530  0214                     	;# 
  1531  0214                     	;# 
  1532  0215                     	;# 
  1533  0215                     	;# 
  1534  0216                     	;# 
  1535  0216                     	;# 
  1536  0217                     	;# 
  1537  0217                     	;# 
  1538  0218                     	;# 
  1539  0219                     	;# 
  1540  021A                     	;# 
  1541  021A                     	;# 
  1542  021B                     	;# 
  1543  021B                     	;# 
  1544  021C                     	;# 
  1545  021C                     	;# 
  1546  021D                     	;# 
  1547  021D                     	;# 
  1548  021E                     	;# 
  1549  021F                     	;# 
  1550  028C                     	;# 
  1551  028C                     	;# 
  1552  028D                     	;# 
  1553  028D                     	;# 
  1554  028E                     	;# 
  1555  028F                     	;# 
  1556  0290                     	;# 
  1557  0291                     	;# 
  1558  0292                     	;# 
  1559  0292                     	;# 
  1560  0293                     	;# 
  1561  0293                     	;# 
  1562  0294                     	;# 
  1563  0295                     	;# 
  1564  0296                     	;# 
  1565  0297                     	;# 
  1566  0298                     	;# 
  1567  0298                     	;# 
  1568  0299                     	;# 
  1569  0299                     	;# 
  1570  029A                     	;# 
  1571  029B                     	;# 
  1572  029C                     	;# 
  1573  029D                     	;# 
  1574  029F                     	;# 
  1575  030C                     	;# 
  1576  030C                     	;# 
  1577  030D                     	;# 
  1578  030E                     	;# 
  1579  030F                     	;# 
  1580  0310                     	;# 
  1581  0310                     	;# 
  1582  0311                     	;# 
  1583  0312                     	;# 
  1584  0313                     	;# 
  1585  0314                     	;# 
  1586  0314                     	;# 
  1587  0315                     	;# 
  1588  0316                     	;# 
  1589  0317                     	;# 
  1590  0318                     	;# 
  1591  0318                     	;# 
  1592  0319                     	;# 
  1593  031A                     	;# 
  1594  031B                     	;# 
  1595  038C                     	;# 
  1596  038C                     	;# 
  1597  038D                     	;# 
  1598  038E                     	;# 
  1599  0390                     	;# 
  1600  0390                     	;# 
  1601  0391                     	;# 
  1602  0392                     	;# 
  1603  048C                     	;# 
  1604  048C                     	;# 
  1605  048D                     	;# 
  1606  048E                     	;# 
  1607  048F                     	;# 
  1608  048F                     	;# 
  1609  0490                     	;# 
  1610  0491                     	;# 
  1611  0492                     	;# 
  1612  0492                     	;# 
  1613  0493                     	;# 
  1614  0494                     	;# 
  1615  0495                     	;# 
  1616  0495                     	;# 
  1617  0496                     	;# 
  1618  0497                     	;# 
  1619  0498                     	;# 
  1620  0499                     	;# 
  1621  049A                     	;# 
  1622  049B                     	;# 
  1623  049C                     	;# 
  1624  049D                     	;# 
  1625  058C                     	;# 
  1626  058C                     	;# 
  1627  058D                     	;# 
  1628  058E                     	;# 
  1629  058F                     	;# 
  1630  058F                     	;# 
  1631  0590                     	;# 
  1632  0591                     	;# 
  1633  0592                     	;# 
  1634  0593                     	;# 
  1635  059C                     	;# 
  1636  059C                     	;# 
  1637  059D                     	;# 
  1638  059D                     	;# 
  1639  059E                     	;# 
  1640  059F                     	;# 
  1641  060C                     	;# 
  1642  060C                     	;# 
  1643  060D                     	;# 
  1644  060D                     	;# 
  1645  060E                     	;# 
  1646  060F                     	;# 
  1647  0610                     	;# 
  1648  0611                     	;# 
  1649  0612                     	;# 
  1650  0613                     	;# 
  1651  0614                     	;# 
  1652  0616                     	;# 
  1653  0616                     	;# 
  1654  0617                     	;# 
  1655  0617                     	;# 
  1656  0618                     	;# 
  1657  0619                     	;# 
  1658  061A                     	;# 
  1659  061B                     	;# 
  1660  061C                     	;# 
  1661  061D                     	;# 
  1662  061E                     	;# 
  1663  070C                     	;# 
  1664  070D                     	;# 
  1665  070E                     	;# 
  1666  070F                     	;# 
  1667  0710                     	;# 
  1668  0711                     	;# 
  1669  0712                     	;# 
  1670  0713                     	;# 
  1671  0714                     	;# 
  1672  0716                     	;# 
  1673  0717                     	;# 
  1674  0718                     	;# 
  1675  0719                     	;# 
  1676  071A                     	;# 
  1677  071B                     	;# 
  1678  071C                     	;# 
  1679  071D                     	;# 
  1680  071E                     	;# 
  1681  0796                     	;# 
  1682  0797                     	;# 
  1683  0798                     	;# 
  1684  0799                     	;# 
  1685  079A                     	;# 
  1686  079B                     	;# 
  1687  079C                     	;# 
  1688  079D                     	;# 
  1689  080C                     	;# 
  1690  080D                     	;# 
  1691  080E                     	;# 
  1692  080F                     	;# 
  1693  0810                     	;# 
  1694  0811                     	;# 
  1695  0812                     	;# 
  1696  0813                     	;# 
  1697  0814                     	;# 
  1698  081A                     	;# 
  1699  081A                     	;# 
  1700  081B                     	;# 
  1701  081C                     	;# 
  1702  081C                     	;# 
  1703  081D                     	;# 
  1704  081E                     	;# 
  1705  081F                     	;# 
  1706  088C                     	;# 
  1707  088D                     	;# 
  1708  088E                     	;# 
  1709  088F                     	;# 
  1710  0890                     	;# 
  1711  0891                     	;# 
  1712  0892                     	;# 
  1713  0893                     	;# 
  1714  0895                     	;# 
  1715  0896                     	;# 
  1716  0897                     	;# 
  1717  0898                     	;# 
  1718  0899                     	;# 
  1719  089A                     	;# 
  1720  089B                     	;# 
  1721  090C                     	;# 
  1722  090E                     	;# 
  1723  090F                     	;# 
  1724  091F                     	;# 
  1725  098F                     	;# 
  1726  098F                     	;# 
  1727  0990                     	;# 
  1728  0991                     	;# 
  1729  0992                     	;# 
  1730  0993                     	;# 
  1731  0994                     	;# 
  1732  0995                     	;# 
  1733  0996                     	;# 
  1734  0997                     	;# 
  1735  1E0F                     	;# 
  1736  1E10                     	;# 
  1737  1E11                     	;# 
  1738  1E12                     	;# 
  1739  1E13                     	;# 
  1740  1E14                     	;# 
  1741  1E15                     	;# 
  1742  1E16                     	;# 
  1743  1E17                     	;# 
  1744  1E18                     	;# 
  1745  1E19                     	;# 
  1746  1E1A                     	;# 
  1747  1E1B                     	;# 
  1748  1E1C                     	;# 
  1749  1E1D                     	;# 
  1750  1E1E                     	;# 
  1751  1E1F                     	;# 
  1752  1E20                     	;# 
  1753  1E21                     	;# 
  1754  1E22                     	;# 
  1755  1E23                     	;# 
  1756  1E24                     	;# 
  1757  1E25                     	;# 
  1758  1E26                     	;# 
  1759  1E27                     	;# 
  1760  1E28                     	;# 
  1761  1E29                     	;# 
  1762  1E2A                     	;# 
  1763  1E2B                     	;# 
  1764  1E2C                     	;# 
  1765  1E2D                     	;# 
  1766  1E2E                     	;# 
  1767  1E2F                     	;# 
  1768  1E30                     	;# 
  1769  1E31                     	;# 
  1770  1E32                     	;# 
  1771  1E33                     	;# 
  1772  1E34                     	;# 
  1773  1E35                     	;# 
  1774  1E36                     	;# 
  1775  1E37                     	;# 
  1776  1E8F                     	;# 
  1777  1E90                     	;# 
  1778  1E91                     	;# 
  1779  1E92                     	;# 
  1780  1E93                     	;# 
  1781  1E94                     	;# 
  1782  1E95                     	;# 
  1783  1E96                     	;# 
  1784  1E97                     	;# 
  1785  1E9C                     	;# 
  1786  1E9D                     	;# 
  1787  1E9E                     	;# 
  1788  1EA1                     	;# 
  1789  1EA2                     	;# 
  1790  1EA3                     	;# 
  1791  1EA4                     	;# 
  1792  1EA9                     	;# 
  1793  1EAA                     	;# 
  1794  1EB1                     	;# 
  1795  1EB2                     	;# 
  1796  1EB8                     	;# 
  1797  1EB9                     	;# 
  1798  1EBA                     	;# 
  1799  1EBB                     	;# 
  1800  1EBC                     	;# 
  1801  1EBD                     	;# 
  1802  1EBE                     	;# 
  1803  1EC3                     	;# 
  1804  1EC5                     	;# 
  1805  1EC6                     	;# 
  1806  1EC7                     	;# 
  1807  1EC8                     	;# 
  1808  1EC9                     	;# 
  1809  1ECA                     	;# 
  1810  1ECB                     	;# 
  1811  1ECB                     	;# 
  1812  1ECB                     	;# 
  1813  1ECC                     	;# 
  1814  1ECC                     	;# 
  1815  1ECC                     	;# 
  1816  1F10                     	;# 
  1817  1F11                     	;# 
  1818  1F12                     	;# 
  1819  1F14                     	;# 
  1820  1F15                     	;# 
  1821  1F1C                     	;# 
  1822  1F1D                     	;# 
  1823  1F1E                     	;# 
  1824  1F1F                     	;# 
  1825  1F20                     	;# 
  1826  1F21                     	;# 
  1827  1F22                     	;# 
  1828  1F23                     	;# 
  1829  1F24                     	;# 
  1830  1F25                     	;# 
  1831  1F26                     	;# 
  1832  1F27                     	;# 
  1833  1F38                     	;# 
  1834  1F39                     	;# 
  1835  1F3A                     	;# 
  1836  1F3B                     	;# 
  1837  1F3C                     	;# 
  1838  1F3D                     	;# 
  1839  1F3E                     	;# 
  1840  1F3F                     	;# 
  1841  1F43                     	;# 
  1842  1F44                     	;# 
  1843  1F45                     	;# 
  1844  1F46                     	;# 
  1845  1F47                     	;# 
  1846  1F48                     	;# 
  1847  1F49                     	;# 
  1848  1F4A                     	;# 
  1849  1F4E                     	;# 
  1850  1F4F                     	;# 
  1851  1F50                     	;# 
  1852  1F51                     	;# 
  1853  1F52                     	;# 
  1854  1F53                     	;# 
  1855  1F54                     	;# 
  1856  1F55                     	;# 
  1857  1FE4                     	;# 
  1858  1FE5                     	;# 
  1859  1FE6                     	;# 
  1860  1FE7                     	;# 
  1861  1FE8                     	;# 
  1862  1FE8                     	;# 
  1863  1FE9                     	;# 
  1864  1FEA                     	;# 
  1865  1FEB                     	;# 
  1866  1FED                     	;# 
  1867  1FEE                     	;# 
  1868  1FEF                     	;# 
  1869                           
  1870                           	psect	idataCOMMON
  1871  0317                     __pidataCOMMON:	
  1872                           
  1873                           ;initializer for main@F11234
  1874  0317  3410               	retlw	16
  1875                           
  1876                           ;initializer for main@F11232
  1877  0318  3408               	retlw	8
  1878  000B                     _INTCONbits	set	11
  1879  001A                     _LATCbits	set	26
  1880  0019                     _LATBbits	set	25
  1881  0018                     _LATAbits	set	24
  1882  000E                     _PORTCbits	set	14
  1883  000D                     _PORTBbits	set	13
  1884  000C                     _PORTAbits	set	12
  1885  0014                     _TRISCbits	set	20
  1886  0013                     _TRISBbits	set	19
  1887  0012                     _TRISAbits	set	18
  1888  059D                     _TMR0H	set	1437
  1889  059F                     _T0CON1bits	set	1439
  1890  059E                     _T0CON0bits	set	1438
  1891  0716                     _PIE0bits	set	1814
  1892  1F4F                     _WPUCbits	set	8015
  1893  1F4E                     _ANSELCbits	set	8014
  1894  1F44                     _WPUBbits	set	8004
  1895  1F43                     _ANSELBbits	set	8003
  1896  1F39                     _WPUAbits	set	7993
  1897  1F38                     _ANSELAbits	set	7992
  1898                           
  1899                           ; #config settings
  1900  0000                     
  1901                           	psect	cinit
  1902  000F                     start_initialization:	
  1903  000F                     __initialization:	
  1904                           
  1905                           ; Initialize objects allocated to COMMON
  1906  000F  3183  2317  3180   	fcall	__pidataCOMMON	;fetch initializer
  1907  0012  00FB               	movwf	__pdataCOMMON& (0+127)
  1908  0013  3183  2318  3180   	fcall	__pidataCOMMON+1	;fetch initializer
  1909  0016  00FC               	movwf	(__pdataCOMMON+1)& (0+127)
  1910                           
  1911                           ; Clear objects allocated to COMMON
  1912  0017  01FD               	clrf	__pbssCOMMON& (0+127)
  1913                           
  1914                           ; Clear objects allocated to BANK0
  1915  0018  3020               	movlw	low __pbssBANK0
  1916  0019  0084               	movwf	4
  1917  001A  3000               	movlw	high __pbssBANK0
  1918  001B  0085               	movwf	5
  1919  001C  301A               	movlw	26
  1920  001D  3183  2311         	fcall	clear_ram0
  1921  001F                     end_of_initialization:	
  1922                           ;End of C runtime variable initialization code
  1923                           
  1924  001F                     __end_of__initialization:	
  1925  001F  107E               	bcf	int$flags,0	;clear compiler interrupt flag (level 1)
  1926  0020  0140               	movlb	0
  1927  0021  3182  2AD9         	ljmp	_main	;jump to C main() function
  1928                           
  1929                           	psect	bssCOMMON
  1930  007D                     __pbssCOMMON:	
  1931  007D                     _buttonState:	
  1932  007D                     	ds	1
  1933                           
  1934                           	psect	dataCOMMON
  1935  007B                     __pdataCOMMON:	
  1936  007B                     main@F11234:	
  1937  007B                     	ds	1
  1938  007C                     main@F11232:	
  1939  007C                     	ds	1
  1940                           
  1941                           	psect	bssBANK0
  1942  0020                     __pbssBANK0:	
  1943  0020                     _pinStates:	
  1944  0020                     	ds	17
  1945  0031                     _timeButtonReleased:	
  1946  0031                     	ds	2
  1947  0033                     _timeTurnedOff:	
  1948  0033                     	ds	2
  1949  0035                     _time:	
  1950  0035                     	ds	2
  1951  0037                     _ledLasteState:	
  1952  0037                     	ds	1
  1953  0038                     _ledState:	
  1954  0038                     	ds	1
  1955  0039                     _buttonLastState:	
  1956  0039                     	ds	1
  1957                           
  1958                           	psect	clrtext
  1959  0311                     clear_ram0:	
  1960                           ;	Called with FSR0 containing the base address, and
  1961                           ;	WREG with the size to clear
  1962                           
  1963  0311  0064               	clrwdt	;clear the watchdog before getting into this loop
  1964  0312                     clrloop0:	
  1965  0312  0180               	clrf	0	;clear RAM location pointed to by FSR
  1966  0313  3101               	addfsr 0,1
  1967  0314  0B89               	decfsz	9,f	;Have we reached the end of clearing yet?
  1968  0315  2B12               	goto	clrloop0	;have we reached the end yet?
  1969  0316  3400               	retlw	0	;all done for this memory range, return
  1970                           
  1971                           	psect	cstackCOMMON
  1972  0070                     __pcstackCOMMON:	
  1973  0070                     ?_defineGPIODirection:	
  1974  0070                     ?_timer0_config:	
  1975                           ; 1 bytes @ 0x0
  1976                           
  1977  0070                     ??_timer0_config:	
  1978                           ; 1 bytes @ 0x0
  1979                           
  1980  0070                     ?_readPin:	
  1981                           ; 1 bytes @ 0x0
  1982                           
  1983  0070                     ??_readPin:	
  1984                           ; 1 bytes @ 0x0
  1985                           
  1986  0070                     ?_writePin:	
  1987                           ; 1 bytes @ 0x0
  1988                           
  1989  0070                     ?_main:	
  1990                           ; 1 bytes @ 0x0
  1991                           
  1992  0070                     ?_timer0ISR:	
  1993                           ; 1 bytes @ 0x0
  1994                           
  1995  0070                     ??_timer0ISR:	
  1996                           ; 1 bytes @ 0x0
  1997                           
  1998  0070                     defineGPIODirection@output:	
  1999                           ; 1 bytes @ 0x0
  2000                           
  2001  0070                     writePin@value:	
  2002                           ; 1 bytes @ 0x0
  2003                           
  2004                           
  2005                           ; 1 bytes @ 0x0
  2006  0070                     	ds	1
  2007  0071                     ??_writePin:	
  2008  0071                     defineGPIODirection@inputLength:	
  2009                           ; 1 bytes @ 0x1
  2010                           
  2011                           
  2012                           ; 1 bytes @ 0x1
  2013  0071                     	ds	1
  2014  0072                     defineGPIODirection@outputLength:	
  2015  0072                     readPin@read:	
  2016                           ; 1 bytes @ 0x2
  2017                           
  2018                           
  2019                           ; 1 bytes @ 0x2
  2020  0072                     	ds	1
  2021  0073                     ??_defineGPIODirection:	
  2022  0073                     writePin@write:	
  2023                           ; 1 bytes @ 0x3
  2024                           
  2025                           
  2026                           ; 1 bytes @ 0x3
  2027  0073                     	ds	3
  2028  0076                     defineGPIODirection@input:	
  2029                           
  2030                           ; 1 bytes @ 0x6
  2031  0076                     	ds	1
  2032  0077                     defineGPIODirection@i:	
  2033                           
  2034                           ; 1 bytes @ 0x7
  2035  0077                     	ds	1
  2036  0078                     ??_main:	
  2037                           
  2038                           ; 1 bytes @ 0x8
  2039  0078                     	ds	1
  2040  0079                     main@input:	
  2041                           
  2042                           ; 1 bytes @ 0x9
  2043  0079                     	ds	1
  2044  007A                     main@output:	
  2045                           
  2046                           ; 1 bytes @ 0xA
  2047  007A                     	ds	1
  2048                           
  2049                           	psect	maintext
  2050  02D9                     __pmaintext:	
  2051 ;;
  2052 ;;Main: autosize = 0, tempsize = 1, incstack = 0, save=0
  2053 ;;
  2054 ;; *************** function _main *****************
  2055 ;; Defined at:
  2056 ;;		line 27 in file "main.c"
  2057 ;; Parameters:    Size  Location     Type
  2058 ;;		None
  2059 ;; Auto vars:     Size  Location     Type
  2060 ;;  output          1   10[COMMON] enum E11183[1]
  2061 ;;  input           1    9[COMMON] enum E11183[1]
  2062 ;; Return value:  Size  Location     Type
  2063 ;;                  1    wreg      void 
  2064 ;; Registers used:
  2065 ;;		wreg, fsr0l, fsr0h, fsr1l, fsr1h, status,2, status,0, pclath, cstack
  2066 ;; Tracked objects:
  2067 ;;		On entry : B3F/0
  2068 ;;		On exit  : 0/0
  2069 ;;		Unchanged: 0/0
  2070 ;; Data sizes:     COMMON   BANK0   BANK1   BANK2   BANK3   BANK4   BANK5   BANK6   BANK7   BANK8   BANK9  BANK10  BANK1
      +1  BANK12  BANK13  BANK14  BANK15  BANK16  BANK17  BANK18  BANK19  BANK20  BANK21  BANK22  BANK23  BANK24  BANK25
  2071 ;;      Params:         0       0       0       0       0       0       0       0       0       0       0       0       
      +0       0       0       0       0       0       0       0       0       0       0       0       0       0       0
  2072 ;;      Locals:         2       0       0       0       0       0       0       0       0       0       0       0       
      +0       0       0       0       0       0       0       0       0       0       0       0       0       0       0
  2073 ;;      Temps:          1       0       0       0       0       0       0       0       0       0       0       0       
      +0       0       0       0       0       0       0       0       0       0       0       0       0       0       0
  2074 ;;      Totals:         3       0       0       0       0       0       0       0       0       0       0       0       
      +0       0       0       0       0       0       0       0       0       0       0       0       0       0       0
  2075 ;;Total ram usage:        3 bytes
  2076 ;; Hardware stack levels required when called:    2
  2077 ;; This function calls:
  2078 ;;		_defineGPIODirection
  2079 ;;		_readPin
  2080 ;;		_timer0_config
  2081 ;;		_writePin
  2082 ;; This function is called by:
  2083 ;;		Startup code after reset
  2084 ;; This function uses a non-reentrant model
  2085 ;;
  2086                           
  2087                           
  2088                           ;psect for function _main
  2089  02D9                     _main:	
  2090                           
  2091                           ;incstack = 0
  2092                           ; Regs used in _main: [wreg-fsr1h+status,2+status,0+pclath+cstack]
  2093  02D9  087C               	movf	main@F11232,w
  2094  02DA  00F8               	movwf	??_main
  2095  02DB  0878               	movf	??_main,w
  2096  02DC  00F9               	movwf	main@input
  2097  02DD  087B               	movf	main@F11234,w
  2098  02DE  00F8               	movwf	??_main
  2099  02DF  0878               	movf	??_main,w
  2100  02E0  00FA               	movwf	main@output
  2101  02E1  307A               	movlw	(low (main@output| 0))& (0+255)
  2102  02E2  00F8               	movwf	??_main
  2103  02E3  0878               	movf	??_main,w
  2104  02E4  00F0               	movwf	defineGPIODirection@output
  2105  02E5  01F1               	clrf	defineGPIODirection@inputLength
  2106  02E6  0AF1               	incf	defineGPIODirection@inputLength,f
  2107  02E7  01F2               	clrf	defineGPIODirection@outputLength
  2108  02E8  0AF2               	incf	defineGPIODirection@outputLength,f
  2109  02E9  3079               	movlw	(low (main@input| 0))& (0+255)
  2110  02EA  3180  2023  3182   	fcall	_defineGPIODirection
  2111  02ED  3183  2300  3182   	fcall	_timer0_config
  2112  02F0  2AF7               	goto	l1348
  2113  02F1                     l1350:	
  2114  02F1  01F0               	clrf	writePin@value
  2115  02F2  0AF0               	incf	writePin@value,f
  2116  02F3                     L1:	
  2117  02F3  3010               	movlw	16
  2118  02F4  3181  2157  3182   	fcall	_writePin
  2119  02F7                     l1348:	
  2120  02F7  3008               	movlw	8
  2121  02F8  3182  2252  3182   	fcall	_readPin
  2122  02FB  3A00               	xorlw	0
  2123  02FC  1903               	btfsc	3,2
  2124  02FD  2AF1               	goto	l1350
  2125  02FE  01F0               	clrf	writePin@value
  2126  02FF  2AF3               	goto	L1
  2127  0300                     __end_of_main:	
  2128                           
  2129                           	psect	text1
  2130  0157                     __ptext1:	
  2131 ;; *************** function _writePin *****************
  2132 ;; Defined at:
  2133 ;;		line 274 in file "pins.c"
  2134 ;; Parameters:    Size  Location     Type
  2135 ;;  write           1    wreg     enum E11183
  2136 ;;  value           1    0[COMMON] unsigned char 
  2137 ;; Auto vars:     Size  Location     Type
  2138 ;;  write           1    3[COMMON] enum E11183
  2139 ;; Return value:  Size  Location     Type
  2140 ;;                  1    wreg      void 
  2141 ;; Registers used:
  2142 ;;		wreg, fsr0l, fsr0h, status,2, status,0
  2143 ;; Tracked objects:
  2144 ;;		On entry : 0/0
  2145 ;;		On exit  : 0/0
  2146 ;;		Unchanged: 0/0
  2147 ;; Data sizes:     COMMON   BANK0   BANK1   BANK2   BANK3   BANK4   BANK5   BANK6   BANK7   BANK8   BANK9  BANK10  BANK1
      +1  BANK12  BANK13  BANK14  BANK15  BANK16  BANK17  BANK18  BANK19  BANK20  BANK21  BANK22  BANK23  BANK24  BANK25
  2148 ;;      Params:         1       0       0       0       0       0       0       0       0       0       0       0       
      +0       0       0       0       0       0       0       0       0       0       0       0       0       0       0
  2149 ;;      Locals:         1       0       0       0       0       0       0       0       0       0       0       0       
      +0       0       0       0       0       0       0       0       0       0       0       0       0       0       0
  2150 ;;      Temps:          2       0       0       0       0       0       0       0       0       0       0       0       
      +0       0       0       0       0       0       0       0       0       0       0       0       0       0       0
  2151 ;;      Totals:         4       0       0       0       0       0       0       0       0       0       0       0       
      +0       0       0       0       0       0       0       0       0       0       0       0       0       0       0
  2152 ;;Total ram usage:        4 bytes
  2153 ;; Hardware stack levels used:    1
  2154 ;; Hardware stack levels required when called:    1
  2155 ;; This function calls:
  2156 ;;		Nothing
  2157 ;; This function is called by:
  2158 ;;		_main
  2159 ;; This function uses a non-reentrant model
  2160 ;;
  2161                           
  2162                           
  2163                           ;psect for function _writePin
  2164  0157                     _writePin:	
  2165                           
  2166                           ;incstack = 0
  2167                           ; Regs used in _writePin: [wreg-fsr0h+status,2+status,0]
  2168                           ;writePin@write stored from wreg
  2169  0157  00F3               	movwf	writePin@write
  2170                           
  2171                           ;pins.c: 275:     switch(write) {
  2172  0158  2A14               	goto	l1336
  2173  0159                     l1266:	
  2174                           
  2175                           ;pins.c: 277:             LATAbits.LATA0 = value;
  2176  0159  0C70               	rrf	writePin@value,w
  2177  015A  0140               	movlb	0	; select bank0
  2178  015B  1C03               	skipc
  2179  015C  1018               	bcf	24,0	;volatile
  2180  015D  1803               	skipnc
  2181  015E  1418               	bsf	24,0	;volatile
  2182                           
  2183                           ;pins.c: 278:             pinStates[PINA0] = value;
  2184  015F  0870               	movf	writePin@value,w
  2185  0160  00F1               	movwf	??_writePin
  2186  0161  0871               	movf	??_writePin,w
  2187  0162  00A0               	movwf	_pinStates
  2188                           
  2189                           ;pins.c: 279:             break;
  2190  0163  0008               	return
  2191  0164                     l1270:	
  2192                           
  2193                           ;pins.c: 281:             LATAbits.LATA1 = value;
  2194  0164  0C70               	rrf	writePin@value,w
  2195  0165  0140               	movlb	0	; select bank0
  2196  0166  1C03               	skipc
  2197  0167  1098               	bcf	24,1	;volatile
  2198  0168  1803               	skipnc
  2199  0169  1498               	bsf	24,1	;volatile
  2200                           
  2201                           ;pins.c: 282:             pinStates[PINA1] = value;
  2202  016A  0870               	movf	writePin@value,w
  2203  016B  00F1               	movwf	??_writePin
  2204  016C  0871               	movf	??_writePin,w
  2205  016D  00A1               	movwf	_pinStates+1
  2206                           
  2207                           ;pins.c: 283:             break;
  2208  016E  0008               	return
  2209  016F                     l1274:	
  2210                           
  2211                           ;pins.c: 285:             LATAbits.LATA2 = value;
  2212  016F  0C70               	rrf	writePin@value,w
  2213  0170  0140               	movlb	0	; select bank0
  2214  0171  1C03               	skipc
  2215  0172  1118               	bcf	24,2	;volatile
  2216  0173  1803               	skipnc
  2217  0174  1518               	bsf	24,2	;volatile
  2218                           
  2219                           ;pins.c: 286:             pinStates[PINA2] = value;
  2220  0175  0870               	movf	writePin@value,w
  2221  0176  00F1               	movwf	??_writePin
  2222  0177  0871               	movf	??_writePin,w
  2223  0178  00A2               	movwf	_pinStates+2
  2224                           
  2225                           ;pins.c: 287:             break;
  2226  0179  0008               	return
  2227  017A                     l1278:	
  2228                           
  2229                           ;pins.c: 289:             LATAbits.LATA4 = value;
  2230  017A  0C70               	rrf	writePin@value,w
  2231  017B  0140               	movlb	0	; select bank0
  2232  017C  1C03               	skipc
  2233  017D  1218               	bcf	24,4	;volatile
  2234  017E  1803               	skipnc
  2235  017F  1618               	bsf	24,4	;volatile
  2236                           
  2237                           ;pins.c: 290:             pinStates[PINA4] = value;
  2238  0180  0870               	movf	writePin@value,w
  2239  0181  00F1               	movwf	??_writePin
  2240  0182  0871               	movf	??_writePin,w
  2241  0183  00A3               	movwf	_pinStates+3
  2242                           
  2243                           ;pins.c: 291:             break;
  2244  0184  0008               	return
  2245  0185                     l1282:	
  2246                           
  2247                           ;pins.c: 293:             LATAbits.LATA5 = value;
  2248  0185  0C70               	rrf	writePin@value,w
  2249  0186  0140               	movlb	0	; select bank0
  2250  0187  1C03               	skipc
  2251  0188  1298               	bcf	24,5	;volatile
  2252  0189  1803               	skipnc
  2253  018A  1698               	bsf	24,5	;volatile
  2254                           
  2255                           ;pins.c: 294:             pinStates[PINA5] = value;
  2256  018B  0870               	movf	writePin@value,w
  2257  018C  00F1               	movwf	??_writePin
  2258  018D  0871               	movf	??_writePin,w
  2259  018E  00A4               	movwf	_pinStates+4
  2260                           
  2261                           ;pins.c: 295:             break;
  2262  018F  0008               	return
  2263  0190                     l1286:	
  2264                           
  2265                           ;pins.c: 297:             LATBbits.LATB4 = value;
  2266  0190  0C70               	rrf	writePin@value,w
  2267  0191  0140               	movlb	0	; select bank0
  2268  0192  1C03               	skipc
  2269  0193  1219               	bcf	25,4	;volatile
  2270  0194  1803               	skipnc
  2271  0195  1619               	bsf	25,4	;volatile
  2272                           
  2273                           ;pins.c: 298:             pinStates[PINB4] = value;
  2274  0196  0870               	movf	writePin@value,w
  2275  0197  00F1               	movwf	??_writePin
  2276  0198  0871               	movf	??_writePin,w
  2277  0199  00A5               	movwf	_pinStates+5
  2278                           
  2279                           ;pins.c: 299:             break;
  2280  019A  0008               	return
  2281  019B                     l1290:	
  2282                           
  2283                           ;pins.c: 301:             LATBbits.LATB5 = value;
  2284  019B  0C70               	rrf	writePin@value,w
  2285  019C  0140               	movlb	0	; select bank0
  2286  019D  1C03               	skipc
  2287  019E  1299               	bcf	25,5	;volatile
  2288  019F  1803               	skipnc
  2289  01A0  1699               	bsf	25,5	;volatile
  2290                           
  2291                           ;pins.c: 302:             pinStates[PINB5] = value;
  2292  01A1  0870               	movf	writePin@value,w
  2293  01A2  00F1               	movwf	??_writePin
  2294  01A3  0871               	movf	??_writePin,w
  2295  01A4  00A6               	movwf	_pinStates+6
  2296                           
  2297                           ;pins.c: 303:             break;
  2298  01A5  0008               	return
  2299  01A6                     l1294:	
  2300                           
  2301                           ;pins.c: 305:             LATBbits.LATB6 = value;
  2302  01A6  0C70               	rrf	writePin@value,w
  2303  01A7  0140               	movlb	0	; select bank0
  2304  01A8  1C03               	skipc
  2305  01A9  1319               	bcf	25,6	;volatile
  2306  01AA  1803               	skipnc
  2307  01AB  1719               	bsf	25,6	;volatile
  2308                           
  2309                           ;pins.c: 306:             pinStates[PINB6] = value;
  2310  01AC  0870               	movf	writePin@value,w
  2311  01AD  00F1               	movwf	??_writePin
  2312  01AE  0871               	movf	??_writePin,w
  2313  01AF  00A7               	movwf	_pinStates+7
  2314                           
  2315                           ;pins.c: 307:             break;
  2316  01B0  0008               	return
  2317  01B1                     l1298:	
  2318                           
  2319                           ;pins.c: 309:             LATBbits.LATB7 = value;
  2320  01B1  0C70               	rrf	writePin@value,w
  2321  01B2  0140               	movlb	0	; select bank0
  2322  01B3  1C03               	skipc
  2323  01B4  1399               	bcf	25,7	;volatile
  2324  01B5  1803               	skipnc
  2325  01B6  1799               	bsf	25,7	;volatile
  2326                           
  2327                           ;pins.c: 310:             pinStates[PINB7] = value;
  2328  01B7  0870               	movf	writePin@value,w
  2329  01B8  00F1               	movwf	??_writePin
  2330  01B9  0871               	movf	??_writePin,w
  2331  01BA  00A8               	movwf	_pinStates+8
  2332                           
  2333                           ;pins.c: 311:             break;
  2334  01BB  0008               	return
  2335  01BC                     l1302:	
  2336                           
  2337                           ;pins.c: 313:             LATCbits.LATC0 = value;
  2338  01BC  0C70               	rrf	writePin@value,w
  2339  01BD  0140               	movlb	0	; select bank0
  2340  01BE  1C03               	skipc
  2341  01BF  101A               	bcf	26,0	;volatile
  2342  01C0  1803               	skipnc
  2343  01C1  141A               	bsf	26,0	;volatile
  2344                           
  2345                           ;pins.c: 314:             pinStates[PINC0] = value;
  2346  01C2  0870               	movf	writePin@value,w
  2347  01C3  00F1               	movwf	??_writePin
  2348  01C4  0871               	movf	??_writePin,w
  2349  01C5  00A9               	movwf	_pinStates+9
  2350                           
  2351                           ;pins.c: 315:             break;
  2352  01C6  0008               	return
  2353  01C7                     l1306:	
  2354                           
  2355                           ;pins.c: 317:             LATCbits.LATC1 = value;
  2356  01C7  0C70               	rrf	writePin@value,w
  2357  01C8  0140               	movlb	0	; select bank0
  2358  01C9  1C03               	skipc
  2359  01CA  109A               	bcf	26,1	;volatile
  2360  01CB  1803               	skipnc
  2361  01CC  149A               	bsf	26,1	;volatile
  2362                           
  2363                           ;pins.c: 318:             pinStates[PINC1] = value;
  2364  01CD  0870               	movf	writePin@value,w
  2365  01CE  00F1               	movwf	??_writePin
  2366  01CF  0871               	movf	??_writePin,w
  2367  01D0  00AA               	movwf	_pinStates+10
  2368                           
  2369                           ;pins.c: 319:             break;
  2370  01D1  0008               	return
  2371  01D2                     l1310:	
  2372                           
  2373                           ;pins.c: 321:             LATCbits.LATC2 = value;
  2374  01D2  0C70               	rrf	writePin@value,w
  2375  01D3  0140               	movlb	0	; select bank0
  2376  01D4  1C03               	skipc
  2377  01D5  111A               	bcf	26,2	;volatile
  2378  01D6  1803               	skipnc
  2379  01D7  151A               	bsf	26,2	;volatile
  2380                           
  2381                           ;pins.c: 322:             pinStates[PINC2] = value;
  2382  01D8  0870               	movf	writePin@value,w
  2383  01D9  00F1               	movwf	??_writePin
  2384  01DA  0871               	movf	??_writePin,w
  2385  01DB  00AB               	movwf	_pinStates+11
  2386                           
  2387                           ;pins.c: 323:             break;
  2388  01DC  0008               	return
  2389  01DD                     l1314:	
  2390                           
  2391                           ;pins.c: 325:             LATCbits.LATC3 = value;
  2392  01DD  0C70               	rrf	writePin@value,w
  2393  01DE  0140               	movlb	0	; select bank0
  2394  01DF  1C03               	skipc
  2395  01E0  119A               	bcf	26,3	;volatile
  2396  01E1  1803               	skipnc
  2397  01E2  159A               	bsf	26,3	;volatile
  2398                           
  2399                           ;pins.c: 326:             pinStates[PINC3] = value;
  2400  01E3  0870               	movf	writePin@value,w
  2401  01E4  00F1               	movwf	??_writePin
  2402  01E5  0871               	movf	??_writePin,w
  2403  01E6  00AC               	movwf	_pinStates+12
  2404                           
  2405                           ;pins.c: 327:             break;
  2406  01E7  0008               	return
  2407  01E8                     l1318:	
  2408                           
  2409                           ;pins.c: 329:             LATCbits.LATC4 = value;
  2410  01E8  0C70               	rrf	writePin@value,w
  2411  01E9  0140               	movlb	0	; select bank0
  2412  01EA  1C03               	skipc
  2413  01EB  121A               	bcf	26,4	;volatile
  2414  01EC  1803               	skipnc
  2415  01ED  161A               	bsf	26,4	;volatile
  2416                           
  2417                           ;pins.c: 330:             pinStates[PINC4] = value;
  2418  01EE  0870               	movf	writePin@value,w
  2419  01EF  00F1               	movwf	??_writePin
  2420  01F0  0871               	movf	??_writePin,w
  2421  01F1  00AD               	movwf	_pinStates+13
  2422                           
  2423                           ;pins.c: 331:             break;
  2424  01F2  0008               	return
  2425  01F3                     l1322:	
  2426                           
  2427                           ;pins.c: 333:             LATCbits.LATC5 = value;
  2428  01F3  0C70               	rrf	writePin@value,w
  2429  01F4  0140               	movlb	0	; select bank0
  2430  01F5  1C03               	skipc
  2431  01F6  129A               	bcf	26,5	;volatile
  2432  01F7  1803               	skipnc
  2433  01F8  169A               	bsf	26,5	;volatile
  2434                           
  2435                           ;pins.c: 334:             pinStates[PINC5] = value;
  2436  01F9  0870               	movf	writePin@value,w
  2437  01FA  00F1               	movwf	??_writePin
  2438  01FB  0871               	movf	??_writePin,w
  2439  01FC  00AE               	movwf	_pinStates+14
  2440                           
  2441                           ;pins.c: 335:             break;
  2442  01FD  0008               	return
  2443  01FE                     l1326:	
  2444                           
  2445                           ;pins.c: 337:             LATCbits.LATC6 = value;
  2446  01FE  0C70               	rrf	writePin@value,w
  2447  01FF  0140               	movlb	0	; select bank0
  2448  0200  1C03               	skipc
  2449  0201  131A               	bcf	26,6	;volatile
  2450  0202  1803               	skipnc
  2451  0203  171A               	bsf	26,6	;volatile
  2452                           
  2453                           ;pins.c: 338:             pinStates[PINC6] = value;
  2454  0204  0870               	movf	writePin@value,w
  2455  0205  00F1               	movwf	??_writePin
  2456  0206  0871               	movf	??_writePin,w
  2457  0207  00AF               	movwf	_pinStates+15
  2458                           
  2459                           ;pins.c: 339:             break;
  2460  0208  0008               	return
  2461  0209                     l1330:	
  2462                           
  2463                           ;pins.c: 341:             LATCbits.LATC7 = value;
  2464  0209  0C70               	rrf	writePin@value,w
  2465  020A  0140               	movlb	0	; select bank0
  2466  020B  1C03               	skipc
  2467  020C  139A               	bcf	26,7	;volatile
  2468  020D  1803               	skipnc
  2469  020E  179A               	bsf	26,7	;volatile
  2470                           
  2471                           ;pins.c: 342:             pinStates[PINC7] = value;
  2472  020F  0870               	movf	writePin@value,w
  2473  0210  00F1               	movwf	??_writePin
  2474  0211  0871               	movf	??_writePin,w
  2475  0212  00B0               	movwf	_pinStates+16
  2476                           
  2477                           ;pins.c: 343:             break;
  2478  0213  0008               	return
  2479  0214                     l1336:	
  2480  0214  0873               	movf	writePin@write,w
  2481  0215  00F1               	movwf	??_writePin
  2482  0216  01F2               	clrf	??_writePin+1
  2483                           
  2484                           ; Switch on 2 bytes has been partitioned into a top level switch of size 1, and 1 sub-sw
      +                          itches
  2485                           ; Switch size 1, requested type "simple"
  2486                           ; Number of cases is 1, Range of values is 0 to 0
  2487                           ; switch strategies available:
  2488                           ; Name         Instructions Cycles
  2489                           ; simple_byte            4     3 (average)
  2490                           ; direct_byte            8     6 (fixed)
  2491                           ; jumptable            260     6 (fixed)
  2492                           ;	Chosen strategy is simple_byte
  2493  0217  0872               	movf	??_writePin+1,w
  2494  0218  3A00               	xorlw	0	; case 0
  2495  0219  1903               	skipnz
  2496  021A  2A1C               	goto	l1446
  2497  021B  2A51               	goto	l197
  2498  021C                     l1446:	
  2499                           
  2500                           ; Switch size 1, requested type "simple"
  2501                           ; Number of cases is 17, Range of values is 0 to 16
  2502                           ; switch strategies available:
  2503                           ; Name         Instructions Cycles
  2504                           ; direct_byte           40     6 (fixed)
  2505                           ; simple_byte           52    27 (average)
  2506                           ; jumptable            260     6 (fixed)
  2507                           ;	Chosen strategy is simple_byte
  2508  021C  0871               	movf	??_writePin,w
  2509  021D  3A00               	xorlw	0	; case 0
  2510  021E  1903               	skipnz
  2511  021F  2959               	goto	l1266
  2512  0220  3A01               	xorlw	1	; case 1
  2513  0221  1903               	skipnz
  2514  0222  2964               	goto	l1270
  2515  0223  3A03               	xorlw	3	; case 2
  2516  0224  1903               	skipnz
  2517  0225  296F               	goto	l1274
  2518  0226  3A01               	xorlw	1	; case 3
  2519  0227  1903               	skipnz
  2520  0228  297A               	goto	l1278
  2521  0229  3A07               	xorlw	7	; case 4
  2522  022A  1903               	skipnz
  2523  022B  2985               	goto	l1282
  2524  022C  3A01               	xorlw	1	; case 5
  2525  022D  1903               	skipnz
  2526  022E  2990               	goto	l1286
  2527  022F  3A03               	xorlw	3	; case 6
  2528  0230  1903               	skipnz
  2529  0231  299B               	goto	l1290
  2530  0232  3A01               	xorlw	1	; case 7
  2531  0233  1903               	skipnz
  2532  0234  29A6               	goto	l1294
  2533  0235  3A0F               	xorlw	15	; case 8
  2534  0236  1903               	skipnz
  2535  0237  29B1               	goto	l1298
  2536  0238  3A01               	xorlw	1	; case 9
  2537  0239  1903               	skipnz
  2538  023A  29BC               	goto	l1302
  2539  023B  3A03               	xorlw	3	; case 10
  2540  023C  1903               	skipnz
  2541  023D  29C7               	goto	l1306
  2542  023E  3A01               	xorlw	1	; case 11
  2543  023F  1903               	skipnz
  2544  0240  29D2               	goto	l1310
  2545  0241  3A07               	xorlw	7	; case 12
  2546  0242  1903               	skipnz
  2547  0243  29DD               	goto	l1314
  2548  0244  3A01               	xorlw	1	; case 13
  2549  0245  1903               	skipnz
  2550  0246  29E8               	goto	l1318
  2551  0247  3A03               	xorlw	3	; case 14
  2552  0248  1903               	skipnz
  2553  0249  29F3               	goto	l1322
  2554  024A  3A01               	xorlw	1	; case 15
  2555  024B  1903               	skipnz
  2556  024C  29FE               	goto	l1326
  2557  024D  3A1F               	xorlw	31	; case 16
  2558  024E  1903               	skipnz
  2559  024F  2A09               	goto	l1330
  2560  0250  2A51               	goto	l197
  2561  0251                     l197:	
  2562  0251  0008               	return
  2563  0252                     __end_of_writePin:	
  2564                           
  2565                           	psect	text2
  2566  0300                     __ptext2:	
  2567 ;; *************** function _timer0_config *****************
  2568 ;; Defined at:
  2569 ;;		line 18 in file "timer0.c"
  2570 ;; Parameters:    Size  Location     Type
  2571 ;;		None
  2572 ;; Auto vars:     Size  Location     Type
  2573 ;;		None
  2574 ;; Return value:  Size  Location     Type
  2575 ;;                  1    wreg      void 
  2576 ;; Registers used:
  2577 ;;		wreg, status,2, status,0
  2578 ;; Tracked objects:
  2579 ;;		On entry : 0/0
  2580 ;;		On exit  : 0/0
  2581 ;;		Unchanged: 0/0
  2582 ;; Data sizes:     COMMON   BANK0   BANK1   BANK2   BANK3   BANK4   BANK5   BANK6   BANK7   BANK8   BANK9  BANK10  BANK1
      +1  BANK12  BANK13  BANK14  BANK15  BANK16  BANK17  BANK18  BANK19  BANK20  BANK21  BANK22  BANK23  BANK24  BANK25
  2583 ;;      Params:         0       0       0       0       0       0       0       0       0       0       0       0       
      +0       0       0       0       0       0       0       0       0       0       0       0       0       0       0
  2584 ;;      Locals:         0       0       0       0       0       0       0       0       0       0       0       0       
      +0       0       0       0       0       0       0       0       0       0       0       0       0       0       0
  2585 ;;      Temps:          0       0       0       0       0       0       0       0       0       0       0       0       
      +0       0       0       0       0       0       0       0       0       0       0       0       0       0       0
  2586 ;;      Totals:         0       0       0       0       0       0       0       0       0       0       0       0       
      +0       0       0       0       0       0       0       0       0       0       0       0       0       0       0
  2587 ;;Total ram usage:        0 bytes
  2588 ;; Hardware stack levels used:    1
  2589 ;; Hardware stack levels required when called:    1
  2590 ;; This function calls:
  2591 ;;		Nothing
  2592 ;; This function is called by:
  2593 ;;		_main
  2594 ;; This function uses a non-reentrant model
  2595 ;;
  2596                           
  2597                           
  2598                           ;psect for function _timer0_config
  2599  0300                     _timer0_config:	
  2600                           
  2601                           ;timer0.c: 19:     T0CON0bits.EN = 1;
  2602                           
  2603                           ;incstack = 0
  2604                           ; Regs used in _timer0_config: [wreg+status,2+status,0]
  2605  0300  014B               	movlb	11	; select bank11
  2606  0301  179E               	bsf	30,7	;volatile
  2607                           
  2608                           ;timer0.c: 20:     T0CON1bits.T0CS = 0b010;
  2609  0302  081F               	movf	31,w	;volatile
  2610  0303  391F               	andlw	-225
  2611  0304  3840               	iorlw	64
  2612  0305  009F               	movwf	31	;volatile
  2613                           
  2614                           ;timer0.c: 21:     T0CON1bits.CKPS = 0b0101;
  2615  0306  081F               	movf	31,w	;volatile
  2616  0307  39F0               	andlw	-16
  2617  0308  3805               	iorlw	5
  2618  0309  009F               	movwf	31	;volatile
  2619                           
  2620                           ;timer0.c: 22:     T0CON1bits.ASYNC = 0;
  2621  030A  121F               	bcf	31,4	;volatile
  2622                           
  2623                           ;timer0.c: 23:     TMR0H = 249;
  2624  030B  30F9               	movlw	249
  2625  030C  009D               	movwf	29	;volatile
  2626                           
  2627                           ;timer0.c: 24:     INTCONbits.GIE = 1;
  2628  030D  178B               	bsf	11,7	;volatile
  2629                           
  2630                           ;timer0.c: 25:     PIE0bits.TMR0IE = 1;
  2631  030E  014E               	movlb	14	; select bank14
  2632  030F  1696               	bsf	22,5	;volatile
  2633  0310  0008               	return
  2634  0311                     __end_of_timer0_config:	
  2635                           
  2636                           	psect	text3
  2637  0252                     __ptext3:	
  2638 ;; *************** function _readPin *****************
  2639 ;; Defined at:
  2640 ;;		line 167 in file "pins.c"
  2641 ;; Parameters:    Size  Location     Type
  2642 ;;  read            1    wreg     enum E11183
  2643 ;; Auto vars:     Size  Location     Type
  2644 ;;  read            1    2[COMMON] enum E11183
  2645 ;; Return value:  Size  Location     Type
  2646 ;;                  1    wreg      _Bool 
  2647 ;; Registers used:
  2648 ;;		wreg, fsr0l, fsr0h, status,2, status,0
  2649 ;; Tracked objects:
  2650 ;;		On entry : 0/0
  2651 ;;		On exit  : 0/0
  2652 ;;		Unchanged: 0/0
  2653 ;; Data sizes:     COMMON   BANK0   BANK1   BANK2   BANK3   BANK4   BANK5   BANK6   BANK7   BANK8   BANK9  BANK10  BANK1
      +1  BANK12  BANK13  BANK14  BANK15  BANK16  BANK17  BANK18  BANK19  BANK20  BANK21  BANK22  BANK23  BANK24  BANK25
  2654 ;;      Params:         0       0       0       0       0       0       0       0       0       0       0       0       
      +0       0       0       0       0       0       0       0       0       0       0       0       0       0       0
  2655 ;;      Locals:         1       0       0       0       0       0       0       0       0       0       0       0       
      +0       0       0       0       0       0       0       0       0       0       0       0       0       0       0
  2656 ;;      Temps:          2       0       0       0       0       0       0       0       0       0       0       0       
      +0       0       0       0       0       0       0       0       0       0       0       0       0       0       0
  2657 ;;      Totals:         3       0       0       0       0       0       0       0       0       0       0       0       
      +0       0       0       0       0       0       0       0       0       0       0       0       0       0       0
  2658 ;;Total ram usage:        3 bytes
  2659 ;; Hardware stack levels used:    1
  2660 ;; Hardware stack levels required when called:    1
  2661 ;; This function calls:
  2662 ;;		Nothing
  2663 ;; This function is called by:
  2664 ;;		_main
  2665 ;; This function uses a non-reentrant model
  2666 ;;
  2667                           
  2668                           
  2669                           ;psect for function _readPin
  2670  0252                     _readPin:	
  2671                           
  2672                           ;incstack = 0
  2673                           ; Regs used in _readPin: [wreg-fsr0h+status,2+status,0]
  2674                           ;readPin@read stored from wreg
  2675  0252  00F2               	movwf	readPin@read
  2676                           
  2677                           ;pins.c: 168:     switch (read) {
  2678  0253  2A9B               	goto	l1044
  2679  0254                     l123:	
  2680                           ;pins.c: 169:         case PINA0 :
  2681                           
  2682                           
  2683                           ;pins.c: 170:             if(PORTAbits.RA0 == 0) {
  2684  0254  0140               	movlb	0	; select bank0
  2685  0255  180C               	btfsc	12,0	;volatile
  2686  0256  2A59               	goto	l880
  2687  0257                     l874:	
  2688                           
  2689                           ;pins.c: 171:                 return 0;
  2690  0257  3000               	movlw	0
  2691  0258  0008               	return
  2692  0259                     l880:	
  2693                           
  2694                           ;pins.c: 173:                 return 1;
  2695  0259  3001               	movlw	1
  2696  025A  0008               	return
  2697  025B                     l127:	
  2698                           ;pins.c: 175:         case PINA1 :
  2699                           
  2700                           
  2701                           ;pins.c: 176:             if(PORTAbits.RA1 == 0) {
  2702  025B  0140               	movlb	0	; select bank0
  2703  025C  1C8C               	btfss	12,1	;volatile
  2704  025D  2A57               	goto	l874
  2705  025E  2A59               	goto	l880
  2706  025F                     l130:	
  2707                           ;pins.c: 181:         case PINA2 :
  2708                           
  2709                           
  2710                           ;pins.c: 182:             if(PORTAbits.RA2 == 0) {
  2711  025F  0140               	movlb	0	; select bank0
  2712  0260  190C               	btfsc	12,2	;volatile
  2713  0261  2A59               	goto	l880
  2714  0262  2A57               	goto	l874
  2715  0263                     l133:	
  2716                           ;pins.c: 187:         case PINA4 :
  2717                           
  2718                           
  2719                           ;pins.c: 188:             if(PORTAbits.RA4 == 0) {
  2720  0263  0140               	movlb	0	; select bank0
  2721  0264  1A0C               	btfsc	12,4	;volatile
  2722  0265  2A59               	goto	l880
  2723  0266  2A57               	goto	l874
  2724  0267                     l136:	
  2725                           ;pins.c: 193:         case PINA5 :
  2726                           
  2727                           
  2728                           ;pins.c: 194:             if(PORTAbits.RA5 == 0) {
  2729  0267  0140               	movlb	0	; select bank0
  2730  0268  1A8C               	btfsc	12,5	;volatile
  2731  0269  2A59               	goto	l880
  2732  026A  2A57               	goto	l874
  2733  026B                     l139:	
  2734                           ;pins.c: 199:         case PINB4 :
  2735                           
  2736                           
  2737                           ;pins.c: 200:             if(PORTBbits.RB4 == 0) {
  2738  026B  0140               	movlb	0	; select bank0
  2739  026C  1A0D               	btfsc	13,4	;volatile
  2740  026D  2A59               	goto	l880
  2741  026E  2A57               	goto	l874
  2742  026F                     l142:	
  2743                           ;pins.c: 205:         case PINB5 :
  2744                           
  2745                           
  2746                           ;pins.c: 206:             if(PORTBbits.RB5 == 0) {
  2747  026F  0140               	movlb	0	; select bank0
  2748  0270  1A8D               	btfsc	13,5	;volatile
  2749  0271  2A59               	goto	l880
  2750  0272  2A57               	goto	l874
  2751  0273                     l145:	
  2752                           ;pins.c: 211:         case PINB6 :
  2753                           
  2754                           
  2755                           ;pins.c: 212:             if(PORTBbits.RB6 == 0) {
  2756  0273  0140               	movlb	0	; select bank0
  2757  0274  1B0D               	btfsc	13,6	;volatile
  2758  0275  2A59               	goto	l880
  2759  0276  2A57               	goto	l874
  2760  0277                     l148:	
  2761                           ;pins.c: 217:         case PINB7 :
  2762                           
  2763                           
  2764                           ;pins.c: 218:             if(PORTBbits.RB7 == 0) {
  2765  0277  0140               	movlb	0	; select bank0
  2766  0278  1B8D               	btfsc	13,7	;volatile
  2767  0279  2A59               	goto	l880
  2768  027A  2A57               	goto	l874
  2769  027B                     l151:	
  2770                           ;pins.c: 223:         case PINC0 :
  2771                           
  2772                           
  2773                           ;pins.c: 224:             if(PORTCbits.RC0 == 0) {
  2774  027B  0140               	movlb	0	; select bank0
  2775  027C  180E               	btfsc	14,0	;volatile
  2776  027D  2A59               	goto	l880
  2777  027E  2A57               	goto	l874
  2778  027F                     l154:	
  2779                           ;pins.c: 229:         case PINC1 :
  2780                           
  2781                           
  2782                           ;pins.c: 230:             if(PORTCbits.RC1 == 0) {
  2783  027F  0140               	movlb	0	; select bank0
  2784  0280  188E               	btfsc	14,1	;volatile
  2785  0281  2A59               	goto	l880
  2786  0282  2A57               	goto	l874
  2787  0283                     l157:	
  2788                           ;pins.c: 235:         case PINC2 :
  2789                           
  2790                           
  2791                           ;pins.c: 236:             if(PORTCbits.RC2 == 0) {
  2792  0283  0140               	movlb	0	; select bank0
  2793  0284  190E               	btfsc	14,2	;volatile
  2794  0285  2A59               	goto	l880
  2795  0286  2A57               	goto	l874
  2796  0287                     l160:	
  2797                           ;pins.c: 241:         case PINC3 :
  2798                           
  2799                           
  2800                           ;pins.c: 242:             if(PORTCbits.RC3 == 0) {
  2801  0287  0140               	movlb	0	; select bank0
  2802  0288  198E               	btfsc	14,3	;volatile
  2803  0289  2A59               	goto	l880
  2804  028A  2A57               	goto	l874
  2805  028B                     l163:	
  2806                           ;pins.c: 247:         case PINC4 :
  2807                           
  2808                           
  2809                           ;pins.c: 248:             if(PORTCbits.RC4 == 0) {
  2810  028B  0140               	movlb	0	; select bank0
  2811  028C  1A0E               	btfsc	14,4	;volatile
  2812  028D  2A59               	goto	l880
  2813  028E  2A57               	goto	l874
  2814  028F                     l166:	
  2815                           ;pins.c: 253:         case PINC5 :
  2816                           
  2817                           
  2818                           ;pins.c: 254:             if(PORTCbits.RC5 == 0) {
  2819  028F  0140               	movlb	0	; select bank0
  2820  0290  1A8E               	btfsc	14,5	;volatile
  2821  0291  2A59               	goto	l880
  2822  0292  2A57               	goto	l874
  2823  0293                     l169:	
  2824                           ;pins.c: 259:         case PINC6:
  2825                           
  2826                           
  2827                           ;pins.c: 260:             if(PORTCbits.RC6 == 0) {
  2828  0293  0140               	movlb	0	; select bank0
  2829  0294  1B0E               	btfsc	14,6	;volatile
  2830  0295  2A59               	goto	l880
  2831  0296  2A57               	goto	l874
  2832  0297                     l172:	
  2833                           ;pins.c: 265:         case PINC7:
  2834                           
  2835                           
  2836                           ;pins.c: 266:             if(PORTCbits.RC7 == 0) {
  2837  0297  0140               	movlb	0	; select bank0
  2838  0298  1B8E               	btfsc	14,7	;volatile
  2839  0299  2A59               	goto	l880
  2840  029A  2A57               	goto	l874
  2841  029B                     l1044:	
  2842  029B  0872               	movf	readPin@read,w
  2843  029C  00F0               	movwf	??_readPin
  2844  029D  01F1               	clrf	??_readPin+1
  2845                           
  2846                           ; Switch on 2 bytes has been partitioned into a top level switch of size 1, and 1 sub-sw
      +                          itches
  2847                           ; Switch size 1, requested type "simple"
  2848                           ; Number of cases is 1, Range of values is 0 to 0
  2849                           ; switch strategies available:
  2850                           ; Name         Instructions Cycles
  2851                           ; simple_byte            4     3 (average)
  2852                           ; direct_byte            8     6 (fixed)
  2853                           ; jumptable            260     6 (fixed)
  2854                           ;	Chosen strategy is simple_byte
  2855  029E  0871               	movf	??_readPin+1,w
  2856  029F  3A00               	xorlw	0	; case 0
  2857  02A0  1903               	skipnz
  2858  02A1  2AA3               	goto	l1448
  2859  02A2  2AD8               	goto	l125
  2860  02A3                     l1448:	
  2861                           
  2862                           ; Switch size 1, requested type "simple"
  2863                           ; Number of cases is 17, Range of values is 0 to 16
  2864                           ; switch strategies available:
  2865                           ; Name         Instructions Cycles
  2866                           ; direct_byte           40     6 (fixed)
  2867                           ; simple_byte           52    27 (average)
  2868                           ; jumptable            260     6 (fixed)
  2869                           ;	Chosen strategy is simple_byte
  2870  02A3  0870               	movf	??_readPin,w
  2871  02A4  3A00               	xorlw	0	; case 0
  2872  02A5  1903               	skipnz
  2873  02A6  2A54               	goto	l123
  2874  02A7  3A01               	xorlw	1	; case 1
  2875  02A8  1903               	skipnz
  2876  02A9  2A5B               	goto	l127
  2877  02AA  3A03               	xorlw	3	; case 2
  2878  02AB  1903               	skipnz
  2879  02AC  2A5F               	goto	l130
  2880  02AD  3A01               	xorlw	1	; case 3
  2881  02AE  1903               	skipnz
  2882  02AF  2A63               	goto	l133
  2883  02B0  3A07               	xorlw	7	; case 4
  2884  02B1  1903               	skipnz
  2885  02B2  2A67               	goto	l136
  2886  02B3  3A01               	xorlw	1	; case 5
  2887  02B4  1903               	skipnz
  2888  02B5  2A6B               	goto	l139
  2889  02B6  3A03               	xorlw	3	; case 6
  2890  02B7  1903               	skipnz
  2891  02B8  2A6F               	goto	l142
  2892  02B9  3A01               	xorlw	1	; case 7
  2893  02BA  1903               	skipnz
  2894  02BB  2A73               	goto	l145
  2895  02BC  3A0F               	xorlw	15	; case 8
  2896  02BD  1903               	skipnz
  2897  02BE  2A77               	goto	l148
  2898  02BF  3A01               	xorlw	1	; case 9
  2899  02C0  1903               	skipnz
  2900  02C1  2A7B               	goto	l151
  2901  02C2  3A03               	xorlw	3	; case 10
  2902  02C3  1903               	skipnz
  2903  02C4  2A7F               	goto	l154
  2904  02C5  3A01               	xorlw	1	; case 11
  2905  02C6  1903               	skipnz
  2906  02C7  2A83               	goto	l157
  2907  02C8  3A07               	xorlw	7	; case 12
  2908  02C9  1903               	skipnz
  2909  02CA  2A87               	goto	l160
  2910  02CB  3A01               	xorlw	1	; case 13
  2911  02CC  1903               	skipnz
  2912  02CD  2A8B               	goto	l163
  2913  02CE  3A03               	xorlw	3	; case 14
  2914  02CF  1903               	skipnz
  2915  02D0  2A8F               	goto	l166
  2916  02D1  3A01               	xorlw	1	; case 15
  2917  02D2  1903               	skipnz
  2918  02D3  2A93               	goto	l169
  2919  02D4  3A1F               	xorlw	31	; case 16
  2920  02D5  1903               	skipnz
  2921  02D6  2A97               	goto	l172
  2922  02D7  2AD8               	goto	l125
  2923  02D8                     l125:	
  2924  02D8  0008               	return
  2925  02D9                     __end_of_readPin:	
  2926                           
  2927                           	psect	text4
  2928  0023                     __ptext4:	
  2929 ;; *************** function _defineGPIODirection *****************
  2930 ;; Defined at:
  2931 ;;		line 18 in file "pins.c"
  2932 ;; Parameters:    Size  Location     Type
  2933 ;;  input           1    wreg     PTR enum E11183
  2934 ;;		 -> main@input(1), 
  2935 ;;  output          1    0[COMMON] PTR enum E11183
  2936 ;;		 -> main@output(1), 
  2937 ;;  inputLength     1    1[COMMON] unsigned char 
  2938 ;;  outputLength    1    2[COMMON] unsigned char 
  2939 ;; Auto vars:     Size  Location     Type
  2940 ;;  input           1    6[COMMON] PTR enum E11183
  2941 ;;		 -> main@input(1), 
  2942 ;;  i               1    7[COMMON] unsigned char 
  2943 ;; Return value:  Size  Location     Type
  2944 ;;                  1    wreg      void 
  2945 ;; Registers used:
  2946 ;;		wreg, fsr0l, fsr0h, fsr1l, fsr1h, status,2, status,0
  2947 ;; Tracked objects:
  2948 ;;		On entry : 0/0
  2949 ;;		On exit  : 0/0
  2950 ;;		Unchanged: 0/0
  2951 ;; Data sizes:     COMMON   BANK0   BANK1   BANK2   BANK3   BANK4   BANK5   BANK6   BANK7   BANK8   BANK9  BANK10  BANK1
      +1  BANK12  BANK13  BANK14  BANK15  BANK16  BANK17  BANK18  BANK19  BANK20  BANK21  BANK22  BANK23  BANK24  BANK25
  2952 ;;      Params:         3       0       0       0       0       0       0       0       0       0       0       0       
      +0       0       0       0       0       0       0       0       0       0       0       0       0       0       0
  2953 ;;      Locals:         2       0       0       0       0       0       0       0       0       0       0       0       
      +0       0       0       0       0       0       0       0       0       0       0       0       0       0       0
  2954 ;;      Temps:          3       0       0       0       0       0       0       0       0       0       0       0       
      +0       0       0       0       0       0       0       0       0       0       0       0       0       0       0
  2955 ;;      Totals:         8       0       0       0       0       0       0       0       0       0       0       0       
      +0       0       0       0       0       0       0       0       0       0       0       0       0       0       0
  2956 ;;Total ram usage:        8 bytes
  2957 ;; Hardware stack levels used:    1
  2958 ;; Hardware stack levels required when called:    1
  2959 ;; This function calls:
  2960 ;;		Nothing
  2961 ;; This function is called by:
  2962 ;;		_main
  2963 ;; This function uses a non-reentrant model
  2964 ;;
  2965                           
  2966                           
  2967                           ;psect for function _defineGPIODirection
  2968  0023                     _defineGPIODirection:	
  2969                           
  2970                           ;incstack = 0
  2971                           ; Regs used in _defineGPIODirection: [wreg-fsr1h+status,2+status,0]
  2972                           ;defineGPIODirection@input stored from wreg
  2973  0023  00F6               	movwf	defineGPIODirection@input
  2974                           
  2975                           ;pins.c: 19:     uint8_t i;;pins.c: 20:     for(i = 0; i < inputLength; i++) {
  2976  0024  01F7               	clrf	defineGPIODirection@i
  2977  0025  288F               	goto	l1244
  2978  0026                     l78:	
  2979                           ;pins.c: 22:             case PINA0 :
  2980                           
  2981                           
  2982                           ;pins.c: 23:                 TRISAbits.TRISA0 = 1;
  2983  0026  0140               	movlb	0	; select bank0
  2984  0027  1412               	bsf	18,0	;volatile
  2985                           
  2986                           ;pins.c: 24:                 ANSELAbits.ANSA0 = 0;
  2987  0028  017E               	movlb	62	; select bank62
  2988  0029  1038               	bcf	56,0	;volatile
  2989                           
  2990                           ;pins.c: 25:                 WPUAbits.WPUA0 = 1;
  2991  002A  1439               	bsf	57,0	;volatile
  2992                           
  2993                           ;pins.c: 26:                 break;
  2994  002B  288B               	goto	l1242
  2995  002C                     l80:	
  2996                           ;pins.c: 27:             case PINA1 :
  2997                           
  2998                           
  2999                           ;pins.c: 28:                 TRISAbits.TRISA1 = 1;
  3000  002C  0140               	movlb	0	; select bank0
  3001  002D  1492               	bsf	18,1	;volatile
  3002                           
  3003                           ;pins.c: 29:                 ANSELAbits.ANSA1 = 0;
  3004  002E  017E               	movlb	62	; select bank62
  3005  002F  10B8               	bcf	56,1	;volatile
  3006                           
  3007                           ;pins.c: 30:                 WPUAbits.WPUA1 = 1;
  3008  0030  14B9               	bsf	57,1	;volatile
  3009                           
  3010                           ;pins.c: 31:                 break;
  3011  0031  288B               	goto	l1242
  3012  0032                     l81:	
  3013                           ;pins.c: 32:             case PINA2 :
  3014                           
  3015                           
  3016                           ;pins.c: 33:                 TRISAbits.TRISA2 = 1;
  3017  0032  0140               	movlb	0	; select bank0
  3018  0033  1512               	bsf	18,2	;volatile
  3019                           
  3020                           ;pins.c: 34:                 ANSELAbits.ANSA2 = 0;
  3021  0034  017E               	movlb	62	; select bank62
  3022  0035  1138               	bcf	56,2	;volatile
  3023                           
  3024                           ;pins.c: 35:                 WPUAbits.WPUA2 = 1;
  3025  0036  1539               	bsf	57,2	;volatile
  3026                           
  3027                           ;pins.c: 36:                 break;
  3028  0037  288B               	goto	l1242
  3029  0038                     l82:	
  3030                           ;pins.c: 37:             case PINA4 :
  3031                           
  3032                           
  3033                           ;pins.c: 38:                 TRISAbits.TRISA4 = 1;
  3034  0038  0140               	movlb	0	; select bank0
  3035  0039  1612               	bsf	18,4	;volatile
  3036                           
  3037                           ;pins.c: 39:                 ANSELAbits.ANSA4 = 0;
  3038  003A  017E               	movlb	62	; select bank62
  3039  003B  1238               	bcf	56,4	;volatile
  3040                           
  3041                           ;pins.c: 40:                 WPUAbits.WPUA4 = 1;
  3042  003C  1639               	bsf	57,4	;volatile
  3043                           
  3044                           ;pins.c: 41:                 break;
  3045  003D  288B               	goto	l1242
  3046  003E                     l83:	
  3047                           ;pins.c: 42:             case PINA5 :
  3048                           
  3049                           
  3050                           ;pins.c: 43:                 TRISAbits.TRISA5 = 1;
  3051  003E  0140               	movlb	0	; select bank0
  3052  003F  1692               	bsf	18,5	;volatile
  3053                           
  3054                           ;pins.c: 44:                 ANSELAbits.ANSA5 = 0;
  3055  0040  017E               	movlb	62	; select bank62
  3056  0041  12B8               	bcf	56,5	;volatile
  3057                           
  3058                           ;pins.c: 45:                 WPUAbits.WPUA5 = 1;
  3059  0042  16B9               	bsf	57,5	;volatile
  3060                           
  3061                           ;pins.c: 46:                 break;
  3062  0043  288B               	goto	l1242
  3063  0044                     l84:	
  3064                           ;pins.c: 47:             case PINB4 :
  3065                           
  3066                           
  3067                           ;pins.c: 48:                 TRISBbits.TRISB4 = 1;
  3068  0044  0140               	movlb	0	; select bank0
  3069  0045  1613               	bsf	19,4	;volatile
  3070                           
  3071                           ;pins.c: 49:                 ANSELBbits.ANSB4 = 0;
  3072  0046  017E               	movlb	62	; select bank62
  3073  0047  1243               	bcf	67,4	;volatile
  3074                           
  3075                           ;pins.c: 50:                 WPUBbits.WPUB4 = 1;
  3076  0048  1644               	bsf	68,4	;volatile
  3077                           
  3078                           ;pins.c: 51:                 break;
  3079  0049  288B               	goto	l1242
  3080  004A                     l85:	
  3081                           ;pins.c: 52:             case PINB5 :
  3082                           
  3083                           
  3084                           ;pins.c: 53:                 TRISBbits.TRISB5 = 1;
  3085  004A  0140               	movlb	0	; select bank0
  3086  004B  1693               	bsf	19,5	;volatile
  3087                           
  3088                           ;pins.c: 54:                 ANSELBbits.ANSB5 = 0;
  3089  004C  017E               	movlb	62	; select bank62
  3090  004D  12C3               	bcf	67,5	;volatile
  3091                           
  3092                           ;pins.c: 55:                 WPUBbits.WPUB5 = 1;
  3093  004E  16C4               	bsf	68,5	;volatile
  3094                           
  3095                           ;pins.c: 56:                 break;
  3096  004F  288B               	goto	l1242
  3097  0050                     l86:	
  3098                           ;pins.c: 57:             case PINB6 :
  3099                           
  3100                           
  3101                           ;pins.c: 58:                 TRISBbits.TRISB6 = 1;
  3102  0050  0140               	movlb	0	; select bank0
  3103  0051  1713               	bsf	19,6	;volatile
  3104                           
  3105                           ;pins.c: 59:                 ANSELBbits.ANSB6 = 0;
  3106  0052  017E               	movlb	62	; select bank62
  3107  0053  1343               	bcf	67,6	;volatile
  3108                           
  3109                           ;pins.c: 60:                 WPUBbits.WPUB6 = 1;
  3110  0054  1744               	bsf	68,6	;volatile
  3111                           
  3112                           ;pins.c: 61:                 break;
  3113  0055  288B               	goto	l1242
  3114  0056                     l87:	
  3115                           ;pins.c: 62:             case PINB7 :
  3116                           
  3117                           
  3118                           ;pins.c: 63:                 TRISBbits.TRISB7 = 1;
  3119  0056  0140               	movlb	0	; select bank0
  3120  0057  1793               	bsf	19,7	;volatile
  3121                           
  3122                           ;pins.c: 64:                 ANSELBbits.ANSB7 = 0;
  3123  0058  017E               	movlb	62	; select bank62
  3124  0059  13C3               	bcf	67,7	;volatile
  3125                           
  3126                           ;pins.c: 65:                 WPUBbits.WPUB7 = 1;
  3127  005A  17C4               	bsf	68,7	;volatile
  3128                           
  3129                           ;pins.c: 66:                 break;
  3130  005B  288B               	goto	l1242
  3131  005C                     l88:	
  3132                           ;pins.c: 67:             case PINC0 :
  3133                           
  3134                           
  3135                           ;pins.c: 68:                 TRISCbits.TRISC0 = 1;
  3136  005C  0140               	movlb	0	; select bank0
  3137  005D  1414               	bsf	20,0	;volatile
  3138                           
  3139                           ;pins.c: 69:                 ANSELCbits.ANSC0 = 0;
  3140  005E  017E               	movlb	62	; select bank62
  3141  005F  104E               	bcf	78,0	;volatile
  3142                           
  3143                           ;pins.c: 70:                 WPUCbits.WPUC0 = 1;
  3144  0060  144F               	bsf	79,0	;volatile
  3145                           
  3146                           ;pins.c: 71:                 break;
  3147  0061  288B               	goto	l1242
  3148  0062                     l89:	
  3149                           ;pins.c: 72:             case PINC1 :
  3150                           
  3151                           
  3152                           ;pins.c: 73:                 TRISCbits.TRISC1 = 1;
  3153  0062  0140               	movlb	0	; select bank0
  3154  0063  1494               	bsf	20,1	;volatile
  3155                           
  3156                           ;pins.c: 74:                 ANSELCbits.ANSC1 = 0;
  3157  0064  017E               	movlb	62	; select bank62
  3158  0065  10CE               	bcf	78,1	;volatile
  3159                           
  3160                           ;pins.c: 75:                 WPUCbits.WPUC1 = 1;
  3161  0066  14CF               	bsf	79,1	;volatile
  3162                           
  3163                           ;pins.c: 76:                 break;
  3164  0067  288B               	goto	l1242
  3165  0068                     l90:	
  3166                           ;pins.c: 77:             case PINC2 :
  3167                           
  3168                           
  3169                           ;pins.c: 78:                 TRISCbits.TRISC2 = 1;
  3170  0068  0140               	movlb	0	; select bank0
  3171  0069  1514               	bsf	20,2	;volatile
  3172                           
  3173                           ;pins.c: 79:                 ANSELCbits.ANSC2 = 0;
  3174  006A  017E               	movlb	62	; select bank62
  3175  006B  114E               	bcf	78,2	;volatile
  3176                           
  3177                           ;pins.c: 80:                 WPUCbits.WPUC2 = 1;
  3178  006C  154F               	bsf	79,2	;volatile
  3179                           
  3180                           ;pins.c: 81:                 break;
  3181  006D  288B               	goto	l1242
  3182  006E                     l91:	
  3183                           ;pins.c: 82:             case PINC3 :
  3184                           
  3185                           
  3186                           ;pins.c: 83:                 TRISCbits.TRISC3 = 1;
  3187  006E  0140               	movlb	0	; select bank0
  3188  006F  1594               	bsf	20,3	;volatile
  3189                           
  3190                           ;pins.c: 84:                 ANSELCbits.ANSC3 = 0;
  3191  0070  017E               	movlb	62	; select bank62
  3192  0071  11CE               	bcf	78,3	;volatile
  3193                           
  3194                           ;pins.c: 85:                 WPUCbits.WPUC3 = 1;
  3195  0072  15CF               	bsf	79,3	;volatile
  3196                           
  3197                           ;pins.c: 86:                 break;
  3198  0073  288B               	goto	l1242
  3199  0074                     l92:	
  3200                           ;pins.c: 87:             case PINC4 :
  3201                           
  3202                           
  3203                           ;pins.c: 88:                 TRISCbits.TRISC4 = 1;
  3204  0074  0140               	movlb	0	; select bank0
  3205  0075  1614               	bsf	20,4	;volatile
  3206                           
  3207                           ;pins.c: 89:                 ANSELCbits.ANSC4 = 0;
  3208  0076  017E               	movlb	62	; select bank62
  3209  0077  124E               	bcf	78,4	;volatile
  3210                           
  3211                           ;pins.c: 90:                 WPUCbits.WPUC4 = 1;
  3212  0078  164F               	bsf	79,4	;volatile
  3213                           
  3214                           ;pins.c: 91:                 break;
  3215  0079  288B               	goto	l1242
  3216  007A                     l93:	
  3217                           ;pins.c: 92:             case PINC5 :
  3218                           
  3219                           
  3220                           ;pins.c: 93:                 TRISCbits.TRISC5 = 1;
  3221  007A  0140               	movlb	0	; select bank0
  3222  007B  1694               	bsf	20,5	;volatile
  3223                           
  3224                           ;pins.c: 94:                 ANSELCbits.ANSC5 = 0;
  3225  007C  017E               	movlb	62	; select bank62
  3226  007D  12CE               	bcf	78,5	;volatile
  3227                           
  3228                           ;pins.c: 95:                 WPUCbits.WPUC5 = 1;
  3229  007E  16CF               	bsf	79,5	;volatile
  3230                           
  3231                           ;pins.c: 96:                 break;
  3232  007F  288B               	goto	l1242
  3233  0080                     l94:	
  3234                           ;pins.c: 97:             case PINC6 :
  3235                           
  3236                           
  3237                           ;pins.c: 98:                 TRISCbits.TRISC6 = 1;
  3238  0080  0140               	movlb	0	; select bank0
  3239  0081  1714               	bsf	20,6	;volatile
  3240                           
  3241                           ;pins.c: 99:                 ANSELCbits.ANSC6 = 0;
  3242  0082  017E               	movlb	62	; select bank62
  3243  0083  134E               	bcf	78,6	;volatile
  3244                           
  3245                           ;pins.c: 100:                 WPUCbits.WPUC6 = 1;
  3246  0084  174F               	bsf	79,6	;volatile
  3247                           
  3248                           ;pins.c: 101:                 break;
  3249  0085  288B               	goto	l1242
  3250  0086                     l95:	
  3251                           ;pins.c: 102:             case PINC7 :
  3252                           
  3253                           
  3254                           ;pins.c: 103:                 TRISCbits.TRISC7 = 1;
  3255  0086  0140               	movlb	0	; select bank0
  3256  0087  1794               	bsf	20,7	;volatile
  3257                           
  3258                           ;pins.c: 104:                 ANSELCbits.ANSC7 = 0;
  3259  0088  017E               	movlb	62	; select bank62
  3260  0089  13CE               	bcf	78,7	;volatile
  3261                           
  3262                           ;pins.c: 105:                 WPUCbits.WPUC7 = 1;
  3263  008A  17CF               	bsf	79,7	;volatile
  3264  008B                     l1242:	
  3265                           ;pins.c: 106:                 break;
  3266                           
  3267                           
  3268                           ;pins.c: 108:     }
  3269  008B  3001               	movlw	1
  3270  008C  00F3               	movwf	??_defineGPIODirection
  3271  008D  0873               	movf	??_defineGPIODirection,w
  3272  008E  07F7               	addwf	defineGPIODirection@i,f
  3273  008F                     l1244:	
  3274  008F  0871               	movf	defineGPIODirection@inputLength,w
  3275  0090  0277               	subwf	defineGPIODirection@i,w
  3276  0091  1803               	btfsc	3,0
  3277  0092  28D7               	goto	l1246
  3278  0093  0877               	movf	defineGPIODirection@i,w
  3279  0094  0776               	addwf	defineGPIODirection@input,w
  3280  0095  00F3               	movwf	??_defineGPIODirection
  3281  0096  0873               	movf	??_defineGPIODirection,w
  3282  0097  0086               	movwf	6
  3283  0098  0187               	clrf	7
  3284  0099  0801               	movf	1,w
  3285  009A  00F4               	movwf	??_defineGPIODirection+1
  3286  009B  01F5               	clrf	??_defineGPIODirection+2
  3287                           
  3288                           ; Switch on 2 bytes has been partitioned into a top level switch of size 1, and 1 sub-sw
      +                          itches
  3289                           ; Switch size 1, requested type "simple"
  3290                           ; Number of cases is 1, Range of values is 0 to 0
  3291                           ; switch strategies available:
  3292                           ; Name         Instructions Cycles
  3293                           ; simple_byte            4     3 (average)
  3294                           ; direct_byte            8     6 (fixed)
  3295                           ; jumptable            260     6 (fixed)
  3296                           ;	Chosen strategy is simple_byte
  3297  009C  0875               	movf	??_defineGPIODirection+2,w
  3298  009D  3A00               	xorlw	0	; case 0
  3299  009E  1903               	skipnz
  3300  009F  28A1               	goto	l1450
  3301  00A0  288B               	goto	l1242
  3302  00A1                     l1450:	
  3303                           
  3304                           ; Switch size 1, requested type "simple"
  3305                           ; Number of cases is 17, Range of values is 0 to 16
  3306                           ; switch strategies available:
  3307                           ; Name         Instructions Cycles
  3308                           ; direct_byte           40     6 (fixed)
  3309                           ; simple_byte           52    27 (average)
  3310                           ; jumptable            260     6 (fixed)
  3311                           ;	Chosen strategy is simple_byte
  3312  00A1  0874               	movf	??_defineGPIODirection+1,w
  3313  00A2  3A00               	xorlw	0	; case 0
  3314  00A3  1903               	skipnz
  3315  00A4  2826               	goto	l78
  3316  00A5  3A01               	xorlw	1	; case 1
  3317  00A6  1903               	skipnz
  3318  00A7  282C               	goto	l80
  3319  00A8  3A03               	xorlw	3	; case 2
  3320  00A9  1903               	skipnz
  3321  00AA  2832               	goto	l81
  3322  00AB  3A01               	xorlw	1	; case 3
  3323  00AC  1903               	skipnz
  3324  00AD  2838               	goto	l82
  3325  00AE  3A07               	xorlw	7	; case 4
  3326  00AF  1903               	skipnz
  3327  00B0  283E               	goto	l83
  3328  00B1  3A01               	xorlw	1	; case 5
  3329  00B2  1903               	skipnz
  3330  00B3  2844               	goto	l84
  3331  00B4  3A03               	xorlw	3	; case 6
  3332  00B5  1903               	skipnz
  3333  00B6  284A               	goto	l85
  3334  00B7  3A01               	xorlw	1	; case 7
  3335  00B8  1903               	skipnz
  3336  00B9  2850               	goto	l86
  3337  00BA  3A0F               	xorlw	15	; case 8
  3338  00BB  1903               	skipnz
  3339  00BC  2856               	goto	l87
  3340  00BD  3A01               	xorlw	1	; case 9
  3341  00BE  1903               	skipnz
  3342  00BF  285C               	goto	l88
  3343  00C0  3A03               	xorlw	3	; case 10
  3344  00C1  1903               	skipnz
  3345  00C2  2862               	goto	l89
  3346  00C3  3A01               	xorlw	1	; case 11
  3347  00C4  1903               	skipnz
  3348  00C5  2868               	goto	l90
  3349  00C6  3A07               	xorlw	7	; case 12
  3350  00C7  1903               	skipnz
  3351  00C8  286E               	goto	l91
  3352  00C9  3A01               	xorlw	1	; case 13
  3353  00CA  1903               	skipnz
  3354  00CB  2874               	goto	l92
  3355  00CC  3A03               	xorlw	3	; case 14
  3356  00CD  1903               	skipnz
  3357  00CE  287A               	goto	l93
  3358  00CF  3A01               	xorlw	1	; case 15
  3359  00D0  1903               	skipnz
  3360  00D1  2880               	goto	l94
  3361  00D2  3A1F               	xorlw	31	; case 16
  3362  00D3  1903               	skipnz
  3363  00D4  2886               	goto	l95
  3364  00D5  288B               	goto	l1242
  3365  00D6  288B               	goto	l1242
  3366  00D7                     l1246:	
  3367                           
  3368                           ;pins.c: 110:     for(i = 0; i < outputLength; i++) {
  3369  00D7  01F7               	clrf	defineGPIODirection@i
  3370  00D8  290F               	goto	l1254
  3371  00D9                     l100:	
  3372                           ;pins.c: 112:             case PINA0 :
  3373                           
  3374                           
  3375                           ;pins.c: 113:                 TRISAbits.TRISA0 = 0;
  3376  00D9  0140               	movlb	0	; select bank0
  3377  00DA  1012               	bcf	18,0	;volatile
  3378                           
  3379                           ;pins.c: 114:                 break;
  3380  00DB  290B               	goto	l1252
  3381  00DC                     l102:	
  3382                           ;pins.c: 115:             case PINA1 :
  3383                           
  3384                           
  3385                           ;pins.c: 116:                 TRISAbits.TRISA1 = 0;
  3386  00DC  0140               	movlb	0	; select bank0
  3387  00DD  1092               	bcf	18,1	;volatile
  3388                           
  3389                           ;pins.c: 117:                 break;
  3390  00DE  290B               	goto	l1252
  3391  00DF                     l103:	
  3392                           ;pins.c: 118:             case PINA2 :
  3393                           
  3394                           
  3395                           ;pins.c: 119:                 TRISAbits.TRISA2 = 0;
  3396  00DF  0140               	movlb	0	; select bank0
  3397  00E0  1112               	bcf	18,2	;volatile
  3398                           
  3399                           ;pins.c: 120:                 break;
  3400  00E1  290B               	goto	l1252
  3401  00E2                     l104:	
  3402                           ;pins.c: 121:             case PINA4 :
  3403                           
  3404                           
  3405                           ;pins.c: 122:                 TRISAbits.TRISA4 = 0;
  3406  00E2  0140               	movlb	0	; select bank0
  3407  00E3  1212               	bcf	18,4	;volatile
  3408                           
  3409                           ;pins.c: 123:                 break;
  3410  00E4  290B               	goto	l1252
  3411  00E5                     l105:	
  3412                           ;pins.c: 124:             case PINA5 :
  3413                           
  3414                           
  3415                           ;pins.c: 125:                 TRISAbits.TRISA5 = 0;
  3416  00E5  0140               	movlb	0	; select bank0
  3417  00E6  1292               	bcf	18,5	;volatile
  3418                           
  3419                           ;pins.c: 126:                 break;
  3420  00E7  290B               	goto	l1252
  3421  00E8                     l106:	
  3422                           ;pins.c: 127:             case PINB4 :
  3423                           
  3424                           
  3425                           ;pins.c: 128:                 TRISBbits.TRISB4 = 0;
  3426  00E8  0140               	movlb	0	; select bank0
  3427  00E9  1213               	bcf	19,4	;volatile
  3428                           
  3429                           ;pins.c: 129:                 break;
  3430  00EA  290B               	goto	l1252
  3431  00EB                     l107:	
  3432                           ;pins.c: 130:             case PINB5 :
  3433                           
  3434                           
  3435                           ;pins.c: 131:                 TRISBbits.TRISB5 = 0;
  3436  00EB  0140               	movlb	0	; select bank0
  3437  00EC  1293               	bcf	19,5	;volatile
  3438                           
  3439                           ;pins.c: 132:                 break;
  3440  00ED  290B               	goto	l1252
  3441  00EE                     l108:	
  3442                           ;pins.c: 133:             case PINB6 :
  3443                           
  3444                           
  3445                           ;pins.c: 134:                 TRISBbits.TRISB6 = 0;
  3446  00EE  0140               	movlb	0	; select bank0
  3447  00EF  1313               	bcf	19,6	;volatile
  3448                           
  3449                           ;pins.c: 135:                 break;
  3450  00F0  290B               	goto	l1252
  3451  00F1                     l109:	
  3452                           ;pins.c: 136:             case PINB7 :
  3453                           
  3454                           
  3455                           ;pins.c: 137:                 TRISBbits.TRISB7 = 0;
  3456  00F1  0140               	movlb	0	; select bank0
  3457  00F2  1393               	bcf	19,7	;volatile
  3458                           
  3459                           ;pins.c: 138:                 break;
  3460  00F3  290B               	goto	l1252
  3461  00F4                     l110:	
  3462                           ;pins.c: 139:             case PINC0 :
  3463                           
  3464                           
  3465                           ;pins.c: 140:                 TRISCbits.TRISC0 = 0;
  3466  00F4  0140               	movlb	0	; select bank0
  3467  00F5  1014               	bcf	20,0	;volatile
  3468                           
  3469                           ;pins.c: 141:                 break;
  3470  00F6  290B               	goto	l1252
  3471  00F7                     l111:	
  3472                           ;pins.c: 142:             case PINC1 :
  3473                           
  3474                           
  3475                           ;pins.c: 143:                 TRISCbits.TRISC1 = 0;
  3476  00F7  0140               	movlb	0	; select bank0
  3477  00F8  1094               	bcf	20,1	;volatile
  3478                           
  3479                           ;pins.c: 144:                 break;
  3480  00F9  290B               	goto	l1252
  3481  00FA                     l112:	
  3482                           ;pins.c: 145:             case PINC2 :
  3483                           
  3484                           
  3485                           ;pins.c: 146:                 TRISCbits.TRISC2 = 0;
  3486  00FA  0140               	movlb	0	; select bank0
  3487  00FB  1114               	bcf	20,2	;volatile
  3488                           
  3489                           ;pins.c: 147:                 break;
  3490  00FC  290B               	goto	l1252
  3491  00FD                     l113:	
  3492                           ;pins.c: 148:             case PINC3 :
  3493                           
  3494                           
  3495                           ;pins.c: 149:                 TRISCbits.TRISC3 = 0;
  3496  00FD  0140               	movlb	0	; select bank0
  3497  00FE  1194               	bcf	20,3	;volatile
  3498                           
  3499                           ;pins.c: 150:                 break;
  3500  00FF  290B               	goto	l1252
  3501  0100                     l114:	
  3502                           ;pins.c: 151:             case PINC4 :
  3503                           
  3504                           
  3505                           ;pins.c: 152:                 TRISCbits.TRISC4 = 0;
  3506  0100  0140               	movlb	0	; select bank0
  3507  0101  1214               	bcf	20,4	;volatile
  3508                           
  3509                           ;pins.c: 153:                 break;
  3510  0102  290B               	goto	l1252
  3511  0103                     l115:	
  3512                           ;pins.c: 154:             case PINC5 :
  3513                           
  3514                           
  3515                           ;pins.c: 155:                 TRISCbits.TRISC5 = 0;
  3516  0103  0140               	movlb	0	; select bank0
  3517  0104  1294               	bcf	20,5	;volatile
  3518                           
  3519                           ;pins.c: 156:                 break;
  3520  0105  290B               	goto	l1252
  3521  0106                     l116:	
  3522                           ;pins.c: 157:             case PINC6 :
  3523                           
  3524                           
  3525                           ;pins.c: 158:                 TRISCbits.TRISC6 = 0;
  3526  0106  0140               	movlb	0	; select bank0
  3527  0107  1314               	bcf	20,6	;volatile
  3528                           
  3529                           ;pins.c: 159:                 break;
  3530  0108  290B               	goto	l1252
  3531  0109                     l117:	
  3532                           ;pins.c: 160:             case PINC7 :
  3533                           
  3534                           
  3535                           ;pins.c: 161:                 TRISCbits.TRISC7 = 0;
  3536  0109  0140               	movlb	0	; select bank0
  3537  010A  1394               	bcf	20,7	;volatile
  3538  010B                     l1252:	
  3539                           ;pins.c: 162:                 break;
  3540                           
  3541                           
  3542                           ;pins.c: 164:     }
  3543  010B  3001               	movlw	1
  3544  010C  00F3               	movwf	??_defineGPIODirection
  3545  010D  0873               	movf	??_defineGPIODirection,w
  3546  010E  07F7               	addwf	defineGPIODirection@i,f
  3547  010F                     l1254:	
  3548  010F  0872               	movf	defineGPIODirection@outputLength,w
  3549  0110  0277               	subwf	defineGPIODirection@i,w
  3550  0111  1803               	btfsc	3,0
  3551  0112  0008               	return
  3552  0113  0877               	movf	defineGPIODirection@i,w
  3553  0114  0770               	addwf	defineGPIODirection@output,w
  3554  0115  00F3               	movwf	??_defineGPIODirection
  3555  0116  0873               	movf	??_defineGPIODirection,w
  3556  0117  0086               	movwf	6
  3557  0118  0187               	clrf	7
  3558  0119  0801               	movf	1,w
  3559  011A  00F4               	movwf	??_defineGPIODirection+1
  3560  011B  01F5               	clrf	??_defineGPIODirection+2
  3561                           
  3562                           ; Switch on 2 bytes has been partitioned into a top level switch of size 1, and 1 sub-sw
      +                          itches
  3563                           ; Switch size 1, requested type "simple"
  3564                           ; Number of cases is 1, Range of values is 0 to 0
  3565                           ; switch strategies available:
  3566                           ; Name         Instructions Cycles
  3567                           ; simple_byte            4     3 (average)
  3568                           ; direct_byte            8     6 (fixed)
  3569                           ; jumptable            260     6 (fixed)
  3570                           ;	Chosen strategy is simple_byte
  3571  011C  0875               	movf	??_defineGPIODirection+2,w
  3572  011D  3A00               	xorlw	0	; case 0
  3573  011E  1903               	skipnz
  3574  011F  2921               	goto	l1452
  3575  0120  290B               	goto	l1252
  3576  0121                     l1452:	
  3577                           
  3578                           ; Switch size 1, requested type "simple"
  3579                           ; Number of cases is 17, Range of values is 0 to 16
  3580                           ; switch strategies available:
  3581                           ; Name         Instructions Cycles
  3582                           ; direct_byte           40     6 (fixed)
  3583                           ; simple_byte           52    27 (average)
  3584                           ; jumptable            260     6 (fixed)
  3585                           ;	Chosen strategy is simple_byte
  3586  0121  0874               	movf	??_defineGPIODirection+1,w
  3587  0122  3A00               	xorlw	0	; case 0
  3588  0123  1903               	skipnz
  3589  0124  28D9               	goto	l100
  3590  0125  3A01               	xorlw	1	; case 1
  3591  0126  1903               	skipnz
  3592  0127  28DC               	goto	l102
  3593  0128  3A03               	xorlw	3	; case 2
  3594  0129  1903               	skipnz
  3595  012A  28DF               	goto	l103
  3596  012B  3A01               	xorlw	1	; case 3
  3597  012C  1903               	skipnz
  3598  012D  28E2               	goto	l104
  3599  012E  3A07               	xorlw	7	; case 4
  3600  012F  1903               	skipnz
  3601  0130  28E5               	goto	l105
  3602  0131  3A01               	xorlw	1	; case 5
  3603  0132  1903               	skipnz
  3604  0133  28E8               	goto	l106
  3605  0134  3A03               	xorlw	3	; case 6
  3606  0135  1903               	skipnz
  3607  0136  28EB               	goto	l107
  3608  0137  3A01               	xorlw	1	; case 7
  3609  0138  1903               	skipnz
  3610  0139  28EE               	goto	l108
  3611  013A  3A0F               	xorlw	15	; case 8
  3612  013B  1903               	skipnz
  3613  013C  28F1               	goto	l109
  3614  013D  3A01               	xorlw	1	; case 9
  3615  013E  1903               	skipnz
  3616  013F  28F4               	goto	l110
  3617  0140  3A03               	xorlw	3	; case 10
  3618  0141  1903               	skipnz
  3619  0142  28F7               	goto	l111
  3620  0143  3A01               	xorlw	1	; case 11
  3621  0144  1903               	skipnz
  3622  0145  28FA               	goto	l112
  3623  0146  3A07               	xorlw	7	; case 12
  3624  0147  1903               	skipnz
  3625  0148  28FD               	goto	l113
  3626  0149  3A01               	xorlw	1	; case 13
  3627  014A  1903               	skipnz
  3628  014B  2900               	goto	l114
  3629  014C  3A03               	xorlw	3	; case 14
  3630  014D  1903               	skipnz
  3631  014E  2903               	goto	l115
  3632  014F  3A01               	xorlw	1	; case 15
  3633  0150  1903               	skipnz
  3634  0151  2906               	goto	l116
  3635  0152  3A1F               	xorlw	31	; case 16
  3636  0153  1903               	skipnz
  3637  0154  2909               	goto	l117
  3638  0155  290B               	goto	l1252
  3639  0156  290B               	goto	l1252
  3640  0157                     __end_of_defineGPIODirection:	
  3641                           
  3642                           	psect	intentry
  3643  0004                     __pintentry:	
  3644 ;; *************** function _timer0ISR *****************
  3645 ;; Defined at:
  3646 ;;		line 28 in file "timer0.c"
  3647 ;; Parameters:    Size  Location     Type
  3648 ;;		None
  3649 ;; Auto vars:     Size  Location     Type
  3650 ;;		None
  3651 ;; Return value:  Size  Location     Type
  3652 ;;                  1    wreg      void 
  3653 ;; Registers used:
  3654 ;;		wreg
  3655 ;; Tracked objects:
  3656 ;;		On entry : 0/0
  3657 ;;		On exit  : 0/0
  3658 ;;		Unchanged: 0/0
  3659 ;; Data sizes:     COMMON   BANK0   BANK1   BANK2   BANK3   BANK4   BANK5   BANK6   BANK7   BANK8   BANK9  BANK10  BANK1
      +1  BANK12  BANK13  BANK14  BANK15  BANK16  BANK17  BANK18  BANK19  BANK20  BANK21  BANK22  BANK23  BANK24  BANK25
  3660 ;;      Params:         0       0       0       0       0       0       0       0       0       0       0       0       
      +0       0       0       0       0       0       0       0       0       0       0       0       0       0       0
  3661 ;;      Locals:         0       0       0       0       0       0       0       0       0       0       0       0       
      +0       0       0       0       0       0       0       0       0       0       0       0       0       0       0
  3662 ;;      Temps:          0       0       0       0       0       0       0       0       0       0       0       0       
      +0       0       0       0       0       0       0       0       0       0       0       0       0       0       0
  3663 ;;      Totals:         0       0       0       0       0       0       0       0       0       0       0       0       
      +0       0       0       0       0       0       0       0       0       0       0       0       0       0       0
  3664 ;;Total ram usage:        0 bytes
  3665 ;; Hardware stack levels used:    1
  3666 ;; This function calls:
  3667 ;;		Nothing
  3668 ;; This function is called by:
  3669 ;;		Interrupt level 1
  3670 ;; This function uses a non-reentrant model
  3671 ;;
  3672                           
  3673  0004                     _timer0ISR:	
  3674                           
  3675                           ;incstack = 0
  3676  0004  147E               	bsf	126,0	;set compiler interrupt flag (level 1)
  3677                           
  3678                           ; Regs used in _timer0ISR: [wreg]
  3679  0005  3180               	pagesel	$
  3680                           
  3681                           ;timer0.c: 29:     time++;
  3682  0006  3001               	movlw	1
  3683  0007  0140               	movlb	0	; select bank0
  3684  0008  07B5               	addwf	_time,f
  3685  0009  3000               	movlw	0
  3686  000A  3DB6               	addwfc	_time+1,f
  3687  000B  107E               	bcf	126,0	;clear compiler interrupt flag (level 1)
  3688  000C  0009               	retfie
  3689  000D                     __end_of_timer0ISR:	
  3690  007E                     btemp	set	126	;btemp
  3691  007E                     int$flags	set	126
  3692  007E                     wtemp0	set	126


Data Sizes:
    Strings     0
    Constant    0
    Data        2
    BSS         27
    Persistent  32
    Stack       0

Auto Spaces:
    Space          Size  Autos    Used
    COMMON           14     11      14
    BANK0            80      0      26
    BANK1            80      0       0
    BANK2            80      0       0
    BANK3            80      0       0
    BANK4            80      0       0
    BANK5            80      0       0
    BANK6            80      0       0
    BANK7            80      0       0
    BANK8            80      0       0
    BANK9            80      0       0
    BANK10           80      0       0
    BANK11           80      0       0
    BANK12           80      0       0
    BANK13           80      0       0
    BANK14           80      0       0
    BANK15           80      0       0
    BANK16           80      0       0
    BANK17           80      0       0
    BANK18           80      0       0
    BANK19           80      0       0
    BANK20           80      0       0
    BANK21           80      0       0
    BANK22           80      0       0
    BANK23           80      0       0
    BANK24           80      0       0
    BANK25           32      0       0

Pointer List with Targets:

    defineGPIODirection@output	PTR enum E11183 size(1) Largest target is 1
		 -> main@output(COMMON[1]), 

    defineGPIODirection@input	PTR enum E11183 size(1) Largest target is 1
		 -> main@input(COMMON[1]), 


Critical Paths under _main in COMMON

    _main->_defineGPIODirection

Critical Paths under _timer0ISR in COMMON

    None.

Critical Paths under _main in BANK0

    None.

Critical Paths under _timer0ISR in BANK0

    None.

Critical Paths under _main in BANK1

    None.

Critical Paths under _timer0ISR in BANK1

    None.

Critical Paths under _main in BANK2

    None.

Critical Paths under _timer0ISR in BANK2

    None.

Critical Paths under _main in BANK3

    None.

Critical Paths under _timer0ISR in BANK3

    None.

Critical Paths under _main in BANK4

    None.

Critical Paths under _timer0ISR in BANK4

    None.

Critical Paths under _main in BANK5

    None.

Critical Paths under _timer0ISR in BANK5

    None.

Critical Paths under _main in BANK6

    None.

Critical Paths under _timer0ISR in BANK6

    None.

Critical Paths under _main in BANK7

    None.

Critical Paths under _timer0ISR in BANK7

    None.

Critical Paths under _main in BANK8

    None.

Critical Paths under _timer0ISR in BANK8

    None.

Critical Paths under _main in BANK9

    None.

Critical Paths under _timer0ISR in BANK9

    None.

Critical Paths under _main in BANK10

    None.

Critical Paths under _timer0ISR in BANK10

    None.

Critical Paths under _main in BANK11

    None.

Critical Paths under _timer0ISR in BANK11

    None.

Critical Paths under _main in BANK12

    None.

Critical Paths under _timer0ISR in BANK12

    None.

Critical Paths under _main in BANK13

    None.

Critical Paths under _timer0ISR in BANK13

    None.

Critical Paths under _main in BANK14

    None.

Critical Paths under _timer0ISR in BANK14

    None.

Critical Paths under _main in BANK15

    None.

Critical Paths under _timer0ISR in BANK15

    None.

Critical Paths under _main in BANK16

    None.

Critical Paths under _timer0ISR in BANK16

    None.

Critical Paths under _main in BANK17

    None.

Critical Paths under _timer0ISR in BANK17

    None.

Critical Paths under _main in BANK18

    None.

Critical Paths under _timer0ISR in BANK18

    None.

Critical Paths under _main in BANK19

    None.

Critical Paths under _timer0ISR in BANK19

    None.

Critical Paths under _main in BANK20

    None.

Critical Paths under _timer0ISR in BANK20

    None.

Critical Paths under _main in BANK21

    None.

Critical Paths under _timer0ISR in BANK21

    None.

Critical Paths under _main in BANK22

    None.

Critical Paths under _timer0ISR in BANK22

    None.

Critical Paths under _main in BANK23

    None.

Critical Paths under _timer0ISR in BANK23

    None.

Critical Paths under _main in BANK24

    None.

Critical Paths under _timer0ISR in BANK24

    None.

Critical Paths under _main in BANK25

    None.

Critical Paths under _timer0ISR in BANK25

    None.

Call Graph Tables:

 ---------------------------------------------------------------------------------
 (Depth) Function   	        Calls       Base Space   Used Autos Params    Refs
 ---------------------------------------------------------------------------------
 (0) _main                                                 3     3      0    1426
                                              8 COMMON     3     3      0
                _defineGPIODirection
                            _readPin
                      _timer0_config
                           _writePin
 ---------------------------------------------------------------------------------
 (1) _writePin                                             4     3      1     922
                                              0 COMMON     4     3      1
 ---------------------------------------------------------------------------------
 (1) _timer0_config                                        0     0      0       0
 ---------------------------------------------------------------------------------
 (1) _readPin                                              3     3      0      15
                                              0 COMMON     3     3      0
 ---------------------------------------------------------------------------------
 (1) _defineGPIODirection                                  8     5      3     441
                                              0 COMMON     8     5      3
 ---------------------------------------------------------------------------------
 Estimated maximum stack depth 1
 ---------------------------------------------------------------------------------
 (Depth) Function   	        Calls       Base Space   Used Autos Params    Refs
 ---------------------------------------------------------------------------------
 (2) _timer0ISR                                            0     0      0       0
 ---------------------------------------------------------------------------------
 Estimated maximum stack depth 2
 ---------------------------------------------------------------------------------

 Call Graph Graphs:

 _main (ROOT)
   _defineGPIODirection
   _readPin
   _timer0_config
   _writePin

 _timer0ISR (ROOT)

 Address spaces:
Name               Size   Autos  Total    Cost      Usage
BIGRAM             7F0      0       0       0        0.0%
EEDATA             100      0       0       0        0.0%
NULL                 0      0       0       0        0.0%
CODE                 0      0       0       0        0.0%
BITCOMMON            E      0       0       1        0.0%
BITSFR0              0      0       0       1        0.0%
SFR0                 0      0       0       1        0.0%
COMMON               E      B       E       2      100.0%
BITSFR1              0      0       0       2        0.0%
SFR1                 0      0       0       2        0.0%
BITSFR2              0      0       0       3        0.0%
SFR2                 0      0       0       3        0.0%
STACK                0      0       0       3        0.0%
BITBANK0            50      0       0       4        0.0%
BITSFR3              0      0       0       4        0.0%
SFR3                 0      0       0       4        0.0%
BANK0               50      0      1A       5       32.5%
BITSFR4              0      0       0       5        0.0%
SFR4                 0      0       0       5        0.0%
BITSFR5              0      0       0       6        0.0%
SFR5                 0      0       0       6        0.0%
ABS                  0      0      28       6        0.0%
BITBANK1            50      0       0       7        0.0%
BITSFR6              0      0       0       7        0.0%
SFR6                 0      0       0       7        0.0%
BANK1               50      0       0       8        0.0%
BITSFR7              0      0       0       8        0.0%
SFR7                 0      0       0       8        0.0%
BITBANK2            50      0       0       9        0.0%
BITSFR8              0      0       0       9        0.0%
SFR8                 0      0       0       9        0.0%
BANK2               50      0       0      10        0.0%
BITSFR9              0      0       0      10        0.0%
SFR9                 0      0       0      10        0.0%
BITBANK3            50      0       0      11        0.0%
BITSFR10             0      0       0      11        0.0%
SFR10                0      0       0      11        0.0%
BANK3               50      0       0      12        0.0%
BITSFR11             0      0       0      12        0.0%
SFR11                0      0       0      12        0.0%
BITBANK4            50      0       0      13        0.0%
BITSFR12             0      0       0      13        0.0%
SFR12                0      0       0      13        0.0%
BANK4               50      0       0      14        0.0%
BITSFR13             0      0       0      14        0.0%
SFR13                0      0       0      14        0.0%
BITBANK5            50      0       0      15        0.0%
BITSFR14             0      0       0      15        0.0%
SFR14                0      0       0      15        0.0%
BANK5               50      0       0      16        0.0%
BITSFR15             0      0       0      16        0.0%
SFR15                0      0       0      16        0.0%
BITBANK6            50      0       0      17        0.0%
BITSFR16             0      0       0      17        0.0%
SFR16                0      0       0      17        0.0%
BANK6               50      0       0      18        0.0%
BITSFR17             0      0       0      18        0.0%
SFR17                0      0       0      18        0.0%
BITBANK7            50      0       0      19        0.0%
BITSFR18             0      0       0      19        0.0%
SFR18                0      0       0      19        0.0%
BANK7               50      0       0      20        0.0%
BITSFR19             0      0       0      20        0.0%
SFR19                0      0       0      20        0.0%
BITBANK8            50      0       0      21        0.0%
BITSFR20             0      0       0      21        0.0%
SFR20                0      0       0      21        0.0%
BANK8               50      0       0      22        0.0%
BITSFR21             0      0       0      22        0.0%
SFR21                0      0       0      22        0.0%
BITBANK9            50      0       0      23        0.0%
BITSFR22             0      0       0      23        0.0%
SFR22                0      0       0      23        0.0%
BANK9               50      0       0      24        0.0%
BITSFR23             0      0       0      24        0.0%
SFR23                0      0       0      24        0.0%
BITBANK10           50      0       0      25        0.0%
BITSFR24             0      0       0      25        0.0%
SFR24                0      0       0      25        0.0%
BANK10              50      0       0      26        0.0%
BITSFR25             0      0       0      26        0.0%
SFR25                0      0       0      26        0.0%
BITBANK11           50      0       0      27        0.0%
BITSFR26             0      0       0      27        0.0%
SFR26                0      0       0      27        0.0%
BANK11              50      0       0      28        0.0%
BITSFR27             0      0       0      28        0.0%
SFR27                0      0       0      28        0.0%
BITBANK12           50      0       0      29        0.0%
BITSFR28             0      0       0      29        0.0%
SFR28                0      0       0      29        0.0%
BANK12              50      0       0      30        0.0%
BITSFR29             0      0       0      30        0.0%
SFR29                0      0       0      30        0.0%
BITBANK13           50      0       0      31        0.0%
BITSFR30             0      0       0      31        0.0%
SFR30                0      0       0      31        0.0%
BANK13              50      0       0      32        0.0%
BITSFR31             0      0       0      32        0.0%
SFR31                0      0       0      32        0.0%
BITBANK14           50      0       0      33        0.0%
BITSFR32             0      0       0      33        0.0%
SFR32                0      0       0      33        0.0%
BANK14              50      0       0      34        0.0%
BITSFR33             0      0       0      34        0.0%
SFR33                0      0       0      34        0.0%
BITBANK15           50      0       0      35        0.0%
BITSFR34             0      0       0      35        0.0%
SFR34                0      0       0      35        0.0%
BANK15              50      0       0      36        0.0%
BITSFR35             0      0       0      36        0.0%
SFR35                0      0       0      36        0.0%
BITBANK16           50      0       0      37        0.0%
BITSFR36             0      0       0      37        0.0%
SFR36                0      0       0      37        0.0%
BANK16              50      0       0      38        0.0%
BITSFR37             0      0       0      38        0.0%
SFR37                0      0       0      38        0.0%
BITBANK17           50      0       0      39        0.0%
BITSFR38             0      0       0      39        0.0%
SFR38                0      0       0      39        0.0%
BANK17              50      0       0      40        0.0%
BITSFR39             0      0       0      40        0.0%
SFR39                0      0       0      40        0.0%
BITBANK18           50      0       0      41        0.0%
BITSFR40             0      0       0      41        0.0%
SFR40                0      0       0      41        0.0%
BANK18              50      0       0      42        0.0%
BITSFR41             0      0       0      42        0.0%
SFR41                0      0       0      42        0.0%
BITBANK19           50      0       0      43        0.0%
BITSFR42             0      0       0      43        0.0%
SFR42                0      0       0      43        0.0%
BANK19              50      0       0      44        0.0%
BITSFR43             0      0       0      44        0.0%
SFR43                0      0       0      44        0.0%
BITBANK20           50      0       0      45        0.0%
BITSFR44             0      0       0      45        0.0%
SFR44                0      0       0      45        0.0%
BANK20              50      0       0      46        0.0%
BITSFR45             0      0       0      46        0.0%
SFR45                0      0       0      46        0.0%
BITBANK21           50      0       0      47        0.0%
BITSFR46             0      0       0      47        0.0%
SFR46                0      0       0      47        0.0%
BANK21              50      0       0      48        0.0%
BITSFR47             0      0       0      48        0.0%
SFR47                0      0       0      48        0.0%
BITBANK22           50      0       0      49        0.0%
BITSFR48             0      0       0      49        0.0%
SFR48                0      0       0      49        0.0%
BANK22              50      0       0      50        0.0%
BITSFR49             0      0       0      50        0.0%
SFR49                0      0       0      50        0.0%
BITBANK23           50      0       0      51        0.0%
BITSFR50             0      0       0      51        0.0%
SFR50                0      0       0      51        0.0%
BANK23              50      0       0      52        0.0%
BITSFR51             0      0       0      52        0.0%
SFR51                0      0       0      52        0.0%
BITBANK24           50      0       0      53        0.0%
BITSFR52             0      0       0      53        0.0%
SFR52                0      0       0      53        0.0%
BANK24              50      0       0      54        0.0%
BITSFR53             0      0       0      54        0.0%
SFR53                0      0       0      54        0.0%
BITBANK25           20      0       0      55        0.0%
BITSFR54             0      0       0      55        0.0%
SFR54                0      0       0      55        0.0%
BANK25              20      0       0      56        0.0%
BITSFR55             0      0       0      56        0.0%
SFR55                0      0       0      56        0.0%
BITSFR56             0      0       0      57        0.0%
SFR56                0      0       0      57        0.0%
DATA                 0      0      28      57        0.0%
BITSFR57             0      0       0      58        0.0%
SFR57                0      0       0      58        0.0%
BITSFR58             0      0       0      59        0.0%
SFR58                0      0       0      59        0.0%
BITSFR59             0      0       0      60        0.0%
SFR59                0      0       0      60        0.0%
BITSFR60             0      0       0      61        0.0%
SFR60                0      0       0      61        0.0%
BITSFR61             0      0       0      62        0.0%
SFR61                0      0       0      62        0.0%
BITSFR62             0      0       0      63        0.0%
SFR62                0      0       0      63        0.0%
BITSFR63             0      0       0      64        0.0%
SFR63                0      0       0      64        0.0%


Microchip Technology PIC Macro Assembler V2.05 build -831301201 
Symbol Table                                                                                   Sat Mar 28 23:58:19 2020

                             l80 002C                               l81 0032                               l90 0068  
                             l82 0038                               l91 006E                               l83 003E  
                             l92 0074                               l84 0044                               l93 007A  
                             l85 004A                               l94 0080                               l86 0050  
                             l78 0026                               l95 0086                               l87 0056  
                             l88 005C                               l89 0062                              l100 00D9  
                            l110 00F4                              l102 00DC                              l111 00F7  
                            l103 00DF                              l112 00FA                              l104 00E2  
                            l113 00FD                              l105 00E5                              l114 0100  
                            l106 00E8                              l130 025F                              l115 0103  
                            l107 00EB                              l123 0254                              l116 0106  
                            l108 00EE                              l117 0109                              l109 00F1  
                            l133 0263                              l125 02D8                              l142 026F  
                            l151 027B                              l127 025B                              l160 0287  
                            l136 0267                              l145 0273                              l154 027F  
                            l163 028B                              l139 026B                              l172 0297  
                            l148 0277                              l157 0283                              l166 028F  
                            l169 0293                              l197 0251                              l880 0259  
                            l874 0257                              wreg 0009                             l1044 029B  
                           l1310 01D2                             l1302 01BC                             l1242 008B  
                           l1330 0209                             l1322 01F3                             l1314 01DD  
                           l1306 01C7                             l1252 010B                             l1244 008F  
                           l1254 010F                             l1246 00D7                             l1326 01FE  
                           l1318 01E8                             l1270 0164                             l1350 02F1  
                           l1336 0214                             l1450 00A1                             l1290 019B  
                           l1282 0185                             l1274 016F                             l1266 0159  
                           l1452 0121                             l1348 02F7                             l1446 021C  
                           l1294 01A6                             l1286 0190                             l1278 017A  
                           l1448 02A3                             l1298 01B1                             _main 02D9  
                           _time 0035                             fsr0h 0005                             fsr1h 0007  
                           indf0 0000                             fsr0l 0004                             indf1 0001  
                           fsr1l 0006                             btemp 007E                             start 000D  
                          ?_main 0070                    __CFG_WDTE$OFF 0000                            _TMR0H 059D  
 defineGPIODirection@inputLength 0071                  __end_of_readPin 02D9                            wtemp0 007E  
                __initialization 000F                     __end_of_main 0300                           ??_main 0078  
                    readPin@read 0072                  _buttonLastState 0039                        ??_readPin 0070  
                   __pdataCOMMON 007B                 __end_of_writePin 0252          __end_of__initialization 001F  
                 __pcstackCOMMON 0070            __end_of_timer0_config 0311                       __pbssBANK0 0020  
   __size_of_defineGPIODirection 0134                       __pmaintext 02D9                       __pintentry 0004  
             __size_of_timer0ISR 0009                          __ptext1 0157                          __ptext2 0300  
                        __ptext3 0252                          __ptext4 0023                        ?_writePin 0070  
                        _readPin 0252                          clrloop0 0312             end_of_initialization 001F  
              __end_of_timer0ISR 000D                       main@F11232 007C                       main@F11234 007B  
                      _PORTAbits 000C                        _PORTBbits 000D                       ??_writePin 0071  
                      _PORTCbits 000E         defineGPIODirection@input 0076                        _TRISAbits 0012  
                      _TRISBbits 0013                        _TRISCbits 0014                       main@output 007A  
                  __pidataCOMMON 0317  defineGPIODirection@outputLength 0072              _defineGPIODirection 0023  
            start_initialization 000F        defineGPIODirection@output 0070             ?_defineGPIODirection 0070  
                    __pbssCOMMON 007D                        ___latbits 0003            ??_defineGPIODirection 0073  
         __size_of_timer0_config 0011                         ?_readPin 0070                __size_of_writePin 00FB  
             _timeButtonReleased 0031                        _pinStates 0020                         _LATAbits 0018  
                       _LATBbits 0019                         _LATCbits 001A                        clear_ram0 0311  
                       _PIE0bits 0716                        _timer0ISR 0004                         _WPUAbits 1F39  
                       _WPUBbits 1F44                         _WPUCbits 1F4F                        main@input 0079  
                  _timer0_config 0300             defineGPIODirection@i 0077                       ?_timer0ISR 0070  
                  _timeTurnedOff 0033                    _ledLasteState 0037                       _ANSELAbits 1F38  
                     _ANSELBbits 1F43                       _ANSELCbits 1F4E                      _buttonState 007D  
                     _T0CON0bits 059E                       _T0CON1bits 059F                 __size_of_readPin 0087  
                 ?_timer0_config 0070                         _ledState 0038                    __size_of_main 0027  
                       int$flags 007E                         _writePin 0157                       _INTCONbits 000B  
                       intlevel1 0000                      ??_timer0ISR 0070                  ??_timer0_config 0070  
    __end_of_defineGPIODirection 0157                    writePin@value 0070                    writePin@write 0073  
